

HI-TECH Software PIC LITE Macro Assembler V9.71a build 6446 
                                                                                               Wed Sep 13 00:57:09 2017

HI-TECH Software Omniscient Code Generator (Lite mode) build 6446
     1  0000                     opt subtitle "HI-TECH Software Omniscient Code Generator (Lite mode) build 6446"
     2                           
     3                           opt pagewidth 120
     4                           
     5                           	opt lm
     6                           
     7                           	processor	16F887
     8                           clrc	macro
     9                           	bcf	3,0
    10  0000                     	endm
    11                           clrz	macro
    12                           	bcf	3,2
    13  0000                     	endm
    14                           setc	macro
    15                           	bsf	3,0
    16  0000                     	endm
    17                           setz	macro
    18                           	bsf	3,2
    19  0000                     	endm
    20                           skipc	macro
    21                           	btfss	3,0
    22  0000                     	endm
    23                           skipz	macro
    24                           	btfss	3,2
    25  0000                     	endm
    26                           skipnc	macro
    27                           	btfsc	3,0
    28  0000                     	endm
    29                           skipnz	macro
    30                           	btfsc	3,2
    31  0000                     	endm
    32  0000                     indf	equ	0
    33  0000                     indf0	equ	0
    34  0002                     pc	equ	2
    35  0002                     pcl	equ	2
    36  0003                     status	equ	3
    37  0004                     fsr	equ	4
    38  0004                     fsr0	equ	4
    39  0001                     c	equ	1
    40  0000                     z	equ	0
    41  000A                     pclath	equ	10
    42                           # 20 "MainCode.c"
    43                           	psect config,class=CONFIG,delta=2 ;#
    44                           # 20 "MainCode.c"
    45  2007  2CE2               	dw 0x3CFF & 0x3FF7 & 0x2FFF & 0x3FFA & 0x3FEF & 0x3FFF ;#
    46                           	FNCALL	_main,_default_initialisations
    47                           	FNCALL	_main,_peripheral_initialsation
    48                           	FNCALL	_main,_isItFirstTime
    49                           	FNCALL	_main,_default_bootSequence
    50                           	FNCALL	_main,_lcd_clear
    51                           	FNCALL	_main,_start_timer0
    52                           	FNCALL	_main,_lcd_writeThisStringAt
    53                           	FNCALL	_main,_IsKeyPressed
    54                           	FNCALL	_IsKeyPressed,_SettingModeOperations
    55                           	FNCALL	_IsKeyPressed,_NormalModeOperations
    56                           	FNCALL	_SettingModeOperations,_DownButtonHandler
    57                           	FNCALL	_SettingModeOperations,_PreviousButtonHandler
    58                           	FNCALL	_SettingModeOperations,_UpbuttonHandler
    59                           	FNCALL	_SettingModeOperations,_NextButtonHandler
    60                           	FNCALL	_NextButtonHandler,_UpdateScreen
    61                           	FNCALL	_UpbuttonHandler,_lcd_writeThisStringAt
    62                           	FNCALL	_UpbuttonHandler,_UpdateScreen
    63                           	FNCALL	_PreviousButtonHandler,_UpdateScreen
    64                           	FNCALL	_DownButtonHandler,_lcd_writeThisStringAt
    65                           	FNCALL	_DownButtonHandler,_UpdateScreen
    66                           	FNCALL	_NormalModeOperations,_serveCoffee
    67                           	FNCALL	_NormalModeOperations,_serveHalfQuantity
    68                           	FNCALL	_NormalModeOperations,_serveTea
    69                           	FNCALL	_NormalModeOperations,_serveHotWater
    70                           	FNCALL	_UpdateScreen,_lcd_clear
    71                           	FNCALL	_UpdateScreen,_lcd_writeThisStringAt
    72                           	FNCALL	_UpdateScreen,_lcd_writeThisDigit
    73                           	FNCALL	_default_bootSequence,_lcd_writeThisStringAt
    74                           	FNCALL	_serveHotWater,_lcd_writeThisStringAt
    75                           	FNCALL	_serveHotWater,_lcd_clear
    76                           	FNCALL	_serveTea,_lcd_writeThisStringAt
    77                           	FNCALL	_serveTea,_lcd_clear
    78                           	FNCALL	_serveHalfQuantity,_lcd_writeThisStringAt
    79                           	FNCALL	_serveHalfQuantity,_lcd_clear
    80                           	FNCALL	_serveCoffee,_lcd_writeThisStringAt
    81                           	FNCALL	_serveCoffee,_lcd_clear
    82                           	FNCALL	_lcd_writeThisDigit,___awmod
    83                           	FNCALL	_lcd_writeThisDigit,___awdiv
    84                           	FNCALL	_lcd_writeThisDigit,_lcd_puts
    85                           	FNCALL	_peripheral_initialsation,_lcd_init
    86                           	FNCALL	_peripheral_initialsation,_initialisePortB
    87                           	FNCALL	_peripheral_initialsation,_enableInterrupt_RB0
    88                           	FNCALL	_peripheral_initialsation,_GlobalInterrupt_ENABLE
    89                           	FNCALL	_peripheral_initialsation,_initialise_timer0
    90                           	FNCALL	_peripheral_initialsation,_adc_initialise
    91                           	FNCALL	_peripheral_initialsation,_lcd_clear
    92                           	FNCALL	_lcd_writeThisStringAt,_goto_XY
    93                           	FNCALL	_lcd_writeThisStringAt,_lcd_puts
    94                           	FNCALL	_goto_XY,_lcd_cmd
    95                           	FNCALL	_lcd_puts,_lcd_write
    96                           	FNCALL	_lcd_init,_lcd_cmd
    97                           	FNCALL	_lcd_clear,_lcd_cmd
    98                           	FNCALL	_initialise_timer0,_GlobalInterrupt_ENABLE
    99                           	FNROOT	_main
   100                           	FNCALL	_ISR,_adc_getValue
   101                           	FNCALL	_ISR,_print_ADCValue
   102                           	FNCALL	_ISR,_disableInterrupt_RB0
   103                           	FNCALL	_ISR,_stop_timer0
   104                           	FNCALL	_ISR,i1_lcd_clear
   105                           	FNCALL	_ISR,i1_lcd_writeThisStringAt
   106                           	FNCALL	_ISR,_InitialiseSettingMode
   107                           	FNCALL	_ISR,_updateConfiguration
   108                           	FNCALL	_ISR,i1_enableInterrupt_RB0
   109                           	FNCALL	_ISR,i1_start_timer0
   110                           	FNCALL	_InitialiseSettingMode,i1_UpdateScreen
   111                           	FNCALL	i1_UpdateScreen,i1_lcd_clear
   112                           	FNCALL	i1_UpdateScreen,i1_lcd_writeThisStringAt
   113                           	FNCALL	i1_UpdateScreen,i1_lcd_writeThisDigit
   114                           	FNCALL	_print_ADCValue,i1___awmod
   115                           	FNCALL	_print_ADCValue,i1___awdiv
   116                           	FNCALL	_print_ADCValue,i1_lcd_writeThisStringAt
   117                           	FNCALL	i1_lcd_writeThisDigit,i1___awmod
   118                           	FNCALL	i1_lcd_writeThisDigit,i1___awdiv
   119                           	FNCALL	i1_lcd_writeThisDigit,i1_lcd_puts
   120                           	FNCALL	i1_lcd_writeThisStringAt,i1_goto_XY
   121                           	FNCALL	i1_lcd_writeThisStringAt,i1_lcd_puts
   122                           	FNCALL	i1_lcd_clear,i1_lcd_cmd
   123                           	FNCALL	i1_goto_XY,i1_lcd_cmd
   124                           	FNCALL	i1_lcd_puts,i1_lcd_write
   125                           	FNCALL	intlevel1,_ISR
   126                           	global	intlevel1
   127                           	FNROOT	intlevel1
   128                           	global	lcd_init@F891
   129                           	global	print_ADCValue@F1018
   130                           	global	lcd_writeThisDigit@F912
   131                           	global	_IsNewMachine
   132                           	global	_isFirstTimeInSetting
   133                           	global	_modeOfWorking
   134                           psect	idataBANK0,class=CODE,space=0,delta=2
   135                           global __pidataBANK0
   136  159F                     __pidataBANK0:
   137                           	file	"lcd.c"
   138                           	line	8
   139                           
   140                           ;initializer for lcd_init@F891
   141  159F  3402               	retlw	02h
   142  15A0  3428               	retlw	028h
   143  15A1  340E               	retlw	0Eh
   144  15A2  3401               	retlw	01h
   145  15A3  3406               	retlw	06h
   146  15A4  3480               	retlw	080h
   147                           	file	"ADC.c"
   148                           	line	35
   149                           
   150                           ;initializer for print_ADCValue@F1018
   151  15A5  3430               	retlw	030h
   152  15A6  3430               	retlw	030h
   153  15A7  3430               	retlw	030h
   154  15A8  3430               	retlw	030h
   155  15A9  3400               	retlw	0
   156                           	file	"lcd.c"
   157                           	line	126
   158                           
   159                           ;initializer for lcd_writeThisDigit@F912
   160  15AA  3430               	retlw	030h
   161  15AB  3430               	retlw	030h
   162  15AC  3430               	retlw	030h
   163  15AD  3400               	retlw	0
   164                           	file	"CommonDeclarations.h"
   165                           	line	46
   166                           
   167                           ;initializer for _IsNewMachine
   168  15AE  3401               	retlw	01h
   169                           	file	"SettingModeHandler.h"
   170                           	line	26
   171                           
   172                           ;initializer for _isFirstTimeInSetting
   173  15AF  3401               	retlw	01h
   174                           psect	idataCOMMON,class=CODE,space=0,delta=2
   175                           global __pidataCOMMON
   176  0003                     __pidataCOMMON:
   177                           	file	"CommonDeclarations.h"
   178                           	line	51
   179                           
   180                           ;initializer for _modeOfWorking
   181  0003  3401               	retlw	01h
   182                           	global	_buttonPressedCount
   183                           	global	_CurrentCoffeeQuantity
   184                           	global	_CurrentTeaQuantity
   185                           	global	_CurrentWaterQuantity_forCoffee
   186                           	global	_CurrentWaterQuantity_forTea
   187                           	global	_ParameterIndex
   188                           	global	_ScreenIndex
   189                           	global	_button_pressed
   190                           	global	_flagTimer2
   191                           	global	_flag_T0_OneSecond
   192                           	global	_flag_T0_TenSecond
   193                           	global	_flag_TenSecond_main
   194                           	global	_isFirstTime_Settings
   195                           	global	_isKeyPressed
   196                           	global	_keyPressed
   197                           	global	_timer0_count
   198                           	global	_timer0_count10
   199                           	global	_ADCON0
   200  001F                     _ADCON0	set	31
   201                           	global	_ADRESH
   202  001E                     _ADRESH	set	30
   203                           	global	_PORTB
   204  0006                     _PORTB	set	6
   205                           	global	_PORTD
   206  0008                     _PORTD	set	8
   207                           	global	_T2CON
   208  0012                     _T2CON	set	18
   209                           	global	_TMR0
   210  0001                     _TMR0	set	1
   211                           	global	_TMR2
   212  0011                     _TMR2	set	17
   213                           	global	_ADON
   214  00F8                     _ADON	set	248
   215                           	global	_CARRY
   216  0018                     _CARRY	set	24
   217                           	global	_GIE
   218  005F                     _GIE	set	95
   219                           	global	_GODONE
   220  00F9                     _GODONE	set	249
   221                           	global	_INTE
   222  005C                     _INTE	set	92
   223                           	global	_INTF
   224  0059                     _INTF	set	89
   225                           	global	_PEIE
   226  005E                     _PEIE	set	94
   227                           	global	_RB0
   228  0030                     _RB0	set	48
   229                           	global	_RB4
   230  0034                     _RB4	set	52
   231                           	global	_RB5
   232  0035                     _RB5	set	53
   233                           	global	_RB6
   234  0036                     _RB6	set	54
   235                           	global	_RB7
   236  0037                     _RB7	set	55
   237                           	global	_RE0
   238  0048                     _RE0	set	72
   239                           	global	_RE1
   240  0049                     _RE1	set	73
   241                           	global	_T0IE
   242  005D                     _T0IE	set	93
   243                           	global	_T0IF
   244  005A                     _T0IF	set	90
   245                           	global	_TMR2ON
   246  0092                     _TMR2ON	set	146
   247                           	global	_ADCON1
   248  009F                     _ADCON1	set	159
   249                           	global	_ADRESL
   250  009E                     _ADRESL	set	158
   251                           	global	_PR2
   252  0092                     _PR2	set	146
   253                           	global	_TRISA
   254  0085                     _TRISA	set	133
   255                           	global	_TRISB
   256  0086                     _TRISB	set	134
   257                           	global	_TRISC
   258  0087                     _TRISC	set	135
   259                           	global	_TRISD
   260  0088                     _TRISD	set	136
   261                           	global	_TRISE
   262  0089                     _TRISE	set	137
   263                           	global	_INTEDG
   264  040E                     _INTEDG	set	1038
   265                           	global	_PS0
   266  0408                     _PS0	set	1032
   267                           	global	_PS1
   268  0409                     _PS1	set	1033
   269                           	global	_PS2
   270  040A                     _PS2	set	1034
   271                           	global	_PSA
   272  040B                     _PSA	set	1035
   273                           	global	_RBPU
   274  040F                     _RBPU	set	1039
   275                           	global	_RW
   276  04A2                     _RW	set	1186
   277                           	global	_T0CS
   278  040D                     _T0CS	set	1037
   279                           	global	_T0SE
   280  040C                     _T0SE	set	1036
   281                           	global	_TMR2IE
   282  0461                     _TMR2IE	set	1121
   283                           	global	_EEADR
   284  010D                     _EEADR	set	269
   285                           	global	_EEDATA
   286  010C                     _EEDATA	set	268
   287                           	global	_ANSEL
   288  0188                     _ANSEL	set	392
   289                           	global	_ANSELH
   290  0189                     _ANSELH	set	393
   291                           	global	_EECON1
   292  018C                     _EECON1	set	396
   293                           	global	_EECON2
   294  018D                     _EECON2	set	397
   295                           	global	_EEPGD
   296  0C67                     _EEPGD	set	3175
   297                           	global	_RD
   298  0C60                     _RD	set	3168
   299                           	global	_WR
   300  0C61                     _WR	set	3169
   301                           	global	_WREN
   302  0C62                     _WREN	set	3170
   303                           psect	strings,class=STRING,delta=2
   304                           global __pstrings
   305  0015                     __pstrings:
   306                           ;	global	stringdir,stringtab,__stringbase
   307  0015                     stringtab:
   308                           ;	String table - string pointers are 1 byte each
   309  0015  1BFF               	btfsc	(btemp+1),7
   310  0016  281F               	ljmp	stringcode
   311  0017  1383               	bcf	status,7
   312  0018  187F               	btfsc	(btemp+1),0
   313  0019  1783               	bsf	status,7
   314  001A  0800               	movf	indf,w
   315  001B  0A84               	incf fsr
   316  001C  1903               skipnz
   317  001D  0AFF               incf btemp+1
   318  001E  0008               	return
   319  001F                     stringcode:stringdir:
      + 001F                     stringdir:	
   320  001F  3000               movlw high(stringdir)
   321  0020  008A               movwf pclath
   322  0021  0804               movf fsr,w
   323  0022  0A84               incf fsr
   324  0023  0782               	addwf pc
   325  0024                     __stringbase:
   326  0024  3400               	retlw	0
   327                           psect	strings
   328                           	
   329  0025                     STR_20:	
   330  0025  3453               	retlw	83	;'S'
   331  0026  3465               	retlw	101	;'e'
   332  0027  3472               	retlw	114	;'r'
   333  0028  3476               	retlw	118	;'v'
   334  0029  3469               	retlw	105	;'i'
   335  002A  346E               	retlw	110	;'n'
   336  002B  3467               	retlw	103	;'g'
   337  002C  3420               	retlw	32	;' '
   338  002D  3443               	retlw	67	;'C'
   339  002E  346F               	retlw	111	;'o'
   340  002F  3466               	retlw	102	;'f'
   341  0030  3466               	retlw	102	;'f'
   342  0031  3465               	retlw	101	;'e'
   343  0032  3465               	retlw	101	;'e'
   344  0033  342E               	retlw	46	;'.'
   345  0034  342E               	retlw	46	;'.'
   346  0035  3400               	retlw	0
   347                           psect	strings
   348                           	
   349  0036                     STR_9:	
   350  0036  3453               	retlw	83	;'S'
   351  0037  3445               	retlw	69	;'E'
   352  0038  3454               	retlw	84	;'T'
   353  0039  3454               	retlw	84	;'T'
   354  003A  3449               	retlw	73	;'I'
   355  003B  344E               	retlw	78	;'N'
   356  003C  3447               	retlw	71	;'G'
   357  003D  3453               	retlw	83	;'S'
   358  003E  3420               	retlw	32	;' '
   359  003F  3455               	retlw	85	;'U'
   360  0040  3450               	retlw	80	;'P'
   361  0041  3444               	retlw	68	;'D'
   362  0042  3441               	retlw	65	;'A'
   363  0043  3454               	retlw	84	;'T'
   364  0044  3445               	retlw	69	;'E'
   365  0045  3444               	retlw	68	;'D'
   366  0046  3400               	retlw	0
   367                           psect	strings
   368                           	
   369  0047                     STR_23:	
   370  0047  3453               	retlw	83	;'S'
   371  0048  3465               	retlw	101	;'e'
   372  0049  3472               	retlw	114	;'r'
   373  004A  3476               	retlw	118	;'v'
   374  004B  3469               	retlw	105	;'i'
   375  004C  346E               	retlw	110	;'n'
   376  004D  3467               	retlw	103	;'g'
   377  004E  3420               	retlw	32	;' '
   378  004F  3457               	retlw	87	;'W'
   379  0050  3461               	retlw	97	;'a'
   380  0051  3474               	retlw	116	;'t'
   381  0052  3465               	retlw	101	;'e'
   382  0053  3472               	retlw	114	;'r'
   383  0054  342E               	retlw	46	;'.'
   384  0055  342E               	retlw	46	;'.'
   385  0056  3400               	retlw	0
   386                           psect	strings
   387                           	
   388  0057                     STR_7:	
   389  0057  3444               	retlw	68	;'D'
   390  0058  3445               	retlw	69	;'E'
   391  0059  3446               	retlw	70	;'F'
   392  005A  3441               	retlw	65	;'A'
   393  005B  3455               	retlw	85	;'U'
   394  005C  344C               	retlw	76	;'L'
   395  005D  3454               	retlw	84	;'T'
   396  005E  3420               	retlw	32	;' '
   397  005F  3455               	retlw	85	;'U'
   398  0060  3450               	retlw	80	;'P'
   399  0061  3444               	retlw	68	;'D'
   400  0062  3441               	retlw	65	;'A'
   401  0063  3454               	retlw	84	;'T'
   402  0064  3445               	retlw	69	;'E'
   403  0065  3444               	retlw	68	;'D'
   404  0066  3400               	retlw	0
   405                           psect	strings
   406                           	
   407  0067                     STR_14:	
   408  0067  3443               	retlw	67	;'C'
   409  0068  344F               	retlw	79	;'O'
   410  0069  3446               	retlw	70	;'F'
   411  006A  3446               	retlw	70	;'F'
   412  006B  3445               	retlw	69	;'E'
   413  006C  3445               	retlw	69	;'E'
   414  006D  3420               	retlw	32	;' '
   415  006E  3453               	retlw	83	;'S'
   416  006F  3445               	retlw	69	;'E'
   417  0070  3454               	retlw	84	;'T'
   418  0071  3454               	retlw	84	;'T'
   419  0072  3449               	retlw	73	;'I'
   420  0073  344E               	retlw	78	;'N'
   421  0074  3447               	retlw	71	;'G'
   422  0075  3453               	retlw	83	;'S'
   423  0076  3400               	retlw	0
   424                           psect	strings
   425                           	
   426  0077                     STR_21:	
   427  0077  3453               	retlw	83	;'S'
   428  0078  3465               	retlw	101	;'e'
   429  0079  3472               	retlw	114	;'r'
   430  007A  3476               	retlw	118	;'v'
   431  007B  3469               	retlw	105	;'i'
   432  007C  346E               	retlw	110	;'n'
   433  007D  3467               	retlw	103	;'g'
   434  007E  3420               	retlw	32	;' '
   435  007F  3448               	retlw	72	;'H'
   436  0080  3461               	retlw	97	;'a'
   437  0081  346C               	retlw	108	;'l'
   438  0082  3466               	retlw	102	;'f'
   439  0083  342E               	retlw	46	;'.'
   440  0084  342E               	retlw	46	;'.'
   441  0085  3400               	retlw	0
   442                           psect	strings
   443                           	
   444  0086                     STR_8:	
   445  0086  3450               	retlw	80	;'P'
   446  0087  3452               	retlw	82	;'R'
   447  0088  3445               	retlw	69	;'E'
   448  0089  3453               	retlw	83	;'S'
   449  008A  3453               	retlw	83	;'S'
   450  008B  3420               	retlw	32	;' '
   451  008C  3445               	retlw	69	;'E'
   452  008D  3458               	retlw	88	;'X'
   453  008E  3449               	retlw	73	;'I'
   454  008F  3454               	retlw	84	;'T'
   455  0090  3420               	retlw	32	;' '
   456  0091  344B               	retlw	75	;'K'
   457  0092  3445               	retlw	69	;'E'
   458  0093  3459               	retlw	89	;'Y'
   459  0094  3400               	retlw	0
   460                           psect	strings
   461                           	
   462  0095                     STR_3:	
   463  0095  3453               	retlw	83	;'S'
   464  0096  3445               	retlw	69	;'E'
   465  0097  3454               	retlw	84	;'T'
   466  0098  3454               	retlw	84	;'T'
   467  0099  3449               	retlw	73	;'I'
   468  009A  344E               	retlw	78	;'N'
   469  009B  3447               	retlw	71	;'G'
   470  009C  3453               	retlw	83	;'S'
   471  009D  345F               	retlw	95	;'_'
   472  009E  3430               	retlw	48	;'0'
   473  009F  3446               	retlw	70	;'F'
   474  00A0  3446               	retlw	70	;'F'
   475  00A1  345F               	retlw	95	;'_'
   476  00A2  3449               	retlw	73	;'I'
   477  00A3  3400               	retlw	0
   478                           psect	strings
   479                           	
   480  00A4                     STR_22:	
   481  00A4  3453               	retlw	83	;'S'
   482  00A5  3465               	retlw	101	;'e'
   483  00A6  3472               	retlw	114	;'r'
   484  00A7  3476               	retlw	118	;'v'
   485  00A8  3469               	retlw	105	;'i'
   486  00A9  346E               	retlw	110	;'n'
   487  00AA  3467               	retlw	103	;'g'
   488  00AB  3420               	retlw	32	;' '
   489  00AC  3454               	retlw	84	;'T'
   490  00AD  3465               	retlw	101	;'e'
   491  00AE  3461               	retlw	97	;'a'
   492  00AF  342E               	retlw	46	;'.'
   493  00B0  342E               	retlw	46	;'.'
   494  00B1  3400               	retlw	0
   495                           psect	strings
   496                           	
   497  00B2                     STR_2:	
   498  00B2  3453               	retlw	83	;'S'
   499  00B3  3445               	retlw	69	;'E'
   500  00B4  3454               	retlw	84	;'T'
   501  00B5  3454               	retlw	84	;'T'
   502  00B6  3449               	retlw	73	;'I'
   503  00B7  344E               	retlw	78	;'N'
   504  00B8  3447               	retlw	71	;'G'
   505  00B9  3453               	retlw	83	;'S'
   506  00BA  345F               	retlw	95	;'_'
   507  00BB  3430               	retlw	48	;'0'
   508  00BC  344E               	retlw	78	;'N'
   509  00BD  345F               	retlw	95	;'_'
   510  00BE  3449               	retlw	73	;'I'
   511  00BF  3400               	retlw	0
   512                           psect	strings
   513                           	
   514  00C0                     STR_11:	
   515  00C0  3454               	retlw	84	;'T'
   516  00C1  3445               	retlw	69	;'E'
   517  00C2  3441               	retlw	65	;'A'
   518  00C3  3420               	retlw	32	;' '
   519  00C4  3453               	retlw	83	;'S'
   520  00C5  3445               	retlw	69	;'E'
   521  00C6  3454               	retlw	84	;'T'
   522  00C7  3454               	retlw	84	;'T'
   523  00C8  3449               	retlw	73	;'I'
   524  00C9  344E               	retlw	78	;'N'
   525  00CA  3447               	retlw	71	;'G'
   526  00CB  3453               	retlw	83	;'S'
   527  00CC  3400               	retlw	0
   528                           psect	strings
   529                           	
   530  00CD                     STR_17:	
   531  00CD  3453               	retlw	83	;'S'
   532  00CE  3445               	retlw	69	;'E'
   533  00CF  3454               	retlw	84	;'T'
   534  00D0  3420               	retlw	32	;' '
   535  00D1  3444               	retlw	68	;'D'
   536  00D2  3445               	retlw	69	;'E'
   537  00D3  3446               	retlw	70	;'F'
   538  00D4  3441               	retlw	65	;'A'
   539  00D5  3455               	retlw	85	;'U'
   540  00D6  344C               	retlw	76	;'L'
   541  00D7  3454               	retlw	84	;'T'
   542  00D8  3453               	retlw	83	;'S'
   543  00D9  3400               	retlw	0
   544                           psect	strings
   545                           	
   546  00DA                     STR_6:	
   547  00DA  3453               	retlw	83	;'S'
   548  00DB  3474               	retlw	116	;'t'
   549  00DC  3461               	retlw	97	;'a'
   550  00DD  3472               	retlw	114	;'r'
   551  00DE  3474               	retlw	116	;'t'
   552  00DF  3469               	retlw	105	;'i'
   553  00E0  346E               	retlw	110	;'n'
   554  00E1  3467               	retlw	103	;'g'
   555  00E2  342E               	retlw	46	;'.'
   556  00E3  342E               	retlw	46	;'.'
   557  00E4  342E               	retlw	46	;'.'
   558  00E5  342E               	retlw	46	;'.'
   559  00E6  3400               	retlw	0
   560                           psect	strings
   561                           	
   562  00E7                     STR_4:	
   563  00E7  3457               	retlw	87	;'W'
   564  00E8  3445               	retlw	69	;'E'
   565  00E9  344C               	retlw	76	;'L'
   566  00EA  3443               	retlw	67	;'C'
   567  00EB  344F               	retlw	79	;'O'
   568  00EC  344D               	retlw	77	;'M'
   569  00ED  3445               	retlw	69	;'E'
   570  00EE  3400               	retlw	0
   571                           psect	strings
   572                           	
   573  00EF                     STR_18:	
   574  00EF  3459               	retlw	89	;'Y'
   575  00F0  3445               	retlw	69	;'E'
   576  00F1  3453               	retlw	83	;'S'
   577  00F2  3400               	retlw	0
   578                           psect	strings
   579                           	
   580  00F3                     STR_15:	
   581  00F3  3443               	retlw	67	;'C'
   582  00F4  343A               	retlw	58	;':'
   583  00F5  3400               	retlw	0
   584                           psect	strings
   585                           	
   586  00F6                     STR_12:	
   587  00F6  3454               	retlw	84	;'T'
   588  00F7  343A               	retlw	58	;':'
   589  00F8  3400               	retlw	0
   590                           psect	strings
   591                           	
   592  00F9                     STR_13:	
   593  00F9  3457               	retlw	87	;'W'
   594  00FA  343A               	retlw	58	;':'
   595  00FB  3400               	retlw	0
   596                           psect	strings
   597                           	
   598  00FC                     STR_19:	
   599  00FC  344E               	retlw	78	;'N'
   600  00FD  344F               	retlw	79	;'O'
   601  00FE  3400               	retlw	0
   602                           psect	strings
   603  0086                     STR_10	equ	STR_8+0
   604  00C4                     STR_1	equ	STR_11+4
   605  00E7                     STR_5	equ	STR_4+0
   606  00F9                     STR_16	equ	STR_13+0
   607                           	file	"C:\Users\Lenovo\AppData\Local\Temp\sa4s."
   608                           	line	#
   609                           psect cinit,class=CODE,delta=2
   610                           global start_initialization
   611  0802                     start_initialization:
   612                           
   613                           psect	dataCOMMON,class=COMMON,space=1
   614                           global __pdataCOMMON
   615  007D                     __pdataCOMMON:
   616                           	file	"CommonDeclarations.h"
   617  007D                     _modeOfWorking:
   618  007D                            ds      1
   619                           
   620                           psect	bssBANK0,class=BANK0,space=1
   621                           global __pbssBANK0
   622  003E                     __pbssBANK0:
   623  003E                     _buttonPressedCount:
   624  003E                            ds      2
   625                           
   626  0040                     _CurrentCoffeeQuantity:
   627  0040                            ds      1
   628                           
   629  0041                     _CurrentTeaQuantity:
   630  0041                            ds      1
   631                           
   632  0042                     _CurrentWaterQuantity_forCoffee:
   633  0042                            ds      1
   634                           
   635  0043                     _CurrentWaterQuantity_forTea:
   636  0043                            ds      1
   637                           
   638  0044                     _ParameterIndex:
   639  0044                            ds      1
   640                           
   641  0045                     _ScreenIndex:
   642  0045                            ds      1
   643                           
   644  0046                     _button_pressed:
   645  0046                            ds      1
   646                           
   647  0047                     _flagTimer2:
   648  0047                            ds      1
   649                           
   650  0048                     _flag_T0_OneSecond:
   651  0048                            ds      1
   652                           
   653  0049                     _flag_T0_TenSecond:
   654  0049                            ds      1
   655                           
   656  004A                     _flag_TenSecond_main:
   657  004A                            ds      1
   658                           
   659  004B                     _isFirstTime_Settings:
   660  004B                            ds      1
   661                           
   662  004C                     _isKeyPressed:
   663  004C                            ds      1
   664                           
   665  004D                     _keyPressed:
   666  004D                            ds      1
   667                           
   668  004E                     _timer0_count:
   669  004E                            ds      1
   670                           
   671  004F                     _timer0_count10:
   672  004F                            ds      1
   673                           
   674                           psect	dataBANK0,class=BANK0,space=1
   675                           global __pdataBANK0
   676  0050                     __pdataBANK0:
   677                           	file	"lcd.c"
   678                           	line	8
   679  0050                     lcd_init@F891:
   680  0050                            ds      6
   681                           
   682                           psect	dataBANK0
   683                           	file	"ADC.c"
   684                           	line	35
   685  0056                     print_ADCValue@F1018:
   686  0056                            ds      5
   687                           
   688                           psect	dataBANK0
   689                           	file	"lcd.c"
   690                           	line	126
   691  005B                     lcd_writeThisDigit@F912:
   692  005B                            ds      4
   693                           
   694                           psect	dataBANK0
   695                           	file	"CommonDeclarations.h"
   696                           	line	46
   697  005F                     _IsNewMachine:
   698  005F                            ds      1
   699                           
   700                           psect	dataBANK0
   701                           	file	"SettingModeHandler.h"
   702                           	line	26
   703  0060                     _isFirstTimeInSetting:
   704  0060                            ds      1
   705                           
   706                           psect clrtext,class=CODE,delta=2
   707                           global clear_ram
   708                           ;	Called with FSR containing the base address, and
   709                           ;	W with the last address+1
   710  1578                     clear_ram:
   711  1578  0064               	clrwdt			;clear the watchdog before getting into this loop
   712  1579                     clrloop:
   713  1579  0180               	clrf	indf		;clear RAM location pointed to by FSR
   714  157A  0A84               	incf	fsr,f		;increment pointer
   715  157B  0604               	xorwf	fsr,w		;XOR with final address
   716  157C  1903               	btfsc	status,2	;have we reached the end yet?
   717  157D  3400               	retlw	0		;all done for this memory range, return
   718  157E  0604               	xorwf	fsr,w		;XOR again to restore value
   719  157F  2D79               	goto	clrloop		;do the next byte
   720                           
   721                           ; Clear objects allocated to BANK0
   722                           psect cinit,class=CODE,delta=2
   723  0802  1383               	bcf	status, 7	;select IRP bank0
   724  0803  303E               	movlw	low(__pbssBANK0)
   725  0804  0084               	movwf	fsr
   726  0805  3050               	movlw	low((__pbssBANK0)+012h)
   727  0806  160A  118A  2578   	fcall	clear_ram
              120A  158A         
   728                           global btemp
   729                           psect inittext,class=CODE,delta=2
   730                           global init_fetch,btemp
   731                           ;	Called with low address in FSR and high address in W
   732  158E                     init_fetch:
   733  158E  087E               	movf btemp,w
   734  158F  008A               	movwf pclath
   735  1590  087F               	movf btemp+1,w
   736  1591  0082               	movwf pc
   737                           global init_ram
   738                           ;Called with:
   739                           ;	high address of idata address in btemp 
   740                           ;	low address of idata address in btemp+1 
   741                           ;	low address of data in FSR
   742                           ;	high address + 1 of data in btemp-1
   743  1592                     init_ram:
   744  1592  258E  160A  118A   	fcall init_fetch
   745  1595  0080               	movwf indf,f
   746  1596  0A84               	incf fsr,f
   747  1597  0804               	movf fsr,w
   748  1598  067D               	xorwf btemp-1,w
   749  1599  1903               	btfsc status,2
   750  159A  3400               	retlw 0
   751  159B  0AFF               	incf btemp+1,f
   752  159C  1903               	btfsc status,2
   753  159D  0AFE               	incf btemp,f
   754  159E  2D92               	goto init_ram
   755                           ; Initialize objects allocated to BANK0
   756                           psect cinit,class=CODE,delta=2
   757                           global init_ram, __pidataBANK0
   758  080B  3061               	movlw low(__pdataBANK0+17)
   759  080C  00FD               	movwf btemp-1,f
   760  080D  3015               	movlw high(__pidataBANK0)
   761  080E  00FE               	movwf btemp,f
   762  080F  309F               	movlw low(__pidataBANK0)
   763  0810  00FF               	movwf btemp+1,f
   764  0811  3050               	movlw low(__pdataBANK0)
   765  0812  0084               	movwf fsr,f
   766  0813  160A  118A  2592   	fcall init_ram
              120A  158A         
   767                           ; Initialize objects allocated to COMMON
   768                           	global __pidataCOMMON
   769                           psect cinit,class=CODE,delta=2
   770  0818  120A  118A  2003   	fcall	__pidataCOMMON+0		;fetch initializer
              120A  158A         
   771  081D  00FD               	movwf	__pdataCOMMON+0&07fh		
   772                           psect cinit,class=CODE,delta=2
   773                           global end_of_initialization
   774                           
   775                           ;End of C runtime variable initialization code
   776                           
   777  081E                     end_of_initialization:
   778  081E  0183               clrf status
   779  081F  120A  158A  295E   ljmp _main	;jump to C main() function
   780                           psect	cstackBANK1,class=BANK1,space=1
   781                           global __pcstackBANK1
   782  00A0                     __pcstackBANK1:
   783                           	global	lcd_writeThisDigit@string
   784  00A0                     lcd_writeThisDigit@string:	; 4 bytes @ 0x0
   785  00A0                     	ds	4
   786                           	global	lcd_writeThisDigit@data
   787  00A4                     lcd_writeThisDigit@data:	; 1 bytes @ 0x4
   788  00A4                     	ds	1
   789                           	global	??_DownButtonHandler
   790  00A5                     ??_DownButtonHandler:	; 0 bytes @ 0x5
   791                           	global	??_PreviousButtonHandler
   792  00A5                     ??_PreviousButtonHandler:	; 0 bytes @ 0x5
   793                           	global	??_UpbuttonHandler
   794  00A5                     ??_UpbuttonHandler:	; 0 bytes @ 0x5
   795                           	global	??_NextButtonHandler
   796  00A5                     ??_NextButtonHandler:	; 0 bytes @ 0x5
   797  00A5                     	ds	3
   798                           	global	SettingModeOperations@keyPressed
   799  00A8                     SettingModeOperations@keyPressed:	; 1 bytes @ 0x8
   800  00A8                     	ds	1
   801                           	global	??_IsKeyPressed
   802  00A9                     ??_IsKeyPressed:	; 0 bytes @ 0x9
   803  00A9                     	ds	3
   804                           	global	??_main
   805  00AC                     ??_main:	; 0 bytes @ 0xC
   806  00AC                     	ds	1
   807                           psect	cstackCOMMON,class=COMMON,space=1
   808                           global __pcstackCOMMON
   809  0070                     __pcstackCOMMON:
   810                           	global	?_disableInterrupt_RB0
   811  0070                     ?_disableInterrupt_RB0:	; 0 bytes @ 0x0
   812                           	global	??_disableInterrupt_RB0
   813  0070                     ??_disableInterrupt_RB0:	; 0 bytes @ 0x0
   814                           	global	?_stop_timer0
   815  0070                     ?_stop_timer0:	; 0 bytes @ 0x0
   816                           	global	??_stop_timer0
   817  0070                     ??_stop_timer0:	; 0 bytes @ 0x0
   818                           	global	?_lcd_clear
   819  0070                     ?_lcd_clear:	; 0 bytes @ 0x0
   820                           	global	?_InitialiseSettingMode
   821  0070                     ?_InitialiseSettingMode:	; 0 bytes @ 0x0
   822                           	global	?_updateConfiguration
   823  0070                     ?_updateConfiguration:	; 0 bytes @ 0x0
   824                           	global	??_updateConfiguration
   825  0070                     ??_updateConfiguration:	; 0 bytes @ 0x0
   826                           	global	?_enableInterrupt_RB0
   827  0070                     ?_enableInterrupt_RB0:	; 0 bytes @ 0x0
   828                           	global	?_start_timer0
   829  0070                     ?_start_timer0:	; 0 bytes @ 0x0
   830                           	global	?_SettingModeOperations
   831  0070                     ?_SettingModeOperations:	; 0 bytes @ 0x0
   832                           	global	?_NormalModeOperations
   833  0070                     ?_NormalModeOperations:	; 0 bytes @ 0x0
   834                           	global	?_DownButtonHandler
   835  0070                     ?_DownButtonHandler:	; 0 bytes @ 0x0
   836                           	global	?_PreviousButtonHandler
   837  0070                     ?_PreviousButtonHandler:	; 0 bytes @ 0x0
   838                           	global	?_UpbuttonHandler
   839  0070                     ?_UpbuttonHandler:	; 0 bytes @ 0x0
   840                           	global	?_NextButtonHandler
   841  0070                     ?_NextButtonHandler:	; 0 bytes @ 0x0
   842                           	global	?_serveCoffee
   843  0070                     ?_serveCoffee:	; 0 bytes @ 0x0
   844                           	global	?_serveHalfQuantity
   845  0070                     ?_serveHalfQuantity:	; 0 bytes @ 0x0
   846                           	global	?_serveTea
   847  0070                     ?_serveTea:	; 0 bytes @ 0x0
   848                           	global	?_serveHotWater
   849  0070                     ?_serveHotWater:	; 0 bytes @ 0x0
   850                           	global	?_default_initialisations
   851  0070                     ?_default_initialisations:	; 0 bytes @ 0x0
   852                           	global	?_peripheral_initialsation
   853  0070                     ?_peripheral_initialsation:	; 0 bytes @ 0x0
   854                           	global	?_isItFirstTime
   855  0070                     ?_isItFirstTime:	; 0 bytes @ 0x0
   856                           	global	?_default_bootSequence
   857  0070                     ?_default_bootSequence:	; 0 bytes @ 0x0
   858                           	global	?_lcd_init
   859  0070                     ?_lcd_init:	; 0 bytes @ 0x0
   860                           	global	?_initialisePortB
   861  0070                     ?_initialisePortB:	; 0 bytes @ 0x0
   862                           	global	?_initialise_timer0
   863  0070                     ?_initialise_timer0:	; 0 bytes @ 0x0
   864                           	global	?_UpdateScreen
   865  0070                     ?_UpdateScreen:	; 0 bytes @ 0x0
   866                           	global	?_lcd_writeThisDigit
   867  0070                     ?_lcd_writeThisDigit:	; 0 bytes @ 0x0
   868                           	global	?_lcd_cmd
   869  0070                     ?_lcd_cmd:	; 0 bytes @ 0x0
   870                           	global	?_adc_initialise
   871  0070                     ?_adc_initialise:	; 0 bytes @ 0x0
   872                           	global	?_GlobalInterrupt_ENABLE
   873  0070                     ?_GlobalInterrupt_ENABLE:	; 0 bytes @ 0x0
   874                           	global	?_ISR
   875  0070                     ?_ISR:	; 0 bytes @ 0x0
   876                           	global	?_IsKeyPressed
   877  0070                     ?_IsKeyPressed:	; 0 bytes @ 0x0
   878                           	global	?_main
   879  0070                     ?_main:	; 0 bytes @ 0x0
   880                           	global	?_lcd_write
   881  0070                     ?_lcd_write:	; 0 bytes @ 0x0
   882                           	global	?i1_enableInterrupt_RB0
   883  0070                     ?i1_enableInterrupt_RB0:	; 0 bytes @ 0x0
   884                           	global	??i1_enableInterrupt_RB0
   885  0070                     ??i1_enableInterrupt_RB0:	; 0 bytes @ 0x0
   886                           	global	?i1_UpdateScreen
   887  0070                     ?i1_UpdateScreen:	; 0 bytes @ 0x0
   888                           	global	?i1_lcd_write
   889  0070                     ?i1_lcd_write:	; 0 bytes @ 0x0
   890                           	global	??i1_lcd_write
   891  0070                     ??i1_lcd_write:	; 0 bytes @ 0x0
   892                           	global	?i1_lcd_cmd
   893  0070                     ?i1_lcd_cmd:	; 0 bytes @ 0x0
   894                           	global	??i1_lcd_cmd
   895  0070                     ??i1_lcd_cmd:	; 0 bytes @ 0x0
   896                           	global	?i1_lcd_clear
   897  0070                     ?i1_lcd_clear:	; 0 bytes @ 0x0
   898                           	global	?i1_lcd_writeThisDigit
   899  0070                     ?i1_lcd_writeThisDigit:	; 0 bytes @ 0x0
   900                           	global	?i1_start_timer0
   901  0070                     ?i1_start_timer0:	; 0 bytes @ 0x0
   902                           	global	??i1_start_timer0
   903  0070                     ??i1_start_timer0:	; 0 bytes @ 0x0
   904                           	global	?_adc_getValue
   905  0070                     ?_adc_getValue:	; 2 bytes @ 0x0
   906                           	global	?i1___awdiv
   907  0070                     ?i1___awdiv:	; 2 bytes @ 0x0
   908                           	global	?i1___awmod
   909  0070                     ?i1___awmod:	; 2 bytes @ 0x0
   910                           	global	UpdateScreen@Mode
   911  0070                     UpdateScreen@Mode:	; 1 bytes @ 0x0
   912                           	global	i1___awdiv@divisor
   913  0070                     i1___awdiv@divisor:	; 2 bytes @ 0x0
   914                           	global	i1___awmod@divisor
   915  0070                     i1___awmod@divisor:	; 2 bytes @ 0x0
   916  0070                     	ds	2
   917                           	global	??_adc_getValue
   918  0072                     ??_adc_getValue:	; 0 bytes @ 0x2
   919                           	global	i1lcd_write@data
   920  0072                     i1lcd_write@data:	; 1 bytes @ 0x2
   921                           	global	i1lcd_cmd@cmnd
   922  0072                     i1lcd_cmd@cmnd:	; 1 bytes @ 0x2
   923                           	global	i1___awdiv@dividend
   924  0072                     i1___awdiv@dividend:	; 2 bytes @ 0x2
   925                           	global	i1___awmod@dividend
   926  0072                     i1___awmod@dividend:	; 2 bytes @ 0x2
   927  0072                     	ds	1
   928                           	global	?i1_lcd_puts
   929  0073                     ?i1_lcd_puts:	; 0 bytes @ 0x3
   930                           	global	?i1_goto_XY
   931  0073                     ?i1_goto_XY:	; 0 bytes @ 0x3
   932                           	global	??i1_lcd_clear
   933  0073                     ??i1_lcd_clear:	; 0 bytes @ 0x3
   934                           	global	i1goto_XY@column
   935  0073                     i1goto_XY@column:	; 1 bytes @ 0x3
   936                           	global	i1lcd_puts@ptr
   937  0073                     i1lcd_puts@ptr:	; 2 bytes @ 0x3
   938  0073                     	ds	1
   939                           	global	??i1_goto_XY
   940  0074                     ??i1_goto_XY:	; 0 bytes @ 0x4
   941                           	global	??i1___awdiv
   942  0074                     ??i1___awdiv:	; 0 bytes @ 0x4
   943                           	global	??i1___awmod
   944  0074                     ??i1___awmod:	; 0 bytes @ 0x4
   945                           	global	i1goto_XY@row
   946  0074                     i1goto_XY@row:	; 1 bytes @ 0x4
   947                           	global	adc_getValue@temp
   948  0074                     adc_getValue@temp:	; 2 bytes @ 0x4
   949  0074                     	ds	1
   950                           	global	??i1_lcd_puts
   951  0075                     ??i1_lcd_puts:	; 0 bytes @ 0x5
   952                           	global	?i1_lcd_writeThisStringAt
   953  0075                     ?i1_lcd_writeThisStringAt:	; 0 bytes @ 0x5
   954                           	global	i1lcd_writeThisStringAt@column
   955  0075                     i1lcd_writeThisStringAt@column:	; 1 bytes @ 0x5
   956                           	global	i1___awdiv@counter
   957  0075                     i1___awdiv@counter:	; 1 bytes @ 0x5
   958                           	global	i1___awmod@counter
   959  0075                     i1___awmod@counter:	; 1 bytes @ 0x5
   960  0075                     	ds	1
   961                           	global	i1___awdiv@sign
   962  0076                     i1___awdiv@sign:	; 1 bytes @ 0x6
   963                           	global	i1___awmod@sign
   964  0076                     i1___awmod@sign:	; 1 bytes @ 0x6
   965                           	global	adc_getValue@adcValue
   966  0076                     adc_getValue@adcValue:	; 2 bytes @ 0x6
   967                           	global	i1lcd_writeThisStringAt@ptr
   968  0076                     i1lcd_writeThisStringAt@ptr:	; 2 bytes @ 0x6
   969  0076                     	ds	1
   970                           	global	i1___awdiv@quotient
   971  0077                     i1___awdiv@quotient:	; 2 bytes @ 0x7
   972  0077                     	ds	1
   973                           	global	??i1_lcd_writeThisStringAt
   974  0078                     ??i1_lcd_writeThisStringAt:	; 0 bytes @ 0x8
   975  0078                     	ds	1
   976                           	global	??i1_lcd_writeThisDigit
   977  0079                     ??i1_lcd_writeThisDigit:	; 0 bytes @ 0x9
   978                           	global	i1lcd_writeThisStringAt@row
   979  0079                     i1lcd_writeThisStringAt@row:	; 1 bytes @ 0x9
   980  0079                     	ds	1
   981                           	global	?_print_ADCValue
   982  007A                     ?_print_ADCValue:	; 0 bytes @ 0xA
   983                           	global	print_ADCValue@adcValue
   984  007A                     print_ADCValue@adcValue:	; 2 bytes @ 0xA
   985  007A                     	ds	2
   986                           	global	??_InitialiseSettingMode
   987  007C                     ??_InitialiseSettingMode:	; 0 bytes @ 0xC
   988                           	global	??_print_ADCValue
   989  007C                     ??_print_ADCValue:	; 0 bytes @ 0xC
   990  007C                     	ds	1
   991                           psect	cstackBANK0,class=BANK0,space=1
   992                           global __pcstackBANK0
   993  0020                     __pcstackBANK0:
   994                           	global	i1lcd_writeThisDigit@string
   995  0020                     i1lcd_writeThisDigit@string:	; 4 bytes @ 0x0
   996                           	global	print_ADCValue@data
   997  0020                     print_ADCValue@data:	; 5 bytes @ 0x0
   998  0020                     	ds	4
   999                           	global	i1lcd_writeThisDigit@data
  1000  0024                     i1lcd_writeThisDigit@data:	; 1 bytes @ 0x4
  1001  0024                     	ds	1
  1002                           	global	??i1_UpdateScreen
  1003  0025                     ??i1_UpdateScreen:	; 0 bytes @ 0x5
  1004  0025                     	ds	3
  1005                           	global	??_ISR
  1006  0028                     ??_ISR:	; 0 bytes @ 0x8
  1007  0028                     	ds	7
  1008                           	global	??_enableInterrupt_RB0
  1009  002F                     ??_enableInterrupt_RB0:	; 0 bytes @ 0xF
  1010                           	global	??_start_timer0
  1011  002F                     ??_start_timer0:	; 0 bytes @ 0xF
  1012                           	global	??_default_initialisations
  1013  002F                     ??_default_initialisations:	; 0 bytes @ 0xF
  1014                           	global	??_isItFirstTime
  1015  002F                     ??_isItFirstTime:	; 0 bytes @ 0xF
  1016                           	global	??_initialisePortB
  1017  002F                     ??_initialisePortB:	; 0 bytes @ 0xF
  1018                           	global	??_initialise_timer0
  1019  002F                     ??_initialise_timer0:	; 0 bytes @ 0xF
  1020                           	global	??_lcd_cmd
  1021  002F                     ??_lcd_cmd:	; 0 bytes @ 0xF
  1022                           	global	??_adc_initialise
  1023  002F                     ??_adc_initialise:	; 0 bytes @ 0xF
  1024                           	global	??_GlobalInterrupt_ENABLE
  1025  002F                     ??_GlobalInterrupt_ENABLE:	; 0 bytes @ 0xF
  1026                           	global	??_lcd_write
  1027  002F                     ??_lcd_write:	; 0 bytes @ 0xF
  1028                           	global	?___awdiv
  1029  002F                     ?___awdiv:	; 2 bytes @ 0xF
  1030                           	global	?___awmod
  1031  002F                     ?___awmod:	; 2 bytes @ 0xF
  1032                           	global	___awdiv@divisor
  1033  002F                     ___awdiv@divisor:	; 2 bytes @ 0xF
  1034                           	global	___awmod@divisor
  1035  002F                     ___awmod@divisor:	; 2 bytes @ 0xF
  1036  002F                     	ds	2
  1037                           	global	lcd_write@data
  1038  0031                     lcd_write@data:	; 1 bytes @ 0x11
  1039                           	global	lcd_cmd@cmnd
  1040  0031                     lcd_cmd@cmnd:	; 1 bytes @ 0x11
  1041                           	global	___awdiv@dividend
  1042  0031                     ___awdiv@dividend:	; 2 bytes @ 0x11
  1043                           	global	___awmod@dividend
  1044  0031                     ___awmod@dividend:	; 2 bytes @ 0x11
  1045  0031                     	ds	1
  1046                           	global	??_lcd_clear
  1047  0032                     ??_lcd_clear:	; 0 bytes @ 0x12
  1048                           	global	??_lcd_init
  1049  0032                     ??_lcd_init:	; 0 bytes @ 0x12
  1050                           	global	?_lcd_puts
  1051  0032                     ?_lcd_puts:	; 0 bytes @ 0x12
  1052                           	global	?_goto_XY
  1053  0032                     ?_goto_XY:	; 0 bytes @ 0x12
  1054                           	global	isItFirstTime@Config
  1055  0032                     isItFirstTime@Config:	; 1 bytes @ 0x12
  1056                           	global	goto_XY@column
  1057  0032                     goto_XY@column:	; 1 bytes @ 0x12
  1058                           	global	lcd_puts@ptr
  1059  0032                     lcd_puts@ptr:	; 2 bytes @ 0x12
  1060  0032                     	ds	1
  1061                           	global	??_goto_XY
  1062  0033                     ??_goto_XY:	; 0 bytes @ 0x13
  1063                           	global	??___awdiv
  1064  0033                     ??___awdiv:	; 0 bytes @ 0x13
  1065                           	global	??___awmod
  1066  0033                     ??___awmod:	; 0 bytes @ 0x13
  1067                           	global	goto_XY@row
  1068  0033                     goto_XY@row:	; 1 bytes @ 0x13
  1069                           	global	lcd_init@command_array
  1070  0033                     lcd_init@command_array:	; 6 bytes @ 0x13
  1071  0033                     	ds	1
  1072                           	global	?_lcd_writeThisStringAt
  1073  0034                     ?_lcd_writeThisStringAt:	; 0 bytes @ 0x14
  1074                           	global	??_lcd_puts
  1075  0034                     ??_lcd_puts:	; 0 bytes @ 0x14
  1076                           	global	lcd_writeThisStringAt@column
  1077  0034                     lcd_writeThisStringAt@column:	; 1 bytes @ 0x14
  1078                           	global	___awdiv@counter
  1079  0034                     ___awdiv@counter:	; 1 bytes @ 0x14
  1080                           	global	___awmod@counter
  1081  0034                     ___awmod@counter:	; 1 bytes @ 0x14
  1082  0034                     	ds	1
  1083                           	global	___awdiv@sign
  1084  0035                     ___awdiv@sign:	; 1 bytes @ 0x15
  1085                           	global	___awmod@sign
  1086  0035                     ___awmod@sign:	; 1 bytes @ 0x15
  1087                           	global	lcd_writeThisStringAt@ptr
  1088  0035                     lcd_writeThisStringAt@ptr:	; 2 bytes @ 0x15
  1089  0035                     	ds	1
  1090                           	global	___awdiv@quotient
  1091  0036                     ___awdiv@quotient:	; 2 bytes @ 0x16
  1092  0036                     	ds	1
  1093                           	global	??_lcd_writeThisStringAt
  1094  0037                     ??_lcd_writeThisStringAt:	; 0 bytes @ 0x17
  1095  0037                     	ds	1
  1096                           	global	??_lcd_writeThisDigit
  1097  0038                     ??_lcd_writeThisDigit:	; 0 bytes @ 0x18
  1098                           	global	lcd_writeThisStringAt@row
  1099  0038                     lcd_writeThisStringAt@row:	; 1 bytes @ 0x18
  1100  0038                     	ds	1
  1101                           	global	??_serveCoffee
  1102  0039                     ??_serveCoffee:	; 0 bytes @ 0x19
  1103                           	global	??_serveHalfQuantity
  1104  0039                     ??_serveHalfQuantity:	; 0 bytes @ 0x19
  1105                           	global	??_serveTea
  1106  0039                     ??_serveTea:	; 0 bytes @ 0x19
  1107                           	global	??_serveHotWater
  1108  0039                     ??_serveHotWater:	; 0 bytes @ 0x19
  1109                           	global	??_default_bootSequence
  1110  0039                     ??_default_bootSequence:	; 0 bytes @ 0x19
  1111                           	global	lcd_init@index
  1112  0039                     lcd_init@index:	; 1 bytes @ 0x19
  1113  0039                     	ds	1
  1114                           	global	??_peripheral_initialsation
  1115  003A                     ??_peripheral_initialsation:	; 0 bytes @ 0x1A
  1116  003A                     	ds	1
  1117                           	global	??_UpdateScreen
  1118  003B                     ??_UpdateScreen:	; 0 bytes @ 0x1B
  1119  003B                     	ds	1
  1120                           	global	??_NormalModeOperations
  1121  003C                     ??_NormalModeOperations:	; 0 bytes @ 0x1C
  1122                           	global	NormalModeOperations@keyPressed
  1123  003C                     NormalModeOperations@keyPressed:	; 1 bytes @ 0x1C
  1124  003C                     	ds	2
  1125                           	global	??_SettingModeOperations
  1126  003E                     ??_SettingModeOperations:	; 0 bytes @ 0x1E
  1127 ;;Data sizes: Strings 218, constant 0, data 18, bss 18, persistent 0 stack 0
  1128 ;;Auto spaces:   Size  Autos    Used
  1129 ;; COMMON          14     13      14
  1130 ;; BANK0           80     30      65
  1131 ;; BANK1           80     13      13
  1132 ;; BANK3           96      0       0
  1133 ;; BANK2           96      0       0
  1134                           
  1135 ;;
  1136 ;; Pointer list with targets:
  1137                           
  1138 ;; i1lcd_puts@ptr	PTR unsigned char  size(2) Largest target is 17
  1139 ;;		 -> i1lcd_writeThisDigit@string(BANK0[4]), STR_23(CODE[16]), STR_22(CODE[14]), STR_21(CODE[15]), 
  1140 ;;		 -> STR_20(CODE[17]), STR_19(CODE[3]), STR_18(CODE[4]), STR_17(CODE[13]), 
  1141 ;;		 -> STR_16(CODE[3]), STR_15(CODE[3]), STR_14(CODE[16]), STR_13(CODE[3]), 
  1142 ;;		 -> STR_12(CODE[3]), STR_11(CODE[13]), STR_10(CODE[15]), STR_9(CODE[17]), 
  1143 ;;		 -> STR_8(CODE[15]), STR_7(CODE[16]), STR_6(CODE[13]), STR_5(CODE[8]), 
  1144 ;;		 -> STR_4(CODE[8]), STR_3(CODE[15]), STR_2(CODE[14]), STR_1(CODE[9]), 
  1145 ;;		 -> print_ADCValue@data(BANK0[5]), 
  1146 ;;
  1147 ;; i1lcd_writeThisStringAt@ptr	PTR unsigned char  size(2) Largest target is 16
  1148 ;;		 -> STR_19(CODE[3]), STR_18(CODE[4]), STR_17(CODE[13]), STR_16(CODE[3]), 
  1149 ;;		 -> STR_15(CODE[3]), STR_14(CODE[16]), STR_13(CODE[3]), STR_12(CODE[3]), 
  1150 ;;		 -> STR_11(CODE[13]), STR_4(CODE[8]), STR_3(CODE[15]), STR_2(CODE[14]), 
  1151 ;;		 -> STR_1(CODE[9]), print_ADCValue@data(BANK0[5]), 
  1152 ;;
  1153 ;; ?i1___awdiv	int  size(1) Largest target is 0
  1154 ;;
  1155 ;; ?i1___awmod	int  size(1) Largest target is 0
  1156 ;;
  1157 ;; ?___awdiv	int  size(1) Largest target is 0
  1158 ;;
  1159 ;; ?___awmod	int  size(1) Largest target is 0
  1160 ;;
  1161 ;; ?_adc_getValue	int  size(1) Largest target is 0
  1162 ;;
  1163 ;; lcd_writeThisStringAt@ptr	PTR unsigned char  size(2) Largest target is 17
  1164 ;;		 -> STR_23(CODE[16]), STR_22(CODE[14]), STR_21(CODE[15]), STR_20(CODE[17]), 
  1165 ;;		 -> STR_19(CODE[3]), STR_18(CODE[4]), STR_17(CODE[13]), STR_16(CODE[3]), 
  1166 ;;		 -> STR_15(CODE[3]), STR_14(CODE[16]), STR_13(CODE[3]), STR_12(CODE[3]), 
  1167 ;;		 -> STR_11(CODE[13]), STR_10(CODE[15]), STR_9(CODE[17]), STR_8(CODE[15]), 
  1168 ;;		 -> STR_7(CODE[16]), STR_6(CODE[13]), STR_5(CODE[8]), STR_4(CODE[8]), 
  1169 ;;		 -> STR_3(CODE[15]), STR_2(CODE[14]), STR_1(CODE[9]), print_ADCValue@data(BANK0[5]), 
  1170 ;;
  1171 ;; lcd_puts@ptr	PTR unsigned char  size(2) Largest target is 17
  1172 ;;		 -> STR_23(CODE[16]), STR_22(CODE[14]), STR_21(CODE[15]), STR_20(CODE[17]), 
  1173 ;;		 -> lcd_writeThisDigit@string(BANK1[4]), STR_19(CODE[3]), STR_18(CODE[4]), STR_17(CODE[13]), 
  1174 ;;		 -> STR_16(CODE[3]), STR_15(CODE[3]), STR_14(CODE[16]), STR_13(CODE[3]), 
  1175 ;;		 -> STR_12(CODE[3]), STR_11(CODE[13]), STR_10(CODE[15]), STR_9(CODE[17]), 
  1176 ;;		 -> STR_8(CODE[15]), STR_7(CODE[16]), STR_6(CODE[13]), STR_5(CODE[8]), 
  1177 ;;		 -> STR_4(CODE[8]), STR_3(CODE[15]), STR_2(CODE[14]), STR_1(CODE[9]), 
  1178 ;;		 -> print_ADCValue@data(BANK0[5]), 
  1179 ;;
  1180                           
  1181                           
  1182 ;;
  1183 ;; Critical Paths under _main in COMMON
  1184 ;;
  1185 ;;   None.
  1186 ;;
  1187 ;; Critical Paths under _ISR in COMMON
  1188 ;;
  1189 ;;   _ISR->_print_ADCValue
  1190 ;;   i1_UpdateScreen->i1_lcd_writeThisDigit
  1191 ;;   _print_ADCValue->i1_lcd_writeThisStringAt
  1192 ;;   i1_lcd_writeThisDigit->i1___awdiv
  1193 ;;   i1_lcd_writeThisStringAt->i1_goto_XY
  1194 ;;   i1_lcd_writeThisStringAt->i1_lcd_puts
  1195 ;;   i1_lcd_clear->i1_lcd_cmd
  1196 ;;   i1_goto_XY->i1_lcd_cmd
  1197 ;;   i1_lcd_puts->i1_lcd_write
  1198 ;;
  1199 ;; Critical Paths under _main in BANK0
  1200 ;;
  1201 ;;   _NextButtonHandler->_UpdateScreen
  1202 ;;   _UpbuttonHandler->_UpdateScreen
  1203 ;;   _PreviousButtonHandler->_UpdateScreen
  1204 ;;   _DownButtonHandler->_UpdateScreen
  1205 ;;   _NormalModeOperations->_serveCoffee
  1206 ;;   _NormalModeOperations->_serveHalfQuantity
  1207 ;;   _NormalModeOperations->_serveTea
  1208 ;;   _NormalModeOperations->_serveHotWater
  1209 ;;   _UpdateScreen->_lcd_writeThisDigit
  1210 ;;   _default_bootSequence->_lcd_writeThisStringAt
  1211 ;;   _serveHotWater->_lcd_writeThisStringAt
  1212 ;;   _serveTea->_lcd_writeThisStringAt
  1213 ;;   _serveHalfQuantity->_lcd_writeThisStringAt
  1214 ;;   _serveCoffee->_lcd_writeThisStringAt
  1215 ;;   _lcd_writeThisDigit->___awdiv
  1216 ;;   _peripheral_initialsation->_lcd_init
  1217 ;;   _lcd_writeThisStringAt->_goto_XY
  1218 ;;   _lcd_writeThisStringAt->_lcd_puts
  1219 ;;   _goto_XY->_lcd_cmd
  1220 ;;   _lcd_puts->_lcd_write
  1221 ;;   _lcd_init->_lcd_cmd
  1222 ;;   _lcd_clear->_lcd_cmd
  1223 ;;
  1224 ;; Critical Paths under _ISR in BANK0
  1225 ;;
  1226 ;;   _InitialiseSettingMode->i1_UpdateScreen
  1227 ;;   i1_UpdateScreen->i1_lcd_writeThisDigit
  1228 ;;
  1229 ;; Critical Paths under _main in BANK1
  1230 ;;
  1231 ;;   _main->_IsKeyPressed
  1232 ;;   _IsKeyPressed->_SettingModeOperations
  1233 ;;   _SettingModeOperations->_DownButtonHandler
  1234 ;;   _SettingModeOperations->_UpbuttonHandler
  1235 ;;   _UpdateScreen->_lcd_writeThisDigit
  1236 ;;
  1237 ;; Critical Paths under _ISR in BANK1
  1238 ;;
  1239 ;;   None.
  1240 ;;
  1241 ;; Critical Paths under _main in BANK3
  1242 ;;
  1243 ;;   None.
  1244 ;;
  1245 ;; Critical Paths under _ISR in BANK3
  1246 ;;
  1247 ;;   None.
  1248 ;;
  1249 ;; Critical Paths under _main in BANK2
  1250 ;;
  1251 ;;   None.
  1252 ;;
  1253 ;; Critical Paths under _ISR in BANK2
  1254 ;;
  1255 ;;   None.
  1256                           
  1257 ;;
  1258 ;;Main: autosize = 0, tempsize = 1, incstack = 0, save=0
  1259 ;;
  1260                           
  1261 ;;
  1262 ;;Call Graph Tables:
  1263 ;;
  1264 ;; ---------------------------------------------------------------------------------
  1265 ;; (Depth) Function   	        Calls       Base Space   Used Autos Params    Refs
  1266 ;; ---------------------------------------------------------------------------------
  1267 ;; (0) _main                                                 3     3      0   13387
  1268 ;;                                             12 BANK1      1     1      0
  1269 ;;            _default_initialisations
  1270 ;;           _peripheral_initialsation
  1271 ;;                      _isItFirstTime
  1272 ;;               _default_bootSequence
  1273 ;;                          _lcd_clear
  1274 ;;                       _start_timer0
  1275 ;;              _lcd_writeThisStringAt
  1276 ;;                       _IsKeyPressed
  1277 ;; ---------------------------------------------------------------------------------
  1278 ;; (1) _IsKeyPressed                                         3     3      0   11774
  1279 ;;                                              9 BANK1      3     3      0
  1280 ;;              _SettingModeOperations
  1281 ;;               _NormalModeOperations
  1282 ;; ---------------------------------------------------------------------------------
  1283 ;; (2) _SettingModeOperations                                1     1      0    9127
  1284 ;;                                              8 BANK1      1     1      0
  1285 ;;                  _DownButtonHandler
  1286 ;;              _PreviousButtonHandler
  1287 ;;                    _UpbuttonHandler
  1288 ;;                  _NextButtonHandler
  1289 ;; ---------------------------------------------------------------------------------
  1290 ;; (3) _NextButtonHandler                                    1     1      0    2009
  1291 ;;                                              5 BANK1      1     1      0
  1292 ;;                       _UpdateScreen
  1293 ;; ---------------------------------------------------------------------------------
  1294 ;; (3) _UpbuttonHandler                                      3     3      0    2539
  1295 ;;                                              5 BANK1      3     3      0
  1296 ;;              _lcd_writeThisStringAt
  1297 ;;                       _UpdateScreen
  1298 ;; ---------------------------------------------------------------------------------
  1299 ;; (3) _PreviousButtonHandler                                1     1      0    2009
  1300 ;;                                              5 BANK1      1     1      0
  1301 ;;                       _UpdateScreen
  1302 ;; ---------------------------------------------------------------------------------
  1303 ;; (3) _DownButtonHandler                                    3     3      0    2539
  1304 ;;                                              5 BANK1      3     3      0
  1305 ;;              _lcd_writeThisStringAt
  1306 ;;                       _UpdateScreen
  1307 ;; ---------------------------------------------------------------------------------
  1308 ;; (2) _NormalModeOperations                                 1     1      0    2647
  1309 ;;                                             28 BANK0      1     1      0
  1310 ;;                        _serveCoffee
  1311 ;;                  _serveHalfQuantity
  1312 ;;                           _serveTea
  1313 ;;                      _serveHotWater
  1314 ;; ---------------------------------------------------------------------------------
  1315 ;; (4) _UpdateScreen                                         4     4      0    2009
  1316 ;;                                             27 BANK0      3     3      0
  1317 ;;                          _lcd_clear
  1318 ;;              _lcd_writeThisStringAt
  1319 ;;                 _lcd_writeThisDigit
  1320 ;; ---------------------------------------------------------------------------------
  1321 ;; (1) _default_bootSequence                                 3     3      0     530
  1322 ;;                                             25 BANK0      3     3      0
  1323 ;;              _lcd_writeThisStringAt
  1324 ;; ---------------------------------------------------------------------------------
  1325 ;; (3) _serveHotWater                                        3     3      0     654
  1326 ;;                                             25 BANK0      3     3      0
  1327 ;;              _lcd_writeThisStringAt
  1328 ;;                          _lcd_clear
  1329 ;; ---------------------------------------------------------------------------------
  1330 ;; (3) _serveTea                                             3     3      0     654
  1331 ;;                                             25 BANK0      3     3      0
  1332 ;;              _lcd_writeThisStringAt
  1333 ;;                          _lcd_clear
  1334 ;; ---------------------------------------------------------------------------------
  1335 ;; (3) _serveHalfQuantity                                    3     3      0     654
  1336 ;;                                             25 BANK0      3     3      0
  1337 ;;              _lcd_writeThisStringAt
  1338 ;;                          _lcd_clear
  1339 ;; ---------------------------------------------------------------------------------
  1340 ;; (3) _serveCoffee                                          3     3      0     654
  1341 ;;                                             25 BANK0      3     3      0
  1342 ;;              _lcd_writeThisStringAt
  1343 ;;                          _lcd_clear
  1344 ;; ---------------------------------------------------------------------------------
  1345 ;; (5) _lcd_writeThisDigit                                   8     8      0    1355
  1346 ;;                                             24 BANK0      3     3      0
  1347 ;;                                              0 BANK1      5     5      0
  1348 ;;                            ___awmod
  1349 ;;                            ___awdiv
  1350 ;;                           _lcd_puts
  1351 ;; ---------------------------------------------------------------------------------
  1352 ;; (1) _peripheral_initialsation                             0     0      0     384
  1353 ;;                           _lcd_init
  1354 ;;                    _initialisePortB
  1355 ;;                _enableInterrupt_RB0
  1356 ;;             _GlobalInterrupt_ENABLE
  1357 ;;                  _initialise_timer0
  1358 ;;                     _adc_initialise
  1359 ;;                          _lcd_clear
  1360 ;; ---------------------------------------------------------------------------------
  1361 ;; (4) _lcd_writeThisStringAt                                5     2      3     530
  1362 ;;                                             20 BANK0      5     2      3
  1363 ;;                            _goto_XY
  1364 ;;                           _lcd_puts
  1365 ;; ---------------------------------------------------------------------------------
  1366 ;; (5) _goto_XY                                              2     1      1     248
  1367 ;;                                             18 BANK0      2     1      1
  1368 ;;                            _lcd_cmd
  1369 ;; ---------------------------------------------------------------------------------
  1370 ;; (5) _lcd_puts                                             2     0      2     189
  1371 ;;                                             18 BANK0      2     0      2
  1372 ;;                          _lcd_write
  1373 ;; ---------------------------------------------------------------------------------
  1374 ;; (2) _lcd_init                                             8     8      0     260
  1375 ;;                                             18 BANK0      8     8      0
  1376 ;;                            _lcd_cmd
  1377 ;; ---------------------------------------------------------------------------------
  1378 ;; (4) _lcd_clear                                            0     0      0     124
  1379 ;;                            _lcd_cmd
  1380 ;; ---------------------------------------------------------------------------------
  1381 ;; (6) _lcd_write                                            3     3      0     124
  1382 ;;                                             15 BANK0      3     3      0
  1383 ;; ---------------------------------------------------------------------------------
  1384 ;; (5) _lcd_cmd                                              3     3      0     124
  1385 ;;                                             15 BANK0      3     3      0
  1386 ;; ---------------------------------------------------------------------------------
  1387 ;; (2) _initialise_timer0                                    0     0      0       0
  1388 ;;             _GlobalInterrupt_ENABLE
  1389 ;; ---------------------------------------------------------------------------------
  1390 ;; (1) _isItFirstTime                                        4     4      0      45
  1391 ;;                                             15 BANK0      4     4      0
  1392 ;; ---------------------------------------------------------------------------------
  1393 ;; (6) ___awmod                                              7     3      4     433
  1394 ;;                                             15 BANK0      7     3      4
  1395 ;; ---------------------------------------------------------------------------------
  1396 ;; (6) ___awdiv                                              9     5      4     445
  1397 ;;                                             15 BANK0      9     5      4
  1398 ;; ---------------------------------------------------------------------------------
  1399 ;; (2) _initialisePortB                                      0     0      0       0
  1400 ;; ---------------------------------------------------------------------------------
  1401 ;; (1) _default_initialisations                              0     0      0       0
  1402 ;; ---------------------------------------------------------------------------------
  1403 ;; (1) _start_timer0                                         0     0      0       0
  1404 ;; ---------------------------------------------------------------------------------
  1405 ;; (2) _enableInterrupt_RB0                                  0     0      0       0
  1406 ;; ---------------------------------------------------------------------------------
  1407 ;; (3) _GlobalInterrupt_ENABLE                               0     0      0       0
  1408 ;; ---------------------------------------------------------------------------------
  1409 ;; (2) _adc_initialise                                       0     0      0       0
  1410 ;; ---------------------------------------------------------------------------------
  1411 ;; Estimated maximum stack depth 6
  1412 ;; ---------------------------------------------------------------------------------
  1413 ;; (Depth) Function   	        Calls       Base Space   Used Autos Params    Refs
  1414 ;; ---------------------------------------------------------------------------------
  1415 ;; (8) _ISR                                                  7     7      0   10345
  1416 ;;                                              8 BANK0      7     7      0
  1417 ;;                       _adc_getValue
  1418 ;;                     _print_ADCValue
  1419 ;;               _disableInterrupt_RB0
  1420 ;;                        _stop_timer0
  1421 ;;                        i1_lcd_clear
  1422 ;;            i1_lcd_writeThisStringAt
  1423 ;;              _InitialiseSettingMode
  1424 ;;                _updateConfiguration
  1425 ;;              i1_enableInterrupt_RB0
  1426 ;;                     i1_start_timer0
  1427 ;; ---------------------------------------------------------------------------------
  1428 ;; (9) _InitialiseSettingMode                                0     0      0    4896
  1429 ;;                     i1_UpdateScreen
  1430 ;; ---------------------------------------------------------------------------------
  1431 ;; (10) i1_UpdateScreen                                      4     4      0    4896
  1432 ;;                                              5 BANK0      3     3      0
  1433 ;;                        i1_lcd_clear
  1434 ;;            i1_lcd_writeThisStringAt
  1435 ;;               i1_lcd_writeThisDigit
  1436 ;; ---------------------------------------------------------------------------------
  1437 ;; (9) _print_ADCValue                                       8     6      2    3751
  1438 ;;                                             10 COMMON     3     1      2
  1439 ;;                                              0 BANK0      5     5      0
  1440 ;;                          i1___awmod
  1441 ;;                          i1___awdiv
  1442 ;;            i1_lcd_writeThisStringAt
  1443 ;;                       _adc_getValue (ARG)
  1444 ;; ---------------------------------------------------------------------------------
  1445 ;; (11) i1_lcd_writeThisDigit                                8     8      0    3223
  1446 ;;                                              9 COMMON     3     3      0
  1447 ;;                                              0 BANK0      5     5      0
  1448 ;;                          i1___awmod
  1449 ;;                          i1___awdiv
  1450 ;;                         i1_lcd_puts
  1451 ;; ---------------------------------------------------------------------------------
  1452 ;; (11) i1_lcd_writeThisStringAt                             5     2      3    1381
  1453 ;;                                              5 COMMON     5     2      3
  1454 ;;                          i1_goto_XY
  1455 ;;                         i1_lcd_puts
  1456 ;; ---------------------------------------------------------------------------------
  1457 ;; (11) i1_lcd_clear                                         0     0      0     292
  1458 ;;                          i1_lcd_cmd
  1459 ;; ---------------------------------------------------------------------------------
  1460 ;; (12) i1_goto_XY                                           2     1      1     584
  1461 ;;                                              3 COMMON     2     1      1
  1462 ;;                          i1_lcd_cmd
  1463 ;; ---------------------------------------------------------------------------------
  1464 ;; (12) i1_lcd_puts                                          2     0      2     533
  1465 ;;                                              3 COMMON     2     0      2
  1466 ;;                        i1_lcd_write
  1467 ;; ---------------------------------------------------------------------------------
  1468 ;; (13) i1_lcd_cmd                                           3     3      0     292
  1469 ;;                                              0 COMMON     3     3      0
  1470 ;; ---------------------------------------------------------------------------------
  1471 ;; (13) i1_lcd_write                                         3     3      0     352
  1472 ;;                                              0 COMMON     3     3      0
  1473 ;; ---------------------------------------------------------------------------------
  1474 ;; (9) _updateConfiguration                                  3     3      0       0
  1475 ;;                                              0 COMMON     3     3      0
  1476 ;; ---------------------------------------------------------------------------------
  1477 ;; (12) i1___awmod                                           7     3      4     969
  1478 ;;                                              0 COMMON     7     3      4
  1479 ;; ---------------------------------------------------------------------------------
  1480 ;; (12) i1___awdiv                                           9     5      4     977
  1481 ;;                                              0 COMMON     9     5      4
  1482 ;; ---------------------------------------------------------------------------------
  1483 ;; (9) i1_start_timer0                                       0     0      0       0
  1484 ;; ---------------------------------------------------------------------------------
  1485 ;; (9) i1_enableInterrupt_RB0                                0     0      0       0
  1486 ;; ---------------------------------------------------------------------------------
  1487 ;; (9) _stop_timer0                                          0     0      0       0
  1488 ;; ---------------------------------------------------------------------------------
  1489 ;; (9) _disableInterrupt_RB0                                 0     0      0       0
  1490 ;; ---------------------------------------------------------------------------------
  1491 ;; (9) _adc_getValue                                         8     6      2      25
  1492 ;;                                              0 COMMON     8     6      2
  1493 ;; ---------------------------------------------------------------------------------
  1494 ;; Estimated maximum stack depth 13
  1495 ;; ---------------------------------------------------------------------------------
  1496                           
  1497 ;; Call Graph Graphs:
  1498                           
  1499 ;; _main (ROOT)
  1500 ;;   _default_initialisations
  1501 ;;   _peripheral_initialsation
  1502 ;;     _lcd_init
  1503 ;;       _lcd_cmd
  1504 ;;     _initialisePortB
  1505 ;;     _enableInterrupt_RB0
  1506 ;;     _GlobalInterrupt_ENABLE
  1507 ;;     _initialise_timer0
  1508 ;;       _GlobalInterrupt_ENABLE
  1509 ;;     _adc_initialise
  1510 ;;     _lcd_clear
  1511 ;;       _lcd_cmd
  1512 ;;   _isItFirstTime
  1513 ;;   _default_bootSequence
  1514 ;;     _lcd_writeThisStringAt
  1515 ;;       _goto_XY
  1516 ;;         _lcd_cmd
  1517 ;;       _lcd_puts
  1518 ;;         _lcd_write
  1519 ;;   _lcd_clear
  1520 ;;     _lcd_cmd
  1521 ;;   _start_timer0
  1522 ;;   _lcd_writeThisStringAt
  1523 ;;     _goto_XY
  1524 ;;       _lcd_cmd
  1525 ;;     _lcd_puts
  1526 ;;       _lcd_write
  1527 ;;   _IsKeyPressed
  1528 ;;     _SettingModeOperations
  1529 ;;       _DownButtonHandler
  1530 ;;         _lcd_writeThisStringAt
  1531 ;;           _goto_XY
  1532 ;;             _lcd_cmd
  1533 ;;           _lcd_puts
  1534 ;;             _lcd_write
  1535 ;;         _UpdateScreen
  1536 ;;           _lcd_clear
  1537 ;;             _lcd_cmd
  1538 ;;           _lcd_writeThisStringAt
  1539 ;;             _goto_XY
  1540 ;;               _lcd_cmd
  1541 ;;             _lcd_puts
  1542 ;;               _lcd_write
  1543 ;;           _lcd_writeThisDigit
  1544 ;;             ___awmod
  1545 ;;             ___awdiv
  1546 ;;             _lcd_puts
  1547 ;;               _lcd_write
  1548 ;;       _PreviousButtonHandler
  1549 ;;         _UpdateScreen
  1550 ;;           _lcd_clear
  1551 ;;             _lcd_cmd
  1552 ;;           _lcd_writeThisStringAt
  1553 ;;             _goto_XY
  1554 ;;               _lcd_cmd
  1555 ;;             _lcd_puts
  1556 ;;               _lcd_write
  1557 ;;           _lcd_writeThisDigit
  1558 ;;             ___awmod
  1559 ;;             ___awdiv
  1560 ;;             _lcd_puts
  1561 ;;               _lcd_write
  1562 ;;       _UpbuttonHandler
  1563 ;;         _lcd_writeThisStringAt
  1564 ;;           _goto_XY
  1565 ;;             _lcd_cmd
  1566 ;;           _lcd_puts
  1567 ;;             _lcd_write
  1568 ;;         _UpdateScreen
  1569 ;;           _lcd_clear
  1570 ;;             _lcd_cmd
  1571 ;;           _lcd_writeThisStringAt
  1572 ;;             _goto_XY
  1573 ;;               _lcd_cmd
  1574 ;;             _lcd_puts
  1575 ;;               _lcd_write
  1576 ;;           _lcd_writeThisDigit
  1577 ;;             ___awmod
  1578 ;;             ___awdiv
  1579 ;;             _lcd_puts
  1580 ;;               _lcd_write
  1581 ;;       _NextButtonHandler
  1582 ;;         _UpdateScreen
  1583 ;;           _lcd_clear
  1584 ;;             _lcd_cmd
  1585 ;;           _lcd_writeThisStringAt
  1586 ;;             _goto_XY
  1587 ;;               _lcd_cmd
  1588 ;;             _lcd_puts
  1589 ;;               _lcd_write
  1590 ;;           _lcd_writeThisDigit
  1591 ;;             ___awmod
  1592 ;;             ___awdiv
  1593 ;;             _lcd_puts
  1594 ;;               _lcd_write
  1595 ;;     _NormalModeOperations
  1596 ;;       _serveCoffee
  1597 ;;         _lcd_writeThisStringAt
  1598 ;;           _goto_XY
  1599 ;;             _lcd_cmd
  1600 ;;           _lcd_puts
  1601 ;;             _lcd_write
  1602 ;;         _lcd_clear
  1603 ;;           _lcd_cmd
  1604 ;;       _serveHalfQuantity
  1605 ;;         _lcd_writeThisStringAt
  1606 ;;           _goto_XY
  1607 ;;             _lcd_cmd
  1608 ;;           _lcd_puts
  1609 ;;             _lcd_write
  1610 ;;         _lcd_clear
  1611 ;;           _lcd_cmd
  1612 ;;       _serveTea
  1613 ;;         _lcd_writeThisStringAt
  1614 ;;           _goto_XY
  1615 ;;             _lcd_cmd
  1616 ;;           _lcd_puts
  1617 ;;             _lcd_write
  1618 ;;         _lcd_clear
  1619 ;;           _lcd_cmd
  1620 ;;       _serveHotWater
  1621 ;;         _lcd_writeThisStringAt
  1622 ;;           _goto_XY
  1623 ;;             _lcd_cmd
  1624 ;;           _lcd_puts
  1625 ;;             _lcd_write
  1626 ;;         _lcd_clear
  1627 ;;           _lcd_cmd
  1628 ;;
  1629 ;; _ISR (ROOT)
  1630 ;;   _adc_getValue
  1631 ;;   _print_ADCValue
  1632 ;;     i1___awmod
  1633 ;;     i1___awdiv
  1634 ;;     i1_lcd_writeThisStringAt
  1635 ;;       i1_goto_XY
  1636 ;;         i1_lcd_cmd
  1637 ;;       i1_lcd_puts
  1638 ;;         i1_lcd_write
  1639 ;;     _adc_getValue (ARG)
  1640 ;;   _disableInterrupt_RB0
  1641 ;;   _stop_timer0
  1642 ;;   i1_lcd_clear
  1643 ;;     i1_lcd_cmd
  1644 ;;   i1_lcd_writeThisStringAt
  1645 ;;     i1_goto_XY
  1646 ;;       i1_lcd_cmd
  1647 ;;     i1_lcd_puts
  1648 ;;       i1_lcd_write
  1649 ;;   _InitialiseSettingMode
  1650 ;;     i1_UpdateScreen
  1651 ;;       i1_lcd_clear
  1652 ;;         i1_lcd_cmd
  1653 ;;       i1_lcd_writeThisStringAt
  1654 ;;         i1_goto_XY
  1655 ;;           i1_lcd_cmd
  1656 ;;         i1_lcd_puts
  1657 ;;           i1_lcd_write
  1658 ;;       i1_lcd_writeThisDigit
  1659 ;;         i1___awmod
  1660 ;;         i1___awdiv
  1661 ;;         i1_lcd_puts
  1662 ;;           i1_lcd_write
  1663 ;;   _updateConfiguration
  1664 ;;   i1_enableInterrupt_RB0
  1665 ;;   i1_start_timer0
  1666 ;;
  1667                           
  1668 ;; Address spaces:
  1669                           
  1670 ;;Name               Size   Autos  Total    Cost      Usage
  1671 ;;BANK3               60      0       0       9        0.0%
  1672 ;;BITBANK3            60      0       0       8        0.0%
  1673 ;;SFR3                 0      0       0       4        0.0%
  1674 ;;BITSFR3              0      0       0       4        0.0%
  1675 ;;BANK2               60      0       0      11        0.0%
  1676 ;;BITBANK2            60      0       0      10        0.0%
  1677 ;;SFR2                 0      0       0       5        0.0%
  1678 ;;BITSFR2              0      0       0       5        0.0%
  1679 ;;SFR1                 0      0       0       2        0.0%
  1680 ;;BITSFR1              0      0       0       2        0.0%
  1681 ;;BANK1               50      D       D       7       16.3%
  1682 ;;BITBANK1            50      0       0       6        0.0%
  1683 ;;CODE                 0      0       0       0        0.0%
  1684 ;;DATA                 0      0      6F      12        0.0%
  1685 ;;ABS                  0      0      5C       3        0.0%
  1686 ;;NULL                 0      0       0       0        0.0%
  1687 ;;STACK                0      0      13       2        0.0%
  1688 ;;BANK0               50     1E      41       5       81.3%
  1689 ;;BITBANK0            50      0       0       4        0.0%
  1690 ;;SFR0                 0      0       0       1        0.0%
  1691 ;;BITSFR0              0      0       0       1        0.0%
  1692 ;;COMMON               E      D       E       1      100.0%
  1693 ;;BITCOMMON            E      0       0       0        0.0%
  1694 ;;EEDATA             100      0       0       0        0.0%
  1695                           
  1696                           	global	_main
  1697                           psect	maintext,global,class=CODE,delta=2
  1698                           global __pmaintext
  1699  095E                     __pmaintext:
  1700                           
  1701 ;; *************** function _main *****************
  1702 ;; Defined at:
  1703 ;;		line 44 in file "MainCode.c"
  1704 ;; Parameters:    Size  Location     Type
  1705 ;;		None
  1706 ;; Auto vars:     Size  Location     Type
  1707 ;;  temperatureC    2    0        int 
  1708 ;; Return value:  Size  Location     Type
  1709 ;;		None               void
  1710 ;; Registers used:
  1711 ;;		wreg, fsr0l, fsr0h, status,2, status,0, btemp+0, btemp+1, pclath, cstack
  1712 ;; Tracked objects:
  1713 ;;		On entry : 17F/0
  1714 ;;		On exit  : 0/0
  1715 ;;		Unchanged: 0/0
  1716 ;; Data sizes:     COMMON   BANK0   BANK1   BANK3   BANK2
  1717 ;;      Params:         0       0       0       0       0
  1718 ;;      Locals:         0       0       0       0       0
  1719 ;;      Temps:          0       0       1       0       0
  1720 ;;      Totals:         0       0       1       0       0
  1721 ;;Total ram usage:        1 bytes
  1722 ;; Hardware stack levels required when called:   13
  1723 ;; This function calls:
  1724 ;;		_default_initialisations
  1725 ;;		_peripheral_initialsation
  1726 ;;		_isItFirstTime
  1727 ;;		_default_bootSequence
  1728 ;;		_lcd_clear
  1729 ;;		_start_timer0
  1730 ;;		_lcd_writeThisStringAt
  1731 ;;		_IsKeyPressed
  1732 ;; This function is called by:
  1733 ;;		Startup code after reset
  1734 ;; This function uses a non-reentrant model
  1735 ;;
  1736                           psect	maintext
  1737                           	file	"MainCode.c"
  1738                           	line	44
  1739                           	global	__size_of_main
  1740  0043                     	__size_of_main	equ	__end_of_main-_main
  1741                           	
  1742  095E                     _main:	
  1743                           	opt	stack 8
  1744                           ; Regs used in _main: [wreg-fsr0h+status,2-btemp+1+pclath+cstack]
  1745                           	line	46
  1746                           	
  1747  095E                     l14649:	
  1748                           ;MainCode.c: 45: int temperatureCelcius;
  1749                           ;MainCode.c: 46: default_initialisations();
  1750  095E  160A  118A  25B0   	fcall	_default_initialisations
              120A  158A         
  1751                           	line	47
  1752                           	
  1753  0963                     l14651:	
  1754                           ;MainCode.c: 47: peripheral_initialsation();
  1755  0963  160A  118A  2748   	fcall	_peripheral_initialsation
              120A  158A         
  1756                           	line	48
  1757                           	
  1758  0968                     l14653:	
  1759                           ;MainCode.c: 48: isItFirstTime();
  1760  0968  120A  118A  20FF   	fcall	_isItFirstTime
              120A  158A         
  1761                           	line	50
  1762                           	
  1763  096D                     l14655:	
  1764                           ;MainCode.c: 50: default_bootSequence();
  1765  096D  160A  118A  2648   	fcall	_default_bootSequence
              120A  158A         
  1766                           	line	52
  1767                           	
  1768  0972                     l14657:	
  1769                           ;MainCode.c: 52: lcd_clear();
  1770  0972  160A  118A  2569   	fcall	_lcd_clear
              120A  158A         
  1771                           	line	53
  1772                           	
  1773  0977                     l14659:	
  1774                           ;MainCode.c: 53: PORTB = 0x01;
  1775  0977  3001               	movlw	(01h)
  1776  0978  1283               	bcf	status, 5	;RP0=0, select bank0
  1777  0979  1303               	bcf	status, 6	;RP1=0, select bank0
  1778  097A  0086               	movwf	(6)	;volatile
  1779                           	line	55
  1780                           	
  1781  097B                     l14661:	
  1782                           ;MainCode.c: 55: start_timer0();
  1783  097B  160A  118A  2557   	fcall	_start_timer0
              120A  158A         
  1784                           	line	57
  1785                           ;MainCode.c: 57: while (1) {
  1786                           	
  1787  0980                     l4513:	
  1788                           	line	59
  1789                           	
  1790  0980                     l14663:	
  1791                           ;MainCode.c: 59: if (1 == modeOfWorking)
  1792  0980  087D               	movf	(_modeOfWorking),w
  1793  0981  3A01               	xorlw	01h
  1794  0982  1D03               	skipz
  1795  0983  2985               	goto	u6911
  1796  0984  2986               	goto	u6910
  1797  0985                     u6911:
  1798  0985  2998               	goto	l4514
  1799  0986                     u6910:
  1800                           	line	61
  1801                           	
  1802  0986                     l14665:	
  1803                           ;MainCode.c: 60: {
  1804                           ;MainCode.c: 61: lcd_writeThisStringAt(0, 4, "WELCOME");
  1805  0986  3004               	movlw	(04h)
  1806  0987  1683               	bsf	status, 5	;RP0=1, select bank1
  1807  0988  1303               	bcf	status, 6	;RP1=0, select bank1
  1808  0989  00AC               	movwf	(??_main+0)^080h+0
  1809  098A  082C               	movf	(??_main+0)^080h+0,w
  1810  098B  1283               	bcf	status, 5	;RP0=0, select bank0
  1811  098C  1303               	bcf	status, 6	;RP1=0, select bank0
  1812  098D  00B4               	movwf	(?_lcd_writeThisStringAt)
  1813  098E  30C3               	movlw	low((STR_5-__stringbase))
  1814  098F  00B5               	movwf	(0+?_lcd_writeThisStringAt+01h)
  1815  0990  3080               	movlw	80h
  1816  0991  00B6               	movwf	(1+?_lcd_writeThisStringAt+01h)
  1817  0992  3000               	movlw	(0)
  1818  0993  160A  118A  25F1   	fcall	_lcd_writeThisStringAt
              120A  158A         
  1819                           	line	62
  1820                           	
  1821  0998                     l4514:	
  1822                           	line	63
  1823                           ;MainCode.c: 62: }
  1824                           ;MainCode.c: 63: IsKeyPressed();
  1825  0998  120A  158A  2659   	fcall	_IsKeyPressed
              120A  158A         
  1826                           	line	65
  1827                           	
  1828  099D                     l4515:	
  1829                           	line	57
  1830  099D  2980               	goto	l4513
  1831                           	
  1832  099E                     l4516:	
  1833                           	line	66
  1834                           	
  1835  099E                     l4517:	
  1836                           	global	start
  1837  099E  120A  118A  2812   	ljmp	start
  1838                           	opt stack 0
  1839                           GLOBAL	__end_of_main
  1840  09A1                     	__end_of_main:
  1841 ;; =============== function _main ends ============
  1842                           
  1843                           	signat	_main,88
  1844                           	global	_IsKeyPressed
  1845                           psect	text1636,local,class=CODE,delta=2
  1846                           global __ptext1636
  1847  0E59                     __ptext1636:
  1848                           
  1849 ;; *************** function _IsKeyPressed *****************
  1850 ;; Defined at:
  1851 ;;		line 15 in file "EventHandler.c"
  1852 ;; Parameters:    Size  Location     Type
  1853 ;;		None
  1854 ;; Auto vars:     Size  Location     Type
  1855 ;;		None
  1856 ;; Return value:  Size  Location     Type
  1857 ;;		None               void
  1858 ;; Registers used:
  1859 ;;		wreg, fsr0l, fsr0h, status,2, status,0, btemp+0, btemp+1, pclath, cstack
  1860 ;; Tracked objects:
  1861 ;;		On entry : 0/0
  1862 ;;		On exit  : 0/0
  1863 ;;		Unchanged: 0/0
  1864 ;; Data sizes:     COMMON   BANK0   BANK1   BANK3   BANK2
  1865 ;;      Params:         0       0       0       0       0
  1866 ;;      Locals:         0       0       0       0       0
  1867 ;;      Temps:          0       0       3       0       0
  1868 ;;      Totals:         0       0       3       0       0
  1869 ;;Total ram usage:        3 bytes
  1870 ;; Hardware stack levels used:    1
  1871 ;; Hardware stack levels required when called:   12
  1872 ;; This function calls:
  1873 ;;		_SettingModeOperations
  1874 ;;		_NormalModeOperations
  1875 ;; This function is called by:
  1876 ;;		_main
  1877 ;; This function uses a non-reentrant model
  1878 ;;
  1879                           psect	text1636
  1880                           	file	"EventHandler.c"
  1881                           	line	15
  1882                           	global	__size_of_IsKeyPressed
  1883  00CF                     	__size_of_IsKeyPressed	equ	__end_of_IsKeyPressed-_IsKeyPressed
  1884                           	
  1885  0E59                     _IsKeyPressed:	
  1886                           	opt	stack 7
  1887                           ; Regs used in _IsKeyPressed: [wreg-fsr0h+status,2-btemp+1+pclath+cstack]
  1888                           	line	16
  1889                           	
  1890  0E59                     l14591:	
  1891                           ;EventHandler.c: 16: keyPressed = 0;
  1892  0E59  1003               	clrc
  1893  0E5A  3000               	movlw	0
  1894  0E5B  1803               	btfsc	status,0
  1895  0E5C  3001               	movlw	1
  1896  0E5D  1283               	bcf	status, 5	;RP0=0, select bank0
  1897  0E5E  1303               	bcf	status, 6	;RP1=0, select bank0
  1898  0E5F  00CD               	movwf	(_keyPressed)
  1899                           	line	17
  1900                           	
  1901  0E60                     l14593:	
  1902                           ;EventHandler.c: 17: PORTB = 0x00;
  1903  0E60  0186               	clrf	(6)	;volatile
  1904                           	line	18
  1905                           	
  1906  0E61                     l14595:	
  1907                           ;EventHandler.c: 18: isKeyPressed = 0;
  1908  0E61  1003               	clrc
  1909  0E62  3000               	movlw	0
  1910  0E63  1803               	btfsc	status,0
  1911  0E64  3001               	movlw	1
  1912  0E65  00CC               	movwf	(_isKeyPressed)
  1913                           	line	20
  1914                           ;EventHandler.c: 20: while (isKeyPressed == 0 && keyPressed == 0) {
  1915  0E66  2EF2               	goto	l3559
  1916                           ;EventHandler.c: 22: if (!(1 && RB4)) {
  1917                           	
  1918  0E67                     l3560:	
  1919                           	line	22
  1920  0E67  1A06               	btfsc	(52/8),(52)&7
  1921  0E68  2E6A               	goto	u6781
  1922  0E69  2E6B               	goto	u6780
  1923  0E6A                     u6781:
  1924  0E6A  2E8B               	goto	l3561
  1925  0E6B                     u6780:
  1926                           	
  1927  0E6B                     l3563:	
  1928                           	line	23
  1929                           	
  1930  0E6B                     l14597:	
  1931                           ;EventHandler.c: 24: if (!(1 && RB4)) {
  1932                           	opt asmopt_off
  1933  0E6B  300D               movlw  13
  1934  0E6C  1683               	bsf	status, 5	;RP0=1, select bank1
  1935  0E6D  1303               	bcf	status, 6	;RP1=0, select bank1
  1936  0E6E  00AB               movwf	((??_IsKeyPressed+0)^080h+0+2),f
  1937  0E6F  30A3               movlw	163
  1938  0E70  00AA               movwf	((??_IsKeyPressed+0)^080h+0+1),f
  1939  0E71  30BD               	movlw	189
  1940  0E72  00A9               movwf	((??_IsKeyPressed+0)^080h+0),f
  1941  0E73                     u6927:
  1942  0E73  0BA9               	decfsz	((??_IsKeyPressed+0)^080h+0),f
  1943  0E74  2E73               	goto	u6927
  1944  0E75  0BAA               	decfsz	((??_IsKeyPressed+0)^080h+0+1),f
  1945  0E76  2E73               	goto	u6927
  1946  0E77  0BAB               	decfsz	((??_IsKeyPressed+0)^080h+0+2),f
  1947  0E78  2E73               	goto	u6927
  1948  0E79  0064               	clrwdt
  1949                           opt asmopt_on
  1950                           
  1951                           	line	24
  1952                           	
  1953  0E7A                     l14599:	
  1954  0E7A  1283               	bcf	status, 5	;RP0=0, select bank0
  1955  0E7B  1303               	bcf	status, 6	;RP1=0, select bank0
  1956  0E7C  1A06               	btfsc	(52/8),(52)&7
  1957  0E7D  2E7F               	goto	u6791
  1958  0E7E  2E80               	goto	u6790
  1959  0E7F                     u6791:
  1960  0E7F  2E8B               	goto	l3564
  1961  0E80                     u6790:
  1962                           	
  1963  0E80                     l3566:	
  1964                           	line	25
  1965                           	
  1966  0E80                     l14601:	
  1967                           ;EventHandler.c: 25: isKeyPressed = 1;
  1968  0E80  01CC               	clrf	(_isKeyPressed)
  1969  0E81  1403               	bsf	status,0
  1970  0E82  0DCC               	rlf	(_isKeyPressed),f
  1971                           	line	26
  1972                           	
  1973  0E83                     l14603:	
  1974                           ;EventHandler.c: 26: keyPressed = 4;
  1975  0E83  3004               	movlw	(04h)
  1976  0E84  1683               	bsf	status, 5	;RP0=1, select bank1
  1977  0E85  1303               	bcf	status, 6	;RP1=0, select bank1
  1978  0E86  00A9               	movwf	(??_IsKeyPressed+0)^080h+0
  1979  0E87  0829               	movf	(??_IsKeyPressed+0)^080h+0,w
  1980  0E88  1283               	bcf	status, 5	;RP0=0, select bank0
  1981  0E89  1303               	bcf	status, 6	;RP1=0, select bank0
  1982  0E8A  00CD               	movwf	(_keyPressed)
  1983                           	line	27
  1984                           	
  1985  0E8B                     l3564:	
  1986                           	line	28
  1987                           ;EventHandler.c: 27: }
  1988                           ;EventHandler.c: 28: }
  1989                           ;EventHandler.c: 29: if (!(1 && RB5)) {
  1990                           	
  1991  0E8B                     l3561:	
  1992                           	line	29
  1993                           	
  1994  0E8B                     l14605:	
  1995  0E8B  1A86               	btfsc	(53/8),(53)&7
  1996  0E8C  2E8E               	goto	u6801
  1997  0E8D  2E8F               	goto	u6800
  1998  0E8E                     u6801:
  1999  0E8E  2EAF               	goto	l3567
  2000  0E8F                     u6800:
  2001                           	
  2002  0E8F                     l3569:	
  2003                           	line	30
  2004                           	
  2005  0E8F                     l14607:	
  2006                           ;EventHandler.c: 31: if (!(1 && RB5)) {
  2007                           	opt asmopt_off
  2008  0E8F  300D               movlw  13
  2009  0E90  1683               	bsf	status, 5	;RP0=1, select bank1
  2010  0E91  1303               	bcf	status, 6	;RP1=0, select bank1
  2011  0E92  00AB               movwf	((??_IsKeyPressed+0)^080h+0+2),f
  2012  0E93  30A3               movlw	163
  2013  0E94  00AA               movwf	((??_IsKeyPressed+0)^080h+0+1),f
  2014  0E95  30BD               	movlw	189
  2015  0E96  00A9               movwf	((??_IsKeyPressed+0)^080h+0),f
  2016  0E97                     u6937:
  2017  0E97  0BA9               	decfsz	((??_IsKeyPressed+0)^080h+0),f
  2018  0E98  2E97               	goto	u6937
  2019  0E99  0BAA               	decfsz	((??_IsKeyPressed+0)^080h+0+1),f
  2020  0E9A  2E97               	goto	u6937
  2021  0E9B  0BAB               	decfsz	((??_IsKeyPressed+0)^080h+0+2),f
  2022  0E9C  2E97               	goto	u6937
  2023  0E9D  0064               	clrwdt
  2024                           opt asmopt_on
  2025                           
  2026                           	line	31
  2027                           	
  2028  0E9E                     l14609:	
  2029  0E9E  1283               	bcf	status, 5	;RP0=0, select bank0
  2030  0E9F  1303               	bcf	status, 6	;RP1=0, select bank0
  2031  0EA0  1A86               	btfsc	(53/8),(53)&7
  2032  0EA1  2EA3               	goto	u6811
  2033  0EA2  2EA4               	goto	u6810
  2034  0EA3                     u6811:
  2035  0EA3  2EAF               	goto	l3570
  2036  0EA4                     u6810:
  2037                           	
  2038  0EA4                     l3572:	
  2039                           	line	32
  2040                           	
  2041  0EA4                     l14611:	
  2042                           ;EventHandler.c: 32: isKeyPressed = 1;
  2043  0EA4  01CC               	clrf	(_isKeyPressed)
  2044  0EA5  1403               	bsf	status,0
  2045  0EA6  0DCC               	rlf	(_isKeyPressed),f
  2046                           	line	33
  2047                           	
  2048  0EA7                     l14613:	
  2049                           ;EventHandler.c: 33: keyPressed = 3;
  2050  0EA7  3003               	movlw	(03h)
  2051  0EA8  1683               	bsf	status, 5	;RP0=1, select bank1
  2052  0EA9  1303               	bcf	status, 6	;RP1=0, select bank1
  2053  0EAA  00A9               	movwf	(??_IsKeyPressed+0)^080h+0
  2054  0EAB  0829               	movf	(??_IsKeyPressed+0)^080h+0,w
  2055  0EAC  1283               	bcf	status, 5	;RP0=0, select bank0
  2056  0EAD  1303               	bcf	status, 6	;RP1=0, select bank0
  2057  0EAE  00CD               	movwf	(_keyPressed)
  2058                           	line	34
  2059                           	
  2060  0EAF                     l3570:	
  2061                           	line	36
  2062                           ;EventHandler.c: 34: }
  2063                           ;EventHandler.c: 36: }
  2064                           ;EventHandler.c: 37: if (!(1 && RB6)) {
  2065                           	
  2066  0EAF                     l3567:	
  2067                           	line	37
  2068                           	
  2069  0EAF                     l14615:	
  2070  0EAF  1B06               	btfsc	(54/8),(54)&7
  2071  0EB0  2EB2               	goto	u6821
  2072  0EB1  2EB3               	goto	u6820
  2073  0EB2                     u6821:
  2074  0EB2  2ED3               	goto	l3573
  2075  0EB3                     u6820:
  2076                           	
  2077  0EB3                     l3575:	
  2078                           	line	38
  2079                           	
  2080  0EB3                     l14617:	
  2081                           ;EventHandler.c: 39: if (!(1 && RB6)) {
  2082                           	opt asmopt_off
  2083  0EB3  300D               movlw  13
  2084  0EB4  1683               	bsf	status, 5	;RP0=1, select bank1
  2085  0EB5  1303               	bcf	status, 6	;RP1=0, select bank1
  2086  0EB6  00AB               movwf	((??_IsKeyPressed+0)^080h+0+2),f
  2087  0EB7  30A3               movlw	163
  2088  0EB8  00AA               movwf	((??_IsKeyPressed+0)^080h+0+1),f
  2089  0EB9  30BD               	movlw	189
  2090  0EBA  00A9               movwf	((??_IsKeyPressed+0)^080h+0),f
  2091  0EBB                     u6947:
  2092  0EBB  0BA9               	decfsz	((??_IsKeyPressed+0)^080h+0),f
  2093  0EBC  2EBB               	goto	u6947
  2094  0EBD  0BAA               	decfsz	((??_IsKeyPressed+0)^080h+0+1),f
  2095  0EBE  2EBB               	goto	u6947
  2096  0EBF  0BAB               	decfsz	((??_IsKeyPressed+0)^080h+0+2),f
  2097  0EC0  2EBB               	goto	u6947
  2098  0EC1  0064               	clrwdt
  2099                           opt asmopt_on
  2100                           
  2101                           	line	39
  2102                           	
  2103  0EC2                     l14619:	
  2104  0EC2  1283               	bcf	status, 5	;RP0=0, select bank0
  2105  0EC3  1303               	bcf	status, 6	;RP1=0, select bank0
  2106  0EC4  1B06               	btfsc	(54/8),(54)&7
  2107  0EC5  2EC7               	goto	u6831
  2108  0EC6  2EC8               	goto	u6830
  2109  0EC7                     u6831:
  2110  0EC7  2ED3               	goto	l3576
  2111  0EC8                     u6830:
  2112                           	
  2113  0EC8                     l3578:	
  2114                           	line	40
  2115                           	
  2116  0EC8                     l14621:	
  2117                           ;EventHandler.c: 40: isKeyPressed = 1;
  2118  0EC8  01CC               	clrf	(_isKeyPressed)
  2119  0EC9  1403               	bsf	status,0
  2120  0ECA  0DCC               	rlf	(_isKeyPressed),f
  2121                           	line	41
  2122                           	
  2123  0ECB                     l14623:	
  2124                           ;EventHandler.c: 41: keyPressed = 2;
  2125  0ECB  3002               	movlw	(02h)
  2126  0ECC  1683               	bsf	status, 5	;RP0=1, select bank1
  2127  0ECD  1303               	bcf	status, 6	;RP1=0, select bank1
  2128  0ECE  00A9               	movwf	(??_IsKeyPressed+0)^080h+0
  2129  0ECF  0829               	movf	(??_IsKeyPressed+0)^080h+0,w
  2130  0ED0  1283               	bcf	status, 5	;RP0=0, select bank0
  2131  0ED1  1303               	bcf	status, 6	;RP1=0, select bank0
  2132  0ED2  00CD               	movwf	(_keyPressed)
  2133                           	line	42
  2134                           	
  2135  0ED3                     l3576:	
  2136                           	line	44
  2137                           ;EventHandler.c: 42: }
  2138                           ;EventHandler.c: 44: }
  2139                           ;EventHandler.c: 45: if (!(1 && RB7)) {
  2140                           	
  2141  0ED3                     l3573:	
  2142                           	line	45
  2143                           	
  2144  0ED3                     l14625:	
  2145  0ED3  1B86               	btfsc	(55/8),(55)&7
  2146  0ED4  2ED6               	goto	u6841
  2147  0ED5  2ED7               	goto	u6840
  2148  0ED6                     u6841:
  2149  0ED6  2EF2               	goto	l3579
  2150  0ED7                     u6840:
  2151                           	
  2152  0ED7                     l3581:	
  2153                           	line	46
  2154                           	
  2155  0ED7                     l14627:	
  2156                           ;EventHandler.c: 47: if (!(1 && RB7)) {
  2157                           	opt asmopt_off
  2158  0ED7  300D               movlw  13
  2159  0ED8  1683               	bsf	status, 5	;RP0=1, select bank1
  2160  0ED9  1303               	bcf	status, 6	;RP1=0, select bank1
  2161  0EDA  00AB               movwf	((??_IsKeyPressed+0)^080h+0+2),f
  2162  0EDB  30A3               movlw	163
  2163  0EDC  00AA               movwf	((??_IsKeyPressed+0)^080h+0+1),f
  2164  0EDD  30BD               	movlw	189
  2165  0EDE  00A9               movwf	((??_IsKeyPressed+0)^080h+0),f
  2166  0EDF                     u6957:
  2167  0EDF  0BA9               	decfsz	((??_IsKeyPressed+0)^080h+0),f
  2168  0EE0  2EDF               	goto	u6957
  2169  0EE1  0BAA               	decfsz	((??_IsKeyPressed+0)^080h+0+1),f
  2170  0EE2  2EDF               	goto	u6957
  2171  0EE3  0BAB               	decfsz	((??_IsKeyPressed+0)^080h+0+2),f
  2172  0EE4  2EDF               	goto	u6957
  2173  0EE5  0064               	clrwdt
  2174                           opt asmopt_on
  2175                           
  2176                           	line	47
  2177                           	
  2178  0EE6                     l14629:	
  2179  0EE6  1283               	bcf	status, 5	;RP0=0, select bank0
  2180  0EE7  1303               	bcf	status, 6	;RP1=0, select bank0
  2181  0EE8  1B86               	btfsc	(55/8),(55)&7
  2182  0EE9  2EEB               	goto	u6851
  2183  0EEA  2EEC               	goto	u6850
  2184  0EEB                     u6851:
  2185  0EEB  2EF2               	goto	l3582
  2186  0EEC                     u6850:
  2187                           	
  2188  0EEC                     l3584:	
  2189                           	line	48
  2190                           	
  2191  0EEC                     l14631:	
  2192                           ;EventHandler.c: 48: isKeyPressed = 1;
  2193  0EEC  01CC               	clrf	(_isKeyPressed)
  2194  0EED  1403               	bsf	status,0
  2195  0EEE  0DCC               	rlf	(_isKeyPressed),f
  2196                           	line	49
  2197                           ;EventHandler.c: 49: keyPressed = 1;
  2198  0EEF  01CD               	clrf	(_keyPressed)
  2199  0EF0  1403               	bsf	status,0
  2200  0EF1  0DCD               	rlf	(_keyPressed),f
  2201                           	line	50
  2202                           	
  2203  0EF2                     l3582:	
  2204                           	line	51
  2205                           	
  2206  0EF2                     l3579:	
  2207                           	line	53
  2208                           	
  2209  0EF2                     l3559:	
  2210                           	line	20
  2211  0EF2  08CC               	movf	(_isKeyPressed),f
  2212  0EF3  1D03               	skipz
  2213  0EF4  2EF6               	goto	u6861
  2214  0EF5  2EF7               	goto	u6860
  2215  0EF6                     u6861:
  2216  0EF6  2EFB               	goto	l3586
  2217  0EF7                     u6860:
  2218                           	
  2219  0EF7                     l14633:	
  2220  0EF7  084D               	movf	(_keyPressed),w
  2221  0EF8  1D03               	skipz
  2222  0EF9  2EFB               	goto	u6870
  2223  0EFA  2E67               	goto	l3560
  2224  0EFB                     u6870:
  2225                           	
  2226  0EFB                     l3586:	
  2227                           	
  2228  0EFB                     l3587:	
  2229                           	line	89
  2230                           	
  2231  0EFB                     l14635:	
  2232                           ;EventHandler.c: 50: }
  2233                           ;EventHandler.c: 51: }
  2234                           ;EventHandler.c: 53: }
  2235                           ;EventHandler.c: 89: if (isKeyPressed == 1) {
  2236  0EFB  084C               	movf	(_isKeyPressed),w
  2237  0EFC  3A01               	xorlw	01h
  2238  0EFD  1D03               	skipz
  2239  0EFE  2F00               	goto	u6881
  2240  0EFF  2F01               	goto	u6880
  2241  0F00                     u6881:
  2242  0F00  2F1B               	goto	l3588
  2243  0F01                     u6880:
  2244                           	line	90
  2245                           	
  2246  0F01                     l14637:	
  2247                           ;EventHandler.c: 90: if (0 == modeOfWorking) {
  2248  0F01  08FD               	movf	(_modeOfWorking),f
  2249  0F02  1D03               	skipz
  2250  0F03  2F05               	goto	u6891
  2251  0F04  2F06               	goto	u6890
  2252  0F05                     u6891:
  2253  0F05  2F0D               	goto	l3589
  2254  0F06                     u6890:
  2255                           	line	91
  2256                           	
  2257  0F06                     l14639:	
  2258                           ;EventHandler.c: 91: SettingModeOperations(keyPressed);
  2259  0F06  084D               	movf	(_keyPressed),w
  2260  0F07  160A  118A  27D1   	fcall	_SettingModeOperations
              120A  158A         
  2261                           	line	92
  2262                           ;EventHandler.c: 92: } else if (1 == modeOfWorking) {
  2263  0F0C  2F1B               	goto	l3590
  2264                           	
  2265  0F0D                     l3589:	
  2266                           	
  2267  0F0D                     l14641:	
  2268  0F0D  087D               	movf	(_modeOfWorking),w
  2269  0F0E  3A01               	xorlw	01h
  2270  0F0F  1D03               	skipz
  2271  0F10  2F12               	goto	u6901
  2272  0F11  2F13               	goto	u6900
  2273  0F12                     u6901:
  2274  0F12  2F1B               	goto	l3591
  2275  0F13                     u6900:
  2276                           	line	93
  2277                           	
  2278  0F13                     l14643:	
  2279                           ;EventHandler.c: 93: NormalModeOperations(keyPressed);
  2280  0F13  1283               	bcf	status, 5	;RP0=0, select bank0
  2281  0F14  1303               	bcf	status, 6	;RP1=0, select bank0
  2282  0F15  084D               	movf	(_keyPressed),w
  2283  0F16  160A  118A  27A2   	fcall	_NormalModeOperations
              120A  158A         
  2284                           	line	94
  2285                           	
  2286  0F1B                     l3591:	
  2287                           	line	95
  2288                           	
  2289  0F1B                     l3590:	
  2290                           	
  2291  0F1B                     l3588:	
  2292                           	line	96
  2293                           	
  2294  0F1B                     l14645:	
  2295                           ;EventHandler.c: 94: }
  2296                           ;EventHandler.c: 95: }
  2297                           ;EventHandler.c: 96: isKeyPressed = 0;
  2298  0F1B  1003               	clrc
  2299  0F1C  3000               	movlw	0
  2300  0F1D  1803               	btfsc	status,0
  2301  0F1E  3001               	movlw	1
  2302  0F1F  1283               	bcf	status, 5	;RP0=0, select bank0
  2303  0F20  1303               	bcf	status, 6	;RP1=0, select bank0
  2304  0F21  00CC               	movwf	(_isKeyPressed)
  2305                           	line	97
  2306                           	
  2307  0F22                     l14647:	
  2308                           ;EventHandler.c: 97: keyPressed = 0;
  2309  0F22  1003               	clrc
  2310  0F23  3000               	movlw	0
  2311  0F24  1803               	btfsc	status,0
  2312  0F25  3001               	movlw	1
  2313  0F26  00CD               	movwf	(_keyPressed)
  2314                           	line	98
  2315                           	
  2316  0F27                     l3592:	
  2317  0F27  0008               	return
  2318                           	opt stack 0
  2319                           GLOBAL	__end_of_IsKeyPressed
  2320  0F28                     	__end_of_IsKeyPressed:
  2321 ;; =============== function _IsKeyPressed ends ============
  2322                           
  2323                           	signat	_IsKeyPressed,88
  2324                           	global	_SettingModeOperations
  2325                           psect	text1637,local,class=CODE,delta=2
  2326                           global __ptext1637
  2327  17D1                     __ptext1637:
  2328                           
  2329 ;; *************** function _SettingModeOperations *****************
  2330 ;; Defined at:
  2331 ;;		line 99 in file "EventHandler.c"
  2332 ;; Parameters:    Size  Location     Type
  2333 ;;  keyPressed      1    wreg     unsigned char 
  2334 ;; Auto vars:     Size  Location     Type
  2335 ;;  keyPressed      1    8[BANK1 ] unsigned char 
  2336 ;; Return value:  Size  Location     Type
  2337 ;;		None               void
  2338 ;; Registers used:
  2339 ;;		wreg, fsr0l, fsr0h, status,2, status,0, btemp+0, btemp+1, pclath, cstack
  2340 ;; Tracked objects:
  2341 ;;		On entry : 0/0
  2342 ;;		On exit  : 0/0
  2343 ;;		Unchanged: 0/0
  2344 ;; Data sizes:     COMMON   BANK0   BANK1   BANK3   BANK2
  2345 ;;      Params:         0       0       0       0       0
  2346 ;;      Locals:         0       0       1       0       0
  2347 ;;      Temps:          0       0       0       0       0
  2348 ;;      Totals:         0       0       1       0       0
  2349 ;;Total ram usage:        1 bytes
  2350 ;; Hardware stack levels used:    1
  2351 ;; Hardware stack levels required when called:   11
  2352 ;; This function calls:
  2353 ;;		_DownButtonHandler
  2354 ;;		_PreviousButtonHandler
  2355 ;;		_UpbuttonHandler
  2356 ;;		_NextButtonHandler
  2357 ;; This function is called by:
  2358 ;;		_IsKeyPressed
  2359 ;; This function uses a non-reentrant model
  2360 ;;
  2361                           psect	text1637
  2362                           	file	"EventHandler.c"
  2363                           	line	99
  2364                           	global	__size_of_SettingModeOperations
  2365  002F                     	__size_of_SettingModeOperations	equ	__end_of_SettingModeOperations-_SettingModeOperatio
                                 ns
  2366                           	
  2367  17D1                     _SettingModeOperations:	
  2368                           	opt	stack 6
  2369                           ; Regs used in _SettingModeOperations: [wreg-fsr0h+status,2-btemp+1+pclath+cstack]
  2370                           ;SettingModeOperations@keyPressed stored from wreg
  2371  17D1  1683               	bsf	status, 5	;RP0=1, select bank1
  2372  17D2  1303               	bcf	status, 6	;RP1=0, select bank1
  2373  17D3  00A8               	movwf	(SettingModeOperations@keyPressed)^080h
  2374                           	line	100
  2375                           	
  2376  17D4                     l14577:	
  2377                           ;EventHandler.c: 100: switch (keyPressed) {
  2378  17D4  2FEF               	goto	l3595
  2379                           	line	101
  2380                           ;EventHandler.c: 101: case 1:
  2381                           	
  2382  17D5                     l3596:	
  2383                           	line	104
  2384                           	
  2385  17D5                     l14579:	
  2386                           ;EventHandler.c: 104: DownButtonHandler();
  2387  17D5  120A  158A  2418   	fcall	_DownButtonHandler
              160A  118A         
  2388                           	line	105
  2389                           ;EventHandler.c: 105: break;
  2390  17DA  2FFF               	goto	l3597
  2391                           	line	107
  2392                           ;EventHandler.c: 107: case 2:
  2393                           	
  2394  17DB                     l3598:	
  2395                           	line	109
  2396                           	
  2397  17DB                     l14581:	
  2398                           ;EventHandler.c: 109: PreviousButtonHandler();
  2399  17DB  120A  158A  21A1   	fcall	_PreviousButtonHandler
              160A  118A         
  2400                           	line	111
  2401                           ;EventHandler.c: 111: break;
  2402  17E0  2FFF               	goto	l3597
  2403                           	line	113
  2404                           ;EventHandler.c: 113: case 3:
  2405                           	
  2406  17E1                     l3599:	
  2407                           	line	115
  2408                           	
  2409  17E1                     l14583:	
  2410                           ;EventHandler.c: 115: UpbuttonHandler();
  2411  17E1  120A  158A  2728   	fcall	_UpbuttonHandler
              160A  118A         
  2412                           	line	116
  2413                           ;EventHandler.c: 116: break;
  2414  17E6  2FFF               	goto	l3597
  2415                           	line	118
  2416                           ;EventHandler.c: 118: case 4:
  2417                           	
  2418  17E7                     l3600:	
  2419                           	line	120
  2420                           	
  2421  17E7                     l14585:	
  2422                           ;EventHandler.c: 120: NextButtonHandler();
  2423  17E7  120A  118A  27AD   	fcall	_NextButtonHandler
              160A  118A         
  2424                           	line	121
  2425                           ;EventHandler.c: 121: break;
  2426  17EC  2FFF               	goto	l3597
  2427                           	line	123
  2428                           ;EventHandler.c: 123: default:
  2429                           	
  2430  17ED                     l3601:	
  2431                           	line	125
  2432                           ;EventHandler.c: 125: break;
  2433  17ED  2FFF               	goto	l3597
  2434                           	line	126
  2435                           	
  2436  17EE                     l14587:	
  2437                           ;EventHandler.c: 126: }
  2438  17EE  2FFF               	goto	l3597
  2439                           	line	100
  2440                           	
  2441  17EF                     l3595:	
  2442                           	
  2443  17EF                     l14589:	
  2444  17EF  1683               	bsf	status, 5	;RP0=1, select bank1
  2445  17F0  1303               	bcf	status, 6	;RP1=0, select bank1
  2446  17F1  0828               	movf	(SettingModeOperations@keyPressed)^080h,w
  2447                           	; Switch size 1, requested type "space"
  2448                           ; Number of cases is 4, Range of values is 1 to 4
  2449                           ; switch strategies available:
  2450                           ; Name         Bytes Cycles
  2451                           ; simple_byte    13     7 (average)
  2452                           ; direct_byte    34    22 (fixed)
  2453                           ;	Chosen strategy is simple_byte
  2454                           
  2455  17F2  3A01               	xorlw	1^0	; case 1
  2456  17F3  1903               	skipnz
  2457  17F4  2FD5               	goto	l3596
  2458  17F5  3A03               	xorlw	2^1	; case 2
  2459  17F6  1903               	skipnz
  2460  17F7  2FDB               	goto	l3598
  2461  17F8  3A01               	xorlw	3^2	; case 3
  2462  17F9  1903               	skipnz
  2463  17FA  2FE1               	goto	l3599
  2464  17FB  3A07               	xorlw	4^3	; case 4
  2465  17FC  1903               	skipnz
  2466  17FD  2FE7               	goto	l3600
  2467  17FE  2FED               	goto	l3601
  2468                           
  2469                           	line	126
  2470                           	
  2471  17FF                     l3597:	
  2472                           	line	127
  2473                           	
  2474  17FF                     l3602:	
  2475  17FF  0008               	return
  2476                           	opt stack 0
  2477                           GLOBAL	__end_of_SettingModeOperations
  2478  1800                     	__end_of_SettingModeOperations:
  2479 ;; =============== function _SettingModeOperations ends ============
  2480                           
  2481                           	signat	_SettingModeOperations,4216
  2482                           	global	_NextButtonHandler
  2483                           psect	text1638,local,class=CODE,delta=2
  2484                           global __ptext1638
  2485  07AD                     __ptext1638:
  2486                           
  2487 ;; *************** function _NextButtonHandler *****************
  2488 ;; Defined at:
  2489 ;;		line 38 in file "SettingModeHandler.c"
  2490 ;; Parameters:    Size  Location     Type
  2491 ;;		None
  2492 ;; Auto vars:     Size  Location     Type
  2493 ;;		None
  2494 ;; Return value:  Size  Location     Type
  2495 ;;		None               void
  2496 ;; Registers used:
  2497 ;;		wreg, fsr0l, fsr0h, status,2, status,0, btemp+0, btemp+1, pclath, cstack
  2498 ;; Tracked objects:
  2499 ;;		On entry : 0/0
  2500 ;;		On exit  : 0/0
  2501 ;;		Unchanged: 0/0
  2502 ;; Data sizes:     COMMON   BANK0   BANK1   BANK3   BANK2
  2503 ;;      Params:         0       0       0       0       0
  2504 ;;      Locals:         0       0       0       0       0
  2505 ;;      Temps:          0       0       1       0       0
  2506 ;;      Totals:         0       0       1       0       0
  2507 ;;Total ram usage:        1 bytes
  2508 ;; Hardware stack levels used:    1
  2509 ;; Hardware stack levels required when called:   10
  2510 ;; This function calls:
  2511 ;;		_UpdateScreen
  2512 ;; This function is called by:
  2513 ;;		_SettingModeOperations
  2514 ;; This function uses a non-reentrant model
  2515 ;;
  2516                           psect	text1638
  2517                           	file	"SettingModeHandler.c"
  2518                           	line	38
  2519                           	global	__size_of_NextButtonHandler
  2520  0053                     	__size_of_NextButtonHandler	equ	__end_of_NextButtonHandler-_NextButtonHandler
  2521                           	
  2522  07AD                     _NextButtonHandler:	
  2523                           	opt	stack 5
  2524                           ; Regs used in _NextButtonHandler: [wreg-fsr0h+status,2-btemp+1+pclath+cstack]
  2525                           	line	39
  2526                           	
  2527  07AD                     l14551:	
  2528                           ;SettingModeHandler.c: 39: if (0 == ScreenIndex) {
  2529  07AD  1283               	bcf	status, 5	;RP0=0, select bank0
  2530  07AE  1303               	bcf	status, 6	;RP1=0, select bank0
  2531  07AF  08C5               	movf	(_ScreenIndex),f
  2532  07B0  1D03               	skipz
  2533  07B1  2FB3               	goto	u6711
  2534  07B2  2FB4               	goto	u6710
  2535  07B3                     u6711:
  2536  07B3  2FCF               	goto	l6334
  2537  07B4                     u6710:
  2538                           	line	40
  2539                           	
  2540  07B4                     l14553:	
  2541                           ;SettingModeHandler.c: 40: if (0 == ParameterIndex) {
  2542  07B4  08C4               	movf	(_ParameterIndex),f
  2543  07B5  1D03               	skipz
  2544  07B6  2FB8               	goto	u6721
  2545  07B7  2FB9               	goto	u6720
  2546  07B8                     u6721:
  2547  07B8  2FBD               	goto	l6335
  2548  07B9                     u6720:
  2549                           	line	41
  2550                           	
  2551  07B9                     l14555:	
  2552                           ;SettingModeHandler.c: 41: ParameterIndex = 1;
  2553  07B9  01C4               	clrf	(_ParameterIndex)
  2554  07BA  1403               	bsf	status,0
  2555  07BB  0DC4               	rlf	(_ParameterIndex),f
  2556                           	line	42
  2557                           ;SettingModeHandler.c: 42: } else if (1 == ParameterIndex) {
  2558  07BC  2FCE               	goto	l6336
  2559                           	
  2560  07BD                     l6335:	
  2561                           	
  2562  07BD                     l14557:	
  2563  07BD  0844               	movf	(_ParameterIndex),w
  2564  07BE  3A01               	xorlw	01h
  2565  07BF  1D03               	skipz
  2566  07C0  2FC2               	goto	u6731
  2567  07C1  2FC3               	goto	u6730
  2568  07C2                     u6731:
  2569  07C2  2FCE               	goto	l6337
  2570  07C3                     u6730:
  2571                           	line	43
  2572                           	
  2573  07C3                     l14559:	
  2574                           ;SettingModeHandler.c: 43: ParameterIndex = 3;
  2575  07C3  3003               	movlw	(03h)
  2576  07C4  1683               	bsf	status, 5	;RP0=1, select bank1
  2577  07C5  1303               	bcf	status, 6	;RP1=0, select bank1
  2578  07C6  00A5               	movwf	(??_NextButtonHandler+0)^080h+0
  2579  07C7  0825               	movf	(??_NextButtonHandler+0)^080h+0,w
  2580  07C8  1283               	bcf	status, 5	;RP0=0, select bank0
  2581  07C9  1303               	bcf	status, 6	;RP1=0, select bank0
  2582  07CA  00C4               	movwf	(_ParameterIndex)
  2583                           	line	44
  2584                           	
  2585  07CB                     l14561:	
  2586                           ;SettingModeHandler.c: 44: ScreenIndex = 1;
  2587  07CB  01C5               	clrf	(_ScreenIndex)
  2588  07CC  1403               	bsf	status,0
  2589  07CD  0DC5               	rlf	(_ScreenIndex),f
  2590                           	line	45
  2591                           	
  2592  07CE                     l6337:	
  2593                           	line	46
  2594                           	
  2595  07CE                     l6336:	
  2596                           ;SettingModeHandler.c: 45: }
  2597                           ;SettingModeHandler.c: 46: } else if (1 == ScreenIndex) {
  2598  07CE  2FF9               	goto	l6338
  2599                           	
  2600  07CF                     l6334:	
  2601                           	
  2602  07CF                     l14563:	
  2603  07CF  0845               	movf	(_ScreenIndex),w
  2604  07D0  3A01               	xorlw	01h
  2605  07D1  1D03               	skipz
  2606  07D2  2FD4               	goto	u6741
  2607  07D3  2FD5               	goto	u6740
  2608  07D4                     u6741:
  2609  07D4  2FF3               	goto	l6339
  2610  07D5                     u6740:
  2611                           	line	47
  2612                           	
  2613  07D5                     l14565:	
  2614                           ;SettingModeHandler.c: 47: if (3 == ParameterIndex) {
  2615  07D5  0844               	movf	(_ParameterIndex),w
  2616  07D6  3A03               	xorlw	03h
  2617  07D7  1D03               	skipz
  2618  07D8  2FDA               	goto	u6751
  2619  07D9  2FDB               	goto	u6750
  2620  07DA                     u6751:
  2621  07DA  2FE4               	goto	l6340
  2622  07DB                     u6750:
  2623                           	line	48
  2624                           	
  2625  07DB                     l14567:	
  2626                           ;SettingModeHandler.c: 48: ParameterIndex = 4;
  2627  07DB  3004               	movlw	(04h)
  2628  07DC  1683               	bsf	status, 5	;RP0=1, select bank1
  2629  07DD  1303               	bcf	status, 6	;RP1=0, select bank1
  2630  07DE  00A5               	movwf	(??_NextButtonHandler+0)^080h+0
  2631  07DF  0825               	movf	(??_NextButtonHandler+0)^080h+0,w
  2632  07E0  1283               	bcf	status, 5	;RP0=0, select bank0
  2633  07E1  1303               	bcf	status, 6	;RP1=0, select bank0
  2634  07E2  00C4               	movwf	(_ParameterIndex)
  2635                           	line	49
  2636                           ;SettingModeHandler.c: 49: } else if (4 == ParameterIndex) {
  2637  07E3  2FF2               	goto	l6341
  2638                           	
  2639  07E4                     l6340:	
  2640                           	
  2641  07E4                     l14569:	
  2642  07E4  0844               	movf	(_ParameterIndex),w
  2643  07E5  3A04               	xorlw	04h
  2644  07E6  1D03               	skipz
  2645  07E7  2FE9               	goto	u6761
  2646  07E8  2FEA               	goto	u6760
  2647  07E9                     u6761:
  2648  07E9  2FF2               	goto	l6342
  2649  07EA                     u6760:
  2650                           	line	50
  2651                           	
  2652  07EA                     l14571:	
  2653                           ;SettingModeHandler.c: 50: ScreenIndex = 2;
  2654  07EA  3002               	movlw	(02h)
  2655  07EB  1683               	bsf	status, 5	;RP0=1, select bank1
  2656  07EC  1303               	bcf	status, 6	;RP1=0, select bank1
  2657  07ED  00A5               	movwf	(??_NextButtonHandler+0)^080h+0
  2658  07EE  0825               	movf	(??_NextButtonHandler+0)^080h+0,w
  2659  07EF  1283               	bcf	status, 5	;RP0=0, select bank0
  2660  07F0  1303               	bcf	status, 6	;RP1=0, select bank0
  2661  07F1  00C5               	movwf	(_ScreenIndex)
  2662                           	line	51
  2663                           	
  2664  07F2                     l6342:	
  2665                           	line	53
  2666                           	
  2667  07F2                     l6341:	
  2668                           ;SettingModeHandler.c: 51: }
  2669                           ;SettingModeHandler.c: 53: } else if (2 == ScreenIndex) {
  2670  07F2  2FF9               	goto	l6343
  2671                           	
  2672  07F3                     l6339:	
  2673                           	
  2674  07F3                     l14573:	
  2675  07F3  0845               	movf	(_ScreenIndex),w
  2676  07F4  3A02               	xorlw	02h
  2677  07F5  1D03               	skipz
  2678  07F6  2FF8               	goto	u6771
  2679  07F7  2FF9               	goto	u6770
  2680  07F8                     u6771:
  2681  07F8  2FF9               	goto	l6344
  2682  07F9                     u6770:
  2683                           	line	55
  2684                           	
  2685  07F9                     l6344:	
  2686                           	line	58
  2687                           	
  2688  07F9                     l6343:	
  2689                           	
  2690  07F9                     l6338:	
  2691                           	
  2692  07F9                     l14575:	
  2693                           ;SettingModeHandler.c: 55: }
  2694                           ;SettingModeHandler.c: 58: UpdateScreen(1);
  2695  07F9  3001               	movlw	(01h)
  2696  07FA  120A  118A  25CD   	fcall	_UpdateScreen
              120A  118A         
  2697                           	line	59
  2698                           	
  2699  07FF                     l6345:	
  2700  07FF  0008               	return
  2701                           	opt stack 0
  2702                           GLOBAL	__end_of_NextButtonHandler
  2703  0800                     	__end_of_NextButtonHandler:
  2704 ;; =============== function _NextButtonHandler ends ============
  2705                           
  2706                           	signat	_NextButtonHandler,88
  2707                           	global	_UpbuttonHandler
  2708                           psect	text1639,local,class=CODE,delta=2
  2709                           global __ptext1639
  2710  0F28                     __ptext1639:
  2711                           
  2712 ;; *************** function _UpbuttonHandler *****************
  2713 ;; Defined at:
  2714 ;;		line 61 in file "SettingModeHandler.c"
  2715 ;; Parameters:    Size  Location     Type
  2716 ;;		None
  2717 ;; Auto vars:     Size  Location     Type
  2718 ;;		None
  2719 ;; Return value:  Size  Location     Type
  2720 ;;		None               void
  2721 ;; Registers used:
  2722 ;;		wreg, fsr0l, fsr0h, status,2, status,0, btemp+0, btemp+1, pclath, cstack
  2723 ;; Tracked objects:
  2724 ;;		On entry : 0/0
  2725 ;;		On exit  : 0/0
  2726 ;;		Unchanged: 0/0
  2727 ;; Data sizes:     COMMON   BANK0   BANK1   BANK3   BANK2
  2728 ;;      Params:         0       0       0       0       0
  2729 ;;      Locals:         0       0       0       0       0
  2730 ;;      Temps:          0       0       3       0       0
  2731 ;;      Totals:         0       0       3       0       0
  2732 ;;Total ram usage:        3 bytes
  2733 ;; Hardware stack levels used:    1
  2734 ;; Hardware stack levels required when called:   10
  2735 ;; This function calls:
  2736 ;;		_lcd_writeThisStringAt
  2737 ;;		_UpdateScreen
  2738 ;; This function is called by:
  2739 ;;		_SettingModeOperations
  2740 ;; This function uses a non-reentrant model
  2741 ;;
  2742                           psect	text1639
  2743                           	file	"SettingModeHandler.c"
  2744                           	line	61
  2745                           	global	__size_of_UpbuttonHandler
  2746  00D8                     	__size_of_UpbuttonHandler	equ	__end_of_UpbuttonHandler-_UpbuttonHandler
  2747                           	
  2748  0F28                     _UpbuttonHandler:	
  2749                           	opt	stack 5
  2750                           ; Regs used in _UpbuttonHandler: [wreg-fsr0h+status,2-btemp+1+pclath+cstack]
  2751                           	line	64
  2752                           	
  2753  0F28                     l14507:	
  2754                           ;SettingModeHandler.c: 64: if ((0 == ParameterIndex) && (0 == ScreenIndex)) {
  2755  0F28  1283               	bcf	status, 5	;RP0=0, select bank0
  2756  0F29  1303               	bcf	status, 6	;RP1=0, select bank0
  2757  0F2A  08C4               	movf	(_ParameterIndex),f
  2758  0F2B  1D03               	skipz
  2759  0F2C  2F2E               	goto	u6581
  2760  0F2D  2F2F               	goto	u6580
  2761  0F2E                     u6581:
  2762  0F2E  2F44               	goto	l6348
  2763  0F2F                     u6580:
  2764                           	
  2765  0F2F                     l14509:	
  2766  0F2F  08C5               	movf	(_ScreenIndex),f
  2767  0F30  1D03               	skipz
  2768  0F31  2F33               	goto	u6591
  2769  0F32  2F34               	goto	u6590
  2770  0F33                     u6591:
  2771  0F33  2F44               	goto	l6348
  2772  0F34                     u6590:
  2773                           	line	65
  2774                           	
  2775  0F34                     l14511:	
  2776                           ;SettingModeHandler.c: 65: if (CurrentTeaQuantity <= 15)
  2777  0F34  3010               	movlw	(010h)
  2778  0F35  0241               	subwf	(_CurrentTeaQuantity),w
  2779  0F36  1803               	skipnc
  2780  0F37  2F39               	goto	u6601
  2781  0F38  2F3A               	goto	u6600
  2782  0F39                     u6601:
  2783  0F39  2F43               	goto	l6349
  2784  0F3A                     u6600:
  2785                           	line	67
  2786                           	
  2787  0F3A                     l14513:	
  2788                           ;SettingModeHandler.c: 66: {
  2789                           ;SettingModeHandler.c: 67: CurrentTeaQuantity = CurrentTeaQuantity + 1;
  2790  0F3A  0841               	movf	(_CurrentTeaQuantity),w
  2791  0F3B  3E01               	addlw	01h
  2792  0F3C  1683               	bsf	status, 5	;RP0=1, select bank1
  2793  0F3D  1303               	bcf	status, 6	;RP1=0, select bank1
  2794  0F3E  00A5               	movwf	(??_UpbuttonHandler+0)^080h+0
  2795  0F3F  0825               	movf	(??_UpbuttonHandler+0)^080h+0,w
  2796  0F40  1283               	bcf	status, 5	;RP0=0, select bank0
  2797  0F41  1303               	bcf	status, 6	;RP1=0, select bank0
  2798  0F42  00C1               	movwf	(_CurrentTeaQuantity)
  2799                           	line	68
  2800                           	
  2801  0F43                     l6349:	
  2802                           	line	69
  2803                           ;SettingModeHandler.c: 68: }
  2804                           ;SettingModeHandler.c: 69: } else if ((1 == ParameterIndex) && (0 == ScreenIndex)) {
  2805  0F43  2FF9               	goto	l6350
  2806                           	
  2807  0F44                     l6348:	
  2808                           	
  2809  0F44                     l14515:	
  2810  0F44  0844               	movf	(_ParameterIndex),w
  2811  0F45  3A01               	xorlw	01h
  2812  0F46  1D03               	skipz
  2813  0F47  2F49               	goto	u6611
  2814  0F48  2F4A               	goto	u6610
  2815  0F49                     u6611:
  2816  0F49  2F5F               	goto	l6351
  2817  0F4A                     u6610:
  2818                           	
  2819  0F4A                     l14517:	
  2820  0F4A  08C5               	movf	(_ScreenIndex),f
  2821  0F4B  1D03               	skipz
  2822  0F4C  2F4E               	goto	u6621
  2823  0F4D  2F4F               	goto	u6620
  2824  0F4E                     u6621:
  2825  0F4E  2F5F               	goto	l6351
  2826  0F4F                     u6620:
  2827                           	line	70
  2828                           	
  2829  0F4F                     l14519:	
  2830                           ;SettingModeHandler.c: 70: if (CurrentWaterQuantity_forTea <= 15) {
  2831  0F4F  3010               	movlw	(010h)
  2832  0F50  0243               	subwf	(_CurrentWaterQuantity_forTea),w
  2833  0F51  1803               	skipnc
  2834  0F52  2F54               	goto	u6631
  2835  0F53  2F55               	goto	u6630
  2836  0F54                     u6631:
  2837  0F54  2F5E               	goto	l6352
  2838  0F55                     u6630:
  2839                           	line	71
  2840                           	
  2841  0F55                     l14521:	
  2842                           ;SettingModeHandler.c: 71: CurrentWaterQuantity_forTea = CurrentWaterQuantity_forTea + 1
                                 ;
  2843  0F55  0843               	movf	(_CurrentWaterQuantity_forTea),w
  2844  0F56  3E01               	addlw	01h
  2845  0F57  1683               	bsf	status, 5	;RP0=1, select bank1
  2846  0F58  1303               	bcf	status, 6	;RP1=0, select bank1
  2847  0F59  00A5               	movwf	(??_UpbuttonHandler+0)^080h+0
  2848  0F5A  0825               	movf	(??_UpbuttonHandler+0)^080h+0,w
  2849  0F5B  1283               	bcf	status, 5	;RP0=0, select bank0
  2850  0F5C  1303               	bcf	status, 6	;RP1=0, select bank0
  2851  0F5D  00C3               	movwf	(_CurrentWaterQuantity_forTea)
  2852                           	line	72
  2853                           	
  2854  0F5E                     l6352:	
  2855                           	line	73
  2856                           ;SettingModeHandler.c: 72: }
  2857                           ;SettingModeHandler.c: 73: } else if ((3 == ParameterIndex) && (1 == ScreenIndex)) {
  2858  0F5E  2FF9               	goto	l6353
  2859                           	
  2860  0F5F                     l6351:	
  2861                           	
  2862  0F5F                     l14523:	
  2863  0F5F  0844               	movf	(_ParameterIndex),w
  2864  0F60  3A03               	xorlw	03h
  2865  0F61  1D03               	skipz
  2866  0F62  2F64               	goto	u6641
  2867  0F63  2F65               	goto	u6640
  2868  0F64                     u6641:
  2869  0F64  2F7B               	goto	l6354
  2870  0F65                     u6640:
  2871                           	
  2872  0F65                     l14525:	
  2873  0F65  0845               	movf	(_ScreenIndex),w
  2874  0F66  3A01               	xorlw	01h
  2875  0F67  1D03               	skipz
  2876  0F68  2F6A               	goto	u6651
  2877  0F69  2F6B               	goto	u6650
  2878  0F6A                     u6651:
  2879  0F6A  2F7B               	goto	l6354
  2880  0F6B                     u6650:
  2881                           	line	74
  2882                           	
  2883  0F6B                     l14527:	
  2884                           ;SettingModeHandler.c: 74: if (CurrentCoffeeQuantity <= 15) {
  2885  0F6B  3010               	movlw	(010h)
  2886  0F6C  0240               	subwf	(_CurrentCoffeeQuantity),w
  2887  0F6D  1803               	skipnc
  2888  0F6E  2F70               	goto	u6661
  2889  0F6F  2F71               	goto	u6660
  2890  0F70                     u6661:
  2891  0F70  2F7A               	goto	l6355
  2892  0F71                     u6660:
  2893                           	line	75
  2894                           	
  2895  0F71                     l14529:	
  2896                           ;SettingModeHandler.c: 75: CurrentCoffeeQuantity = CurrentCoffeeQuantity + 1;
  2897  0F71  0840               	movf	(_CurrentCoffeeQuantity),w
  2898  0F72  3E01               	addlw	01h
  2899  0F73  1683               	bsf	status, 5	;RP0=1, select bank1
  2900  0F74  1303               	bcf	status, 6	;RP1=0, select bank1
  2901  0F75  00A5               	movwf	(??_UpbuttonHandler+0)^080h+0
  2902  0F76  0825               	movf	(??_UpbuttonHandler+0)^080h+0,w
  2903  0F77  1283               	bcf	status, 5	;RP0=0, select bank0
  2904  0F78  1303               	bcf	status, 6	;RP1=0, select bank0
  2905  0F79  00C0               	movwf	(_CurrentCoffeeQuantity)
  2906                           	line	76
  2907                           	
  2908  0F7A                     l6355:	
  2909                           	line	77
  2910                           ;SettingModeHandler.c: 76: }
  2911                           ;SettingModeHandler.c: 77: } else if ((4 == ParameterIndex) && (1 == ScreenIndex)) {
  2912  0F7A  2FF9               	goto	l6356
  2913                           	
  2914  0F7B                     l6354:	
  2915                           	
  2916  0F7B                     l14531:	
  2917  0F7B  0844               	movf	(_ParameterIndex),w
  2918  0F7C  3A04               	xorlw	04h
  2919  0F7D  1D03               	skipz
  2920  0F7E  2F80               	goto	u6671
  2921  0F7F  2F81               	goto	u6670
  2922  0F80                     u6671:
  2923  0F80  2F97               	goto	l6357
  2924  0F81                     u6670:
  2925                           	
  2926  0F81                     l14533:	
  2927  0F81  0845               	movf	(_ScreenIndex),w
  2928  0F82  3A01               	xorlw	01h
  2929  0F83  1D03               	skipz
  2930  0F84  2F86               	goto	u6681
  2931  0F85  2F87               	goto	u6680
  2932  0F86                     u6681:
  2933  0F86  2F97               	goto	l6357
  2934  0F87                     u6680:
  2935                           	line	78
  2936                           	
  2937  0F87                     l14535:	
  2938                           ;SettingModeHandler.c: 78: if (CurrentWaterQuantity_forCoffee <= 15) {
  2939  0F87  3010               	movlw	(010h)
  2940  0F88  0242               	subwf	(_CurrentWaterQuantity_forCoffee),w
  2941  0F89  1803               	skipnc
  2942  0F8A  2F8C               	goto	u6691
  2943  0F8B  2F8D               	goto	u6690
  2944  0F8C                     u6691:
  2945  0F8C  2F96               	goto	l6358
  2946  0F8D                     u6690:
  2947                           	line	79
  2948                           	
  2949  0F8D                     l14537:	
  2950                           ;SettingModeHandler.c: 79: CurrentWaterQuantity_forCoffee = CurrentWaterQuantity_forCoff
                                 ee + 1;
  2951  0F8D  0842               	movf	(_CurrentWaterQuantity_forCoffee),w
  2952  0F8E  3E01               	addlw	01h
  2953  0F8F  1683               	bsf	status, 5	;RP0=1, select bank1
  2954  0F90  1303               	bcf	status, 6	;RP1=0, select bank1
  2955  0F91  00A5               	movwf	(??_UpbuttonHandler+0)^080h+0
  2956  0F92  0825               	movf	(??_UpbuttonHandler+0)^080h+0,w
  2957  0F93  1283               	bcf	status, 5	;RP0=0, select bank0
  2958  0F94  1303               	bcf	status, 6	;RP1=0, select bank0
  2959  0F95  00C2               	movwf	(_CurrentWaterQuantity_forCoffee)
  2960                           	line	80
  2961                           	
  2962  0F96                     l6358:	
  2963                           	line	82
  2964                           ;SettingModeHandler.c: 80: }
  2965                           ;SettingModeHandler.c: 82: } else if (2 == ScreenIndex) {
  2966  0F96  2FF9               	goto	l6359
  2967                           	
  2968  0F97                     l6357:	
  2969                           	
  2970  0F97                     l14539:	
  2971  0F97  0845               	movf	(_ScreenIndex),w
  2972  0F98  3A02               	xorlw	02h
  2973  0F99  1D03               	skipz
  2974  0F9A  2F9C               	goto	u6701
  2975  0F9B  2F9D               	goto	u6700
  2976  0F9C                     u6701:
  2977  0F9C  2FF9               	goto	l6360
  2978  0F9D                     u6700:
  2979                           	line	83
  2980                           	
  2981  0F9D                     l14541:	
  2982                           ;SettingModeHandler.c: 83: CurrentCoffeeQuantity = 0x10;
  2983  0F9D  3010               	movlw	(010h)
  2984  0F9E  1683               	bsf	status, 5	;RP0=1, select bank1
  2985  0F9F  1303               	bcf	status, 6	;RP1=0, select bank1
  2986  0FA0  00A5               	movwf	(??_UpbuttonHandler+0)^080h+0
  2987  0FA1  0825               	movf	(??_UpbuttonHandler+0)^080h+0,w
  2988  0FA2  1283               	bcf	status, 5	;RP0=0, select bank0
  2989  0FA3  1303               	bcf	status, 6	;RP1=0, select bank0
  2990  0FA4  00C0               	movwf	(_CurrentCoffeeQuantity)
  2991                           	line	84
  2992                           ;SettingModeHandler.c: 84: CurrentWaterQuantity_forCoffee = 0x10;
  2993  0FA5  3010               	movlw	(010h)
  2994  0FA6  1683               	bsf	status, 5	;RP0=1, select bank1
  2995  0FA7  1303               	bcf	status, 6	;RP1=0, select bank1
  2996  0FA8  00A5               	movwf	(??_UpbuttonHandler+0)^080h+0
  2997  0FA9  0825               	movf	(??_UpbuttonHandler+0)^080h+0,w
  2998  0FAA  1283               	bcf	status, 5	;RP0=0, select bank0
  2999  0FAB  1303               	bcf	status, 6	;RP1=0, select bank0
  3000  0FAC  00C2               	movwf	(_CurrentWaterQuantity_forCoffee)
  3001                           	line	85
  3002                           ;SettingModeHandler.c: 85: CurrentTeaQuantity = 0x10;
  3003  0FAD  3010               	movlw	(010h)
  3004  0FAE  1683               	bsf	status, 5	;RP0=1, select bank1
  3005  0FAF  1303               	bcf	status, 6	;RP1=0, select bank1
  3006  0FB0  00A5               	movwf	(??_UpbuttonHandler+0)^080h+0
  3007  0FB1  0825               	movf	(??_UpbuttonHandler+0)^080h+0,w
  3008  0FB2  1283               	bcf	status, 5	;RP0=0, select bank0
  3009  0FB3  1303               	bcf	status, 6	;RP1=0, select bank0
  3010  0FB4  00C1               	movwf	(_CurrentTeaQuantity)
  3011                           	line	86
  3012                           ;SettingModeHandler.c: 86: CurrentWaterQuantity_forTea = 0x10;
  3013  0FB5  3010               	movlw	(010h)
  3014  0FB6  1683               	bsf	status, 5	;RP0=1, select bank1
  3015  0FB7  1303               	bcf	status, 6	;RP1=0, select bank1
  3016  0FB8  00A5               	movwf	(??_UpbuttonHandler+0)^080h+0
  3017  0FB9  0825               	movf	(??_UpbuttonHandler+0)^080h+0,w
  3018  0FBA  1283               	bcf	status, 5	;RP0=0, select bank0
  3019  0FBB  1303               	bcf	status, 6	;RP1=0, select bank0
  3020  0FBC  00C3               	movwf	(_CurrentWaterQuantity_forTea)
  3021                           	line	88
  3022                           	
  3023  0FBD                     l14543:	
  3024                           ;SettingModeHandler.c: 88: lcd_writeThisStringAt(1,0,"DEFAULT UPDATED");
  3025  0FBD  1003               	clrc
  3026  0FBE  3000               	movlw	0
  3027  0FBF  1803               	btfsc	status,0
  3028  0FC0  3001               	movlw	1
  3029  0FC1  00B4               	movwf	(?_lcd_writeThisStringAt)
  3030  0FC2  3033               	movlw	low((STR_7-__stringbase))
  3031  0FC3  00B5               	movwf	(0+?_lcd_writeThisStringAt+01h)
  3032  0FC4  3080               	movlw	80h
  3033  0FC5  00B6               	movwf	(1+?_lcd_writeThisStringAt+01h)
  3034  0FC6  3001               	movlw	(01h)
  3035  0FC7  160A  118A  25F1   	fcall	_lcd_writeThisStringAt
              120A  158A         
  3036                           	line	89
  3037                           	
  3038  0FCC                     l14545:	
  3039                           ;SettingModeHandler.c: 89: _delay((unsigned long)((2000)*(20000000/4000.0)));
  3040                           	opt asmopt_off
  3041  0FCC  3033               movlw  51
  3042  0FCD  1683               	bsf	status, 5	;RP0=1, select bank1
  3043  0FCE  1303               	bcf	status, 6	;RP1=0, select bank1
  3044  0FCF  00A7               movwf	((??_UpbuttonHandler+0)^080h+0+2),f
  3045  0FD0  3089               movlw	137
  3046  0FD1  00A6               movwf	((??_UpbuttonHandler+0)^080h+0+1),f
  3047  0FD2  3000               	movlw	256
  3048  0FD3  00A5               movwf	((??_UpbuttonHandler+0)^080h+0),f
  3049  0FD4                     u6967:
  3050  0FD4  0BA5               	decfsz	((??_UpbuttonHandler+0)^080h+0),f
  3051  0FD5  2FD4               	goto	u6967
  3052  0FD6  0BA6               	decfsz	((??_UpbuttonHandler+0)^080h+0+1),f
  3053  0FD7  2FD4               	goto	u6967
  3054  0FD8  0BA7               	decfsz	((??_UpbuttonHandler+0)^080h+0+2),f
  3055  0FD9  2FD4               	goto	u6967
  3056                           opt asmopt_on
  3057                           
  3058                           	line	90
  3059                           ;SettingModeHandler.c: 90: lcd_writeThisStringAt(1,0,"PRESS EXIT KEY");
  3060  0FDA  1003               	clrc
  3061  0FDB  3000               	movlw	0
  3062  0FDC  1803               	btfsc	status,0
  3063  0FDD  3001               	movlw	1
  3064  0FDE  1283               	bcf	status, 5	;RP0=0, select bank0
  3065  0FDF  1303               	bcf	status, 6	;RP1=0, select bank0
  3066  0FE0  00B4               	movwf	(?_lcd_writeThisStringAt)
  3067  0FE1  3062               	movlw	low((STR_8-__stringbase))
  3068  0FE2  00B5               	movwf	(0+?_lcd_writeThisStringAt+01h)
  3069  0FE3  3080               	movlw	80h
  3070  0FE4  00B6               	movwf	(1+?_lcd_writeThisStringAt+01h)
  3071  0FE5  3001               	movlw	(01h)
  3072  0FE6  160A  118A  25F1   	fcall	_lcd_writeThisStringAt
              120A  158A         
  3073                           	line	91
  3074                           	
  3075  0FEB                     l14547:	
  3076                           ;SettingModeHandler.c: 91: _delay((unsigned long)((2000)*(20000000/4000.0)));
  3077                           	opt asmopt_off
  3078  0FEB  3033               movlw  51
  3079  0FEC  1683               	bsf	status, 5	;RP0=1, select bank1
  3080  0FED  1303               	bcf	status, 6	;RP1=0, select bank1
  3081  0FEE  00A7               movwf	((??_UpbuttonHandler+0)^080h+0+2),f
  3082  0FEF  3089               movlw	137
  3083  0FF0  00A6               movwf	((??_UpbuttonHandler+0)^080h+0+1),f
  3084  0FF1  3000               	movlw	256
  3085  0FF2  00A5               movwf	((??_UpbuttonHandler+0)^080h+0),f
  3086  0FF3                     u6977:
  3087  0FF3  0BA5               	decfsz	((??_UpbuttonHandler+0)^080h+0),f
  3088  0FF4  2FF3               	goto	u6977
  3089  0FF5  0BA6               	decfsz	((??_UpbuttonHandler+0)^080h+0+1),f
  3090  0FF6  2FF3               	goto	u6977
  3091  0FF7  0BA7               	decfsz	((??_UpbuttonHandler+0)^080h+0+2),f
  3092  0FF8  2FF3               	goto	u6977
  3093                           opt asmopt_on
  3094                           
  3095                           	line	93
  3096                           ;SettingModeHandler.c: 92: break;
  3097                           	
  3098  0FF9                     l6360:	
  3099                           	line	94
  3100                           	
  3101  0FF9                     l6359:	
  3102                           	
  3103  0FF9                     l6356:	
  3104                           	
  3105  0FF9                     l6353:	
  3106                           	
  3107  0FF9                     l6350:	
  3108                           	
  3109  0FF9                     l14549:	
  3110                           ;SettingModeHandler.c: 93: }
  3111                           ;SettingModeHandler.c: 94: UpdateScreen(0);
  3112  0FF9  3000               	movlw	(0)
  3113  0FFA  120A  118A  25CD   	fcall	_UpdateScreen
              120A  158A         
  3114                           	line	95
  3115                           	
  3116  0FFF                     l6361:	
  3117  0FFF  0008               	return
  3118                           	opt stack 0
  3119                           GLOBAL	__end_of_UpbuttonHandler
  3120  1000                     	__end_of_UpbuttonHandler:
  3121 ;; =============== function _UpbuttonHandler ends ============
  3122                           
  3123                           	signat	_UpbuttonHandler,88
  3124                           	global	_PreviousButtonHandler
  3125                           psect	text1640,local,class=CODE,delta=2
  3126                           global __ptext1640
  3127  09A1                     __ptext1640:
  3128                           
  3129 ;; *************** function _PreviousButtonHandler *****************
  3130 ;; Defined at:
  3131 ;;		line 17 in file "SettingModeHandler.c"
  3132 ;; Parameters:    Size  Location     Type
  3133 ;;		None
  3134 ;; Auto vars:     Size  Location     Type
  3135 ;;		None
  3136 ;; Return value:  Size  Location     Type
  3137 ;;		None               void
  3138 ;; Registers used:
  3139 ;;		wreg, fsr0l, fsr0h, status,2, status,0, btemp+0, btemp+1, pclath, cstack
  3140 ;; Tracked objects:
  3141 ;;		On entry : 0/0
  3142 ;;		On exit  : 0/0
  3143 ;;		Unchanged: 0/0
  3144 ;; Data sizes:     COMMON   BANK0   BANK1   BANK3   BANK2
  3145 ;;      Params:         0       0       0       0       0
  3146 ;;      Locals:         0       0       0       0       0
  3147 ;;      Temps:          0       0       1       0       0
  3148 ;;      Totals:         0       0       1       0       0
  3149 ;;Total ram usage:        1 bytes
  3150 ;; Hardware stack levels used:    1
  3151 ;; Hardware stack levels required when called:   10
  3152 ;; This function calls:
  3153 ;;		_UpdateScreen
  3154 ;; This function is called by:
  3155 ;;		_SettingModeOperations
  3156 ;; This function uses a non-reentrant model
  3157 ;;
  3158                           psect	text1640
  3159                           	file	"SettingModeHandler.c"
  3160                           	line	17
  3161                           	global	__size_of_PreviousButtonHandler
  3162  004D                     	__size_of_PreviousButtonHandler	equ	__end_of_PreviousButtonHandler-_PreviousButtonHandl
                                 er
  3163                           	
  3164  09A1                     _PreviousButtonHandler:	
  3165                           	opt	stack 5
  3166                           ; Regs used in _PreviousButtonHandler: [wreg-fsr0h+status,2-btemp+1+pclath+cstack]
  3167                           	line	18
  3168                           	
  3169  09A1                     l14479:	
  3170                           ;SettingModeHandler.c: 18: if (0 == ScreenIndex) {
  3171  09A1  1283               	bcf	status, 5	;RP0=0, select bank0
  3172  09A2  1303               	bcf	status, 6	;RP1=0, select bank0
  3173  09A3  08C5               	movf	(_ScreenIndex),f
  3174  09A4  1D03               	skipz
  3175  09A5  29A7               	goto	u6511
  3176  09A6  29A8               	goto	u6510
  3177  09A7                     u6511:
  3178  09A7  29BA               	goto	l6320
  3179  09A8                     u6510:
  3180                           	line	19
  3181                           	
  3182  09A8                     l14481:	
  3183                           ;SettingModeHandler.c: 19: if (0 == ParameterIndex) {
  3184  09A8  08C4               	movf	(_ParameterIndex),f
  3185  09A9  1D03               	skipz
  3186  09AA  29AC               	goto	u6521
  3187  09AB  29AD               	goto	u6520
  3188  09AC                     u6521:
  3189  09AC  29AE               	goto	l6321
  3190  09AD                     u6520:
  3191                           	line	21
  3192                           	
  3193  09AD                     l14483:	
  3194                           ;SettingModeHandler.c: 21: } else if (1 == ParameterIndex) {
  3195  09AD  29B9               	goto	l6322
  3196                           	
  3197  09AE                     l6321:	
  3198                           	
  3199  09AE                     l14485:	
  3200  09AE  0844               	movf	(_ParameterIndex),w
  3201  09AF  3A01               	xorlw	01h
  3202  09B0  1D03               	skipz
  3203  09B1  29B3               	goto	u6531
  3204  09B2  29B4               	goto	u6530
  3205  09B3                     u6531:
  3206  09B3  29B9               	goto	l6323
  3207  09B4                     u6530:
  3208                           	line	22
  3209                           	
  3210  09B4                     l14487:	
  3211                           ;SettingModeHandler.c: 22: ParameterIndex = 0;
  3212  09B4  1003               	clrc
  3213  09B5  3000               	movlw	0
  3214  09B6  1803               	btfsc	status,0
  3215  09B7  3001               	movlw	1
  3216  09B8  00C4               	movwf	(_ParameterIndex)
  3217                           	line	23
  3218                           	
  3219  09B9                     l6323:	
  3220                           	line	24
  3221                           	
  3222  09B9                     l6322:	
  3223                           ;SettingModeHandler.c: 23: }
  3224                           ;SettingModeHandler.c: 24: } else if (1 == ScreenIndex) {
  3225  09B9  29E7               	goto	l6324
  3226                           	
  3227  09BA                     l6320:	
  3228                           	
  3229  09BA                     l14489:	
  3230  09BA  0845               	movf	(_ScreenIndex),w
  3231  09BB  3A01               	xorlw	01h
  3232  09BC  1D03               	skipz
  3233  09BD  29BF               	goto	u6541
  3234  09BE  29C0               	goto	u6540
  3235  09BF                     u6541:
  3236  09BF  29DE               	goto	l6325
  3237  09C0                     u6540:
  3238                           	line	25
  3239                           	
  3240  09C0                     l14491:	
  3241                           ;SettingModeHandler.c: 25: if (4 == ParameterIndex) {
  3242  09C0  0844               	movf	(_ParameterIndex),w
  3243  09C1  3A04               	xorlw	04h
  3244  09C2  1D03               	skipz
  3245  09C3  29C5               	goto	u6551
  3246  09C4  29C6               	goto	u6550
  3247  09C5                     u6551:
  3248  09C5  29CF               	goto	l6326
  3249  09C6                     u6550:
  3250                           	line	26
  3251                           	
  3252  09C6                     l14493:	
  3253                           ;SettingModeHandler.c: 26: ParameterIndex = 3;
  3254  09C6  3003               	movlw	(03h)
  3255  09C7  1683               	bsf	status, 5	;RP0=1, select bank1
  3256  09C8  1303               	bcf	status, 6	;RP1=0, select bank1
  3257  09C9  00A5               	movwf	(??_PreviousButtonHandler+0)^080h+0
  3258  09CA  0825               	movf	(??_PreviousButtonHandler+0)^080h+0,w
  3259  09CB  1283               	bcf	status, 5	;RP0=0, select bank0
  3260  09CC  1303               	bcf	status, 6	;RP1=0, select bank0
  3261  09CD  00C4               	movwf	(_ParameterIndex)
  3262                           	line	27
  3263                           ;SettingModeHandler.c: 27: } else if (3 == ParameterIndex) {
  3264  09CE  29DD               	goto	l6327
  3265                           	
  3266  09CF                     l6326:	
  3267                           	
  3268  09CF                     l14495:	
  3269  09CF  0844               	movf	(_ParameterIndex),w
  3270  09D0  3A03               	xorlw	03h
  3271  09D1  1D03               	skipz
  3272  09D2  29D4               	goto	u6561
  3273  09D3  29D5               	goto	u6560
  3274  09D4                     u6561:
  3275  09D4  29DD               	goto	l6328
  3276  09D5                     u6560:
  3277                           	line	28
  3278                           	
  3279  09D5                     l14497:	
  3280                           ;SettingModeHandler.c: 28: ScreenIndex = 0;
  3281  09D5  1003               	clrc
  3282  09D6  3000               	movlw	0
  3283  09D7  1803               	btfsc	status,0
  3284  09D8  3001               	movlw	1
  3285  09D9  00C5               	movwf	(_ScreenIndex)
  3286                           	line	29
  3287                           	
  3288  09DA                     l14499:	
  3289                           ;SettingModeHandler.c: 29: ParameterIndex = 1;
  3290  09DA  01C4               	clrf	(_ParameterIndex)
  3291  09DB  1403               	bsf	status,0
  3292  09DC  0DC4               	rlf	(_ParameterIndex),f
  3293                           	line	30
  3294                           	
  3295  09DD                     l6328:	
  3296                           	line	31
  3297                           	
  3298  09DD                     l6327:	
  3299                           ;SettingModeHandler.c: 30: }
  3300                           ;SettingModeHandler.c: 31: } else if (2 == ScreenIndex) {
  3301  09DD  29E7               	goto	l6329
  3302                           	
  3303  09DE                     l6325:	
  3304                           	
  3305  09DE                     l14501:	
  3306  09DE  0845               	movf	(_ScreenIndex),w
  3307  09DF  3A02               	xorlw	02h
  3308  09E0  1D03               	skipz
  3309  09E1  29E3               	goto	u6571
  3310  09E2  29E4               	goto	u6570
  3311  09E3                     u6571:
  3312  09E3  29E7               	goto	l6330
  3313  09E4                     u6570:
  3314                           	line	32
  3315                           	
  3316  09E4                     l14503:	
  3317                           ;SettingModeHandler.c: 32: ScreenIndex = 1;
  3318  09E4  01C5               	clrf	(_ScreenIndex)
  3319  09E5  1403               	bsf	status,0
  3320  09E6  0DC5               	rlf	(_ScreenIndex),f
  3321                           	line	34
  3322                           	
  3323  09E7                     l6330:	
  3324                           	line	35
  3325                           	
  3326  09E7                     l6329:	
  3327                           	
  3328  09E7                     l6324:	
  3329                           	
  3330  09E7                     l14505:	
  3331                           ;SettingModeHandler.c: 34: }
  3332                           ;SettingModeHandler.c: 35: UpdateScreen(1);
  3333  09E7  3001               	movlw	(01h)
  3334  09E8  120A  118A  25CD   	fcall	_UpdateScreen
              120A  158A         
  3335                           	line	36
  3336                           	
  3337  09ED                     l6331:	
  3338  09ED  0008               	return
  3339                           	opt stack 0
  3340                           GLOBAL	__end_of_PreviousButtonHandler
  3341  09EE                     	__end_of_PreviousButtonHandler:
  3342 ;; =============== function _PreviousButtonHandler ends ============
  3343                           
  3344                           	signat	_PreviousButtonHandler,88
  3345                           	global	_DownButtonHandler
  3346                           psect	text1641,local,class=CODE,delta=2
  3347                           global __ptext1641
  3348  0C18                     __ptext1641:
  3349                           
  3350 ;; *************** function _DownButtonHandler *****************
  3351 ;; Defined at:
  3352 ;;		line 97 in file "SettingModeHandler.c"
  3353 ;; Parameters:    Size  Location     Type
  3354 ;;		None
  3355 ;; Auto vars:     Size  Location     Type
  3356 ;;		None
  3357 ;; Return value:  Size  Location     Type
  3358 ;;		None               void
  3359 ;; Registers used:
  3360 ;;		wreg, fsr0l, fsr0h, status,2, status,0, btemp+0, btemp+1, pclath, cstack
  3361 ;; Tracked objects:
  3362 ;;		On entry : 0/0
  3363 ;;		On exit  : 0/0
  3364 ;;		Unchanged: 0/0
  3365 ;; Data sizes:     COMMON   BANK0   BANK1   BANK3   BANK2
  3366 ;;      Params:         0       0       0       0       0
  3367 ;;      Locals:         0       0       0       0       0
  3368 ;;      Temps:          0       0       3       0       0
  3369 ;;      Totals:         0       0       3       0       0
  3370 ;;Total ram usage:        3 bytes
  3371 ;; Hardware stack levels used:    1
  3372 ;; Hardware stack levels required when called:   10
  3373 ;; This function calls:
  3374 ;;		_lcd_writeThisStringAt
  3375 ;;		_UpdateScreen
  3376 ;; This function is called by:
  3377 ;;		_SettingModeOperations
  3378 ;; This function uses a non-reentrant model
  3379 ;;
  3380                           psect	text1641
  3381                           	file	"SettingModeHandler.c"
  3382                           	line	97
  3383                           	global	__size_of_DownButtonHandler
  3384  00B2                     	__size_of_DownButtonHandler	equ	__end_of_DownButtonHandler-_DownButtonHandler
  3385                           	
  3386  0C18                     _DownButtonHandler:	
  3387                           	opt	stack 5
  3388                           ; Regs used in _DownButtonHandler: [wreg-fsr0h+status,2-btemp+1+pclath+cstack]
  3389                           	line	98
  3390                           	
  3391  0C18                     l14439:	
  3392                           ;SettingModeHandler.c: 98: if ((0 == ParameterIndex) && (0 == ScreenIndex)) {
  3393  0C18  1283               	bcf	status, 5	;RP0=0, select bank0
  3394  0C19  1303               	bcf	status, 6	;RP1=0, select bank0
  3395  0C1A  08C4               	movf	(_ParameterIndex),f
  3396  0C1B  1D03               	skipz
  3397  0C1C  2C1E               	goto	u6391
  3398  0C1D  2C1F               	goto	u6390
  3399  0C1E                     u6391:
  3400  0C1E  2C2E               	goto	l6364
  3401  0C1F                     u6390:
  3402                           	
  3403  0C1F                     l14441:	
  3404                           ;SettingModeHandler.c: 99: if (CurrentTeaQuantity >= 0) {
  3405  0C1F  08C5               	movf	(_ScreenIndex),f
  3406  0C20  1D03               	skipz
  3407  0C21  2C23               	goto	u6401
  3408  0C22  2C24               	goto	u6400
  3409  0C23                     u6401:
  3410  0C23  2C2E               	goto	l6364
  3411  0C24                     u6400:
  3412                           	line	100
  3413                           	
  3414  0C24                     l14443:	
  3415                           ;SettingModeHandler.c: 100: CurrentTeaQuantity = CurrentTeaQuantity - 1;
  3416  0C24  0841               	movf	(_CurrentTeaQuantity),w
  3417  0C25  3EFF               	addlw	0FFh
  3418  0C26  1683               	bsf	status, 5	;RP0=1, select bank1
  3419  0C27  1303               	bcf	status, 6	;RP1=0, select bank1
  3420  0C28  00A5               	movwf	(??_DownButtonHandler+0)^080h+0
  3421  0C29  0825               	movf	(??_DownButtonHandler+0)^080h+0,w
  3422  0C2A  1283               	bcf	status, 5	;RP0=0, select bank0
  3423  0C2B  1303               	bcf	status, 6	;RP1=0, select bank0
  3424  0C2C  00C1               	movwf	(_CurrentTeaQuantity)
  3425                           	line	101
  3426                           	
  3427  0C2D                     l6365:	
  3428                           	line	102
  3429                           ;SettingModeHandler.c: 101: }
  3430                           ;SettingModeHandler.c: 102: } else if ((1 == ParameterIndex) && (0 == ScreenIndex)) {
  3431  0C2D  2CC3               	goto	l6366
  3432                           	
  3433  0C2E                     l6364:	
  3434                           	
  3435  0C2E                     l14445:	
  3436  0C2E  0844               	movf	(_ParameterIndex),w
  3437  0C2F  3A01               	xorlw	01h
  3438  0C30  1D03               	skipz
  3439  0C31  2C33               	goto	u6411
  3440  0C32  2C34               	goto	u6410
  3441  0C33                     u6411:
  3442  0C33  2C49               	goto	l6367
  3443  0C34                     u6410:
  3444                           	
  3445  0C34                     l14447:	
  3446  0C34  08C5               	movf	(_ScreenIndex),f
  3447  0C35  1D03               	skipz
  3448  0C36  2C38               	goto	u6421
  3449  0C37  2C39               	goto	u6420
  3450  0C38                     u6421:
  3451  0C38  2C49               	goto	l6367
  3452  0C39                     u6420:
  3453                           	line	103
  3454                           	
  3455  0C39                     l14449:	
  3456                           ;SettingModeHandler.c: 103: if (CurrentWaterQuantity_forTea <= 15) {
  3457  0C39  3010               	movlw	(010h)
  3458  0C3A  0243               	subwf	(_CurrentWaterQuantity_forTea),w
  3459  0C3B  1803               	skipnc
  3460  0C3C  2C3E               	goto	u6431
  3461  0C3D  2C3F               	goto	u6430
  3462  0C3E                     u6431:
  3463  0C3E  2C48               	goto	l6368
  3464  0C3F                     u6430:
  3465                           	line	104
  3466                           	
  3467  0C3F                     l14451:	
  3468                           ;SettingModeHandler.c: 104: CurrentWaterQuantity_forTea = CurrentWaterQuantity_forTea - 
                                 1;
  3469  0C3F  0843               	movf	(_CurrentWaterQuantity_forTea),w
  3470  0C40  3EFF               	addlw	0FFh
  3471  0C41  1683               	bsf	status, 5	;RP0=1, select bank1
  3472  0C42  1303               	bcf	status, 6	;RP1=0, select bank1
  3473  0C43  00A5               	movwf	(??_DownButtonHandler+0)^080h+0
  3474  0C44  0825               	movf	(??_DownButtonHandler+0)^080h+0,w
  3475  0C45  1283               	bcf	status, 5	;RP0=0, select bank0
  3476  0C46  1303               	bcf	status, 6	;RP1=0, select bank0
  3477  0C47  00C3               	movwf	(_CurrentWaterQuantity_forTea)
  3478                           	line	105
  3479                           	
  3480  0C48                     l6368:	
  3481                           	line	106
  3482                           ;SettingModeHandler.c: 105: }
  3483                           ;SettingModeHandler.c: 106: } else if ((3 == ParameterIndex) && (1 == ScreenIndex)) {
  3484  0C48  2CC3               	goto	l6369
  3485                           	
  3486  0C49                     l6367:	
  3487                           	
  3488  0C49                     l14453:	
  3489  0C49  0844               	movf	(_ParameterIndex),w
  3490  0C4A  3A03               	xorlw	03h
  3491  0C4B  1D03               	skipz
  3492  0C4C  2C4E               	goto	u6441
  3493  0C4D  2C4F               	goto	u6440
  3494  0C4E                     u6441:
  3495  0C4E  2C65               	goto	l6370
  3496  0C4F                     u6440:
  3497                           	
  3498  0C4F                     l14455:	
  3499  0C4F  0845               	movf	(_ScreenIndex),w
  3500  0C50  3A01               	xorlw	01h
  3501  0C51  1D03               	skipz
  3502  0C52  2C54               	goto	u6451
  3503  0C53  2C55               	goto	u6450
  3504  0C54                     u6451:
  3505  0C54  2C65               	goto	l6370
  3506  0C55                     u6450:
  3507                           	line	107
  3508                           	
  3509  0C55                     l14457:	
  3510                           ;SettingModeHandler.c: 107: if (CurrentCoffeeQuantity <= 15) {
  3511  0C55  3010               	movlw	(010h)
  3512  0C56  0240               	subwf	(_CurrentCoffeeQuantity),w
  3513  0C57  1803               	skipnc
  3514  0C58  2C5A               	goto	u6461
  3515  0C59  2C5B               	goto	u6460
  3516  0C5A                     u6461:
  3517  0C5A  2C64               	goto	l6371
  3518  0C5B                     u6460:
  3519                           	line	108
  3520                           	
  3521  0C5B                     l14459:	
  3522                           ;SettingModeHandler.c: 108: CurrentCoffeeQuantity = CurrentCoffeeQuantity - 1;
  3523  0C5B  0840               	movf	(_CurrentCoffeeQuantity),w
  3524  0C5C  3EFF               	addlw	0FFh
  3525  0C5D  1683               	bsf	status, 5	;RP0=1, select bank1
  3526  0C5E  1303               	bcf	status, 6	;RP1=0, select bank1
  3527  0C5F  00A5               	movwf	(??_DownButtonHandler+0)^080h+0
  3528  0C60  0825               	movf	(??_DownButtonHandler+0)^080h+0,w
  3529  0C61  1283               	bcf	status, 5	;RP0=0, select bank0
  3530  0C62  1303               	bcf	status, 6	;RP1=0, select bank0
  3531  0C63  00C0               	movwf	(_CurrentCoffeeQuantity)
  3532                           	line	109
  3533                           	
  3534  0C64                     l6371:	
  3535                           	line	110
  3536                           ;SettingModeHandler.c: 109: }
  3537                           ;SettingModeHandler.c: 110: } else if ((4 == ParameterIndex) && (1 == ScreenIndex)) {
  3538  0C64  2CC3               	goto	l6372
  3539                           	
  3540  0C65                     l6370:	
  3541                           	
  3542  0C65                     l14461:	
  3543  0C65  0844               	movf	(_ParameterIndex),w
  3544  0C66  3A04               	xorlw	04h
  3545  0C67  1D03               	skipz
  3546  0C68  2C6A               	goto	u6471
  3547  0C69  2C6B               	goto	u6470
  3548  0C6A                     u6471:
  3549  0C6A  2C81               	goto	l6373
  3550  0C6B                     u6470:
  3551                           	
  3552  0C6B                     l14463:	
  3553  0C6B  0845               	movf	(_ScreenIndex),w
  3554  0C6C  3A01               	xorlw	01h
  3555  0C6D  1D03               	skipz
  3556  0C6E  2C70               	goto	u6481
  3557  0C6F  2C71               	goto	u6480
  3558  0C70                     u6481:
  3559  0C70  2C81               	goto	l6373
  3560  0C71                     u6480:
  3561                           	line	111
  3562                           	
  3563  0C71                     l14465:	
  3564                           ;SettingModeHandler.c: 111: if (CurrentWaterQuantity_forCoffee <= 15) {
  3565  0C71  3010               	movlw	(010h)
  3566  0C72  0242               	subwf	(_CurrentWaterQuantity_forCoffee),w
  3567  0C73  1803               	skipnc
  3568  0C74  2C76               	goto	u6491
  3569  0C75  2C77               	goto	u6490
  3570  0C76                     u6491:
  3571  0C76  2C80               	goto	l6374
  3572  0C77                     u6490:
  3573                           	line	112
  3574                           	
  3575  0C77                     l14467:	
  3576                           ;SettingModeHandler.c: 112: CurrentWaterQuantity_forCoffee = CurrentWaterQuantity_forCof
                                 fee - 1;
  3577  0C77  0842               	movf	(_CurrentWaterQuantity_forCoffee),w
  3578  0C78  3EFF               	addlw	0FFh
  3579  0C79  1683               	bsf	status, 5	;RP0=1, select bank1
  3580  0C7A  1303               	bcf	status, 6	;RP1=0, select bank1
  3581  0C7B  00A5               	movwf	(??_DownButtonHandler+0)^080h+0
  3582  0C7C  0825               	movf	(??_DownButtonHandler+0)^080h+0,w
  3583  0C7D  1283               	bcf	status, 5	;RP0=0, select bank0
  3584  0C7E  1303               	bcf	status, 6	;RP1=0, select bank0
  3585  0C7F  00C2               	movwf	(_CurrentWaterQuantity_forCoffee)
  3586                           	line	113
  3587                           	
  3588  0C80                     l6374:	
  3589                           	line	114
  3590                           ;SettingModeHandler.c: 113: }
  3591                           ;SettingModeHandler.c: 114: } else if (2 == ScreenIndex) {
  3592  0C80  2CC3               	goto	l6375
  3593                           	
  3594  0C81                     l6373:	
  3595                           	
  3596  0C81                     l14469:	
  3597  0C81  0845               	movf	(_ScreenIndex),w
  3598  0C82  3A02               	xorlw	02h
  3599  0C83  1D03               	skipz
  3600  0C84  2C86               	goto	u6501
  3601  0C85  2C87               	goto	u6500
  3602  0C86                     u6501:
  3603  0C86  2CC3               	goto	l6376
  3604  0C87                     u6500:
  3605                           	line	115
  3606                           	
  3607  0C87                     l14471:	
  3608                           ;SettingModeHandler.c: 115: lcd_writeThisStringAt(1,0,"SETTINGS UPDATED");
  3609  0C87  1003               	clrc
  3610  0C88  3000               	movlw	0
  3611  0C89  1803               	btfsc	status,0
  3612  0C8A  3001               	movlw	1
  3613  0C8B  00B4               	movwf	(?_lcd_writeThisStringAt)
  3614  0C8C  3012               	movlw	low((STR_9-__stringbase))
  3615  0C8D  00B5               	movwf	(0+?_lcd_writeThisStringAt+01h)
  3616  0C8E  3080               	movlw	80h
  3617  0C8F  00B6               	movwf	(1+?_lcd_writeThisStringAt+01h)
  3618  0C90  3001               	movlw	(01h)
  3619  0C91  160A  118A  25F1   	fcall	_lcd_writeThisStringAt
              120A  158A         
  3620                           	line	116
  3621                           	
  3622  0C96                     l14473:	
  3623                           ;SettingModeHandler.c: 116: _delay((unsigned long)((2000)*(20000000/4000.0)));
  3624                           	opt asmopt_off
  3625  0C96  3033               movlw  51
  3626  0C97  1683               	bsf	status, 5	;RP0=1, select bank1
  3627  0C98  1303               	bcf	status, 6	;RP1=0, select bank1
  3628  0C99  00A7               movwf	((??_DownButtonHandler+0)^080h+0+2),f
  3629  0C9A  3089               movlw	137
  3630  0C9B  00A6               movwf	((??_DownButtonHandler+0)^080h+0+1),f
  3631  0C9C  3000               	movlw	256
  3632  0C9D  00A5               movwf	((??_DownButtonHandler+0)^080h+0),f
  3633  0C9E                     u6987:
  3634  0C9E  0BA5               	decfsz	((??_DownButtonHandler+0)^080h+0),f
  3635  0C9F  2C9E               	goto	u6987
  3636  0CA0  0BA6               	decfsz	((??_DownButtonHandler+0)^080h+0+1),f
  3637  0CA1  2C9E               	goto	u6987
  3638  0CA2  0BA7               	decfsz	((??_DownButtonHandler+0)^080h+0+2),f
  3639  0CA3  2C9E               	goto	u6987
  3640                           opt asmopt_on
  3641                           
  3642                           	line	117
  3643                           	
  3644  0CA4                     l14475:	
  3645                           ;SettingModeHandler.c: 117: lcd_writeThisStringAt(1,0,"PRESS EXIT KEY");
  3646  0CA4  1003               	clrc
  3647  0CA5  3000               	movlw	0
  3648  0CA6  1803               	btfsc	status,0
  3649  0CA7  3001               	movlw	1
  3650  0CA8  1283               	bcf	status, 5	;RP0=0, select bank0
  3651  0CA9  1303               	bcf	status, 6	;RP1=0, select bank0
  3652  0CAA  00B4               	movwf	(?_lcd_writeThisStringAt)
  3653  0CAB  3062               	movlw	low((STR_10-__stringbase))
  3654  0CAC  00B5               	movwf	(0+?_lcd_writeThisStringAt+01h)
  3655  0CAD  3080               	movlw	80h
  3656  0CAE  00B6               	movwf	(1+?_lcd_writeThisStringAt+01h)
  3657  0CAF  3001               	movlw	(01h)
  3658  0CB0  160A  118A  25F1   	fcall	_lcd_writeThisStringAt
              120A  158A         
  3659                           	line	118
  3660                           ;SettingModeHandler.c: 118: _delay((unsigned long)((2000)*(20000000/4000.0)));
  3661                           	opt asmopt_off
  3662  0CB5  3033               movlw  51
  3663  0CB6  1683               	bsf	status, 5	;RP0=1, select bank1
  3664  0CB7  1303               	bcf	status, 6	;RP1=0, select bank1
  3665  0CB8  00A7               movwf	((??_DownButtonHandler+0)^080h+0+2),f
  3666  0CB9  3089               movlw	137
  3667  0CBA  00A6               movwf	((??_DownButtonHandler+0)^080h+0+1),f
  3668  0CBB  3000               	movlw	256
  3669  0CBC  00A5               movwf	((??_DownButtonHandler+0)^080h+0),f
  3670  0CBD                     u6997:
  3671  0CBD  0BA5               	decfsz	((??_DownButtonHandler+0)^080h+0),f
  3672  0CBE  2CBD               	goto	u6997
  3673  0CBF  0BA6               	decfsz	((??_DownButtonHandler+0)^080h+0+1),f
  3674  0CC0  2CBD               	goto	u6997
  3675  0CC1  0BA7               	decfsz	((??_DownButtonHandler+0)^080h+0+2),f
  3676  0CC2  2CBD               	goto	u6997
  3677                           opt asmopt_on
  3678                           
  3679                           	line	120
  3680                           ;SettingModeHandler.c: 119: break;
  3681                           	
  3682  0CC3                     l6376:	
  3683                           	line	121
  3684                           	
  3685  0CC3                     l6375:	
  3686                           	
  3687  0CC3                     l6372:	
  3688                           	
  3689  0CC3                     l6369:	
  3690                           	
  3691  0CC3                     l6366:	
  3692                           	
  3693  0CC3                     l14477:	
  3694                           ;SettingModeHandler.c: 120: }
  3695                           ;SettingModeHandler.c: 121: UpdateScreen(0);
  3696  0CC3  3000               	movlw	(0)
  3697  0CC4  120A  118A  25CD   	fcall	_UpdateScreen
              120A  158A         
  3698                           	line	122
  3699                           	
  3700  0CC9                     l6377:	
  3701  0CC9  0008               	return
  3702                           	opt stack 0
  3703                           GLOBAL	__end_of_DownButtonHandler
  3704  0CCA                     	__end_of_DownButtonHandler:
  3705 ;; =============== function _DownButtonHandler ends ============
  3706                           
  3707                           	signat	_DownButtonHandler,88
  3708                           	global	_NormalModeOperations
  3709                           psect	text1642,local,class=CODE,delta=2
  3710                           global __ptext1642
  3711  17A2                     __ptext1642:
  3712                           
  3713 ;; *************** function _NormalModeOperations *****************
  3714 ;; Defined at:
  3715 ;;		line 129 in file "EventHandler.c"
  3716 ;; Parameters:    Size  Location     Type
  3717 ;;  keyPressed      1    wreg     unsigned char 
  3718 ;; Auto vars:     Size  Location     Type
  3719 ;;  keyPressed      1   28[BANK0 ] unsigned char 
  3720 ;; Return value:  Size  Location     Type
  3721 ;;		None               void
  3722 ;; Registers used:
  3723 ;;		wreg, fsr0l, fsr0h, status,2, status,0, btemp+0, btemp+1, pclath, cstack
  3724 ;; Tracked objects:
  3725 ;;		On entry : 0/0
  3726 ;;		On exit  : 0/0
  3727 ;;		Unchanged: 0/0
  3728 ;; Data sizes:     COMMON   BANK0   BANK1   BANK3   BANK2
  3729 ;;      Params:         0       0       0       0       0
  3730 ;;      Locals:         0       1       0       0       0
  3731 ;;      Temps:          0       0       0       0       0
  3732 ;;      Totals:         0       1       0       0       0
  3733 ;;Total ram usage:        1 bytes
  3734 ;; Hardware stack levels used:    1
  3735 ;; Hardware stack levels required when called:   10
  3736 ;; This function calls:
  3737 ;;		_serveCoffee
  3738 ;;		_serveHalfQuantity
  3739 ;;		_serveTea
  3740 ;;		_serveHotWater
  3741 ;; This function is called by:
  3742 ;;		_IsKeyPressed
  3743 ;; This function uses a non-reentrant model
  3744 ;;
  3745                           psect	text1642
  3746                           	file	"EventHandler.c"
  3747                           	line	129
  3748                           	global	__size_of_NormalModeOperations
  3749  002F                     	__size_of_NormalModeOperations	equ	__end_of_NormalModeOperations-_NormalModeOperations
  3750                           	
  3751  17A2                     _NormalModeOperations:	
  3752                           	opt	stack 6
  3753                           ; Regs used in _NormalModeOperations: [wreg-fsr0h+status,2-btemp+1+pclath+cstack]
  3754                           ;NormalModeOperations@keyPressed stored from wreg
  3755  17A2  1283               	bcf	status, 5	;RP0=0, select bank0
  3756  17A3  1303               	bcf	status, 6	;RP1=0, select bank0
  3757  17A4  00BC               	movwf	(NormalModeOperations@keyPressed)
  3758                           	line	130
  3759                           	
  3760  17A5                     l14425:	
  3761                           ;EventHandler.c: 130: switch (keyPressed) {
  3762  17A5  2FC0               	goto	l3605
  3763                           	line	131
  3764                           ;EventHandler.c: 131: case 1:
  3765                           	
  3766  17A6                     l3606:	
  3767                           	line	133
  3768                           	
  3769  17A6                     l14427:	
  3770                           ;EventHandler.c: 133: serveCoffee();
  3771  17A6  160A  118A  268C   	fcall	_serveCoffee
              160A  118A         
  3772                           	line	134
  3773                           ;EventHandler.c: 134: break;
  3774  17AB  2FD0               	goto	l3607
  3775                           	line	136
  3776                           ;EventHandler.c: 136: case 2:
  3777                           	
  3778  17AC                     l3608:	
  3779                           	line	138
  3780                           	
  3781  17AC                     l14429:	
  3782                           ;EventHandler.c: 138: serveHalfQuantity();
  3783  17AC  160A  118A  26B1   	fcall	_serveHalfQuantity
              160A  118A         
  3784                           	line	139
  3785                           ;EventHandler.c: 139: break;
  3786  17B1  2FD0               	goto	l3607
  3787                           	line	141
  3788                           ;EventHandler.c: 141: case 3:
  3789                           	
  3790  17B2                     l3609:	
  3791                           	line	143
  3792                           	
  3793  17B2                     l14431:	
  3794                           ;EventHandler.c: 143: serveTea();
  3795  17B2  160A  118A  26D6   	fcall	_serveTea
              160A  118A         
  3796                           	line	144
  3797                           ;EventHandler.c: 144: break;
  3798  17B7  2FD0               	goto	l3607
  3799                           	line	146
  3800                           ;EventHandler.c: 146: case 4:
  3801                           	
  3802  17B8                     l3610:	
  3803                           	line	148
  3804                           	
  3805  17B8                     l14433:	
  3806                           ;EventHandler.c: 148: serveHotWater();
  3807  17B8  160A  118A  26FB   	fcall	_serveHotWater
              160A  118A         
  3808                           	line	150
  3809                           ;EventHandler.c: 150: break;
  3810  17BD  2FD0               	goto	l3607
  3811                           	line	152
  3812                           ;EventHandler.c: 152: default:
  3813                           	
  3814  17BE                     l3611:	
  3815                           	line	154
  3816                           ;EventHandler.c: 154: break;
  3817  17BE  2FD0               	goto	l3607
  3818                           	line	155
  3819                           	
  3820  17BF                     l14435:	
  3821                           ;EventHandler.c: 155: }
  3822  17BF  2FD0               	goto	l3607
  3823                           	line	130
  3824                           	
  3825  17C0                     l3605:	
  3826                           	
  3827  17C0                     l14437:	
  3828  17C0  1283               	bcf	status, 5	;RP0=0, select bank0
  3829  17C1  1303               	bcf	status, 6	;RP1=0, select bank0
  3830  17C2  083C               	movf	(NormalModeOperations@keyPressed),w
  3831                           	; Switch size 1, requested type "space"
  3832                           ; Number of cases is 4, Range of values is 1 to 4
  3833                           ; switch strategies available:
  3834                           ; Name         Bytes Cycles
  3835                           ; simple_byte    13     7 (average)
  3836                           ; direct_byte    34    22 (fixed)
  3837                           ;	Chosen strategy is simple_byte
  3838                           
  3839  17C3  3A01               	xorlw	1^0	; case 1
  3840  17C4  1903               	skipnz
  3841  17C5  2FA6               	goto	l3606
  3842  17C6  3A03               	xorlw	2^1	; case 2
  3843  17C7  1903               	skipnz
  3844  17C8  2FAC               	goto	l3608
  3845  17C9  3A01               	xorlw	3^2	; case 3
  3846  17CA  1903               	skipnz
  3847  17CB  2FB2               	goto	l3609
  3848  17CC  3A07               	xorlw	4^3	; case 4
  3849  17CD  1903               	skipnz
  3850  17CE  2FB8               	goto	l3610
  3851  17CF  2FBE               	goto	l3611
  3852                           
  3853                           	line	155
  3854                           	
  3855  17D0                     l3607:	
  3856                           	line	157
  3857                           	
  3858  17D0                     l3612:	
  3859  17D0  0008               	return
  3860                           	opt stack 0
  3861                           GLOBAL	__end_of_NormalModeOperations
  3862  17D1                     	__end_of_NormalModeOperations:
  3863 ;; =============== function _NormalModeOperations ends ============
  3864                           
  3865                           	signat	_NormalModeOperations,4216
  3866                           	global	_UpdateScreen
  3867                           psect	text1643,local,class=CODE,delta=2
  3868                           global __ptext1643
  3869  05CD                     __ptext1643:
  3870                           
  3871 ;; *************** function _UpdateScreen *****************
  3872 ;; Defined at:
  3873 ;;		line 125 in file "SettingModeHandler.c"
  3874 ;; Parameters:    Size  Location     Type
  3875 ;;  Mode            1    wreg     unsigned char 
  3876 ;; Auto vars:     Size  Location     Type
  3877 ;;  Mode            1    0[COMMON] unsigned char 
  3878 ;; Return value:  Size  Location     Type
  3879 ;;		None               void
  3880 ;; Registers used:
  3881 ;;		wreg, fsr0l, fsr0h, status,2, status,0, btemp+0, btemp+1, pclath, cstack
  3882 ;; Tracked objects:
  3883 ;;		On entry : 0/0
  3884 ;;		On exit  : 0/0
  3885 ;;		Unchanged: 0/0
  3886 ;; Data sizes:     COMMON   BANK0   BANK1   BANK3   BANK2
  3887 ;;      Params:         0       0       0       0       0
  3888 ;;      Locals:         0       0       0       0       0
  3889 ;;      Temps:          0       3       0       0       0
  3890 ;;      Totals:         0       3       0       0       0
  3891 ;;Total ram usage:        3 bytes
  3892 ;; Hardware stack levels used:    1
  3893 ;; Hardware stack levels required when called:    9
  3894 ;; This function calls:
  3895 ;;		_lcd_clear
  3896 ;;		_lcd_writeThisStringAt
  3897 ;;		_lcd_writeThisDigit
  3898 ;; This function is called by:
  3899 ;;		_PreviousButtonHandler
  3900 ;;		_NextButtonHandler
  3901 ;;		_UpbuttonHandler
  3902 ;;		_DownButtonHandler
  3903 ;; This function uses a non-reentrant model
  3904 ;;
  3905                           psect	text1643
  3906                           	file	"SettingModeHandler.c"
  3907                           	line	125
  3908                           	global	__size_of_UpdateScreen
  3909  00F0                     	__size_of_UpdateScreen	equ	__end_of_UpdateScreen-_UpdateScreen
  3910                           	
  3911  05CD                     _UpdateScreen:	
  3912                           	opt	stack 4
  3913                           ; Regs used in _UpdateScreen: [wreg-fsr0h+status,2-btemp+1+pclath+cstack]
  3914                           	line	126
  3915                           	
  3916  05CD                     l14393:	
  3917                           ;SettingModeHandler.c: 126: lcd_clear();
  3918  05CD  160A  118A  2569   	fcall	_lcd_clear
              120A  118A         
  3919                           	line	127
  3920                           	
  3921  05D2                     l14395:	
  3922                           ;SettingModeHandler.c: 127: if (0 == ScreenIndex) {
  3923  05D2  1283               	bcf	status, 5	;RP0=0, select bank0
  3924  05D3  1303               	bcf	status, 6	;RP1=0, select bank0
  3925  05D4  08C5               	movf	(_ScreenIndex),f
  3926  05D5  1D03               	skipz
  3927  05D6  2DD8               	goto	u6321
  3928  05D7  2DD9               	goto	u6320
  3929  05D8                     u6321:
  3930  05D8  2E22               	goto	l6380
  3931  05D9                     u6320:
  3932                           	line	128
  3933                           	
  3934  05D9                     l14397:	
  3935                           ;SettingModeHandler.c: 128: lcd_writeThisStringAt(0, 2, "TEA SETTINGS");
  3936  05D9  3002               	movlw	(02h)
  3937  05DA  00BB               	movwf	(??_UpdateScreen+0)+0
  3938  05DB  083B               	movf	(??_UpdateScreen+0)+0,w
  3939  05DC  00B4               	movwf	(?_lcd_writeThisStringAt)
  3940  05DD  309C               	movlw	low((STR_11-__stringbase))
  3941  05DE  00B5               	movwf	(0+?_lcd_writeThisStringAt+01h)
  3942  05DF  3080               	movlw	80h
  3943  05E0  00B6               	movwf	(1+?_lcd_writeThisStringAt+01h)
  3944  05E1  3000               	movlw	(0)
  3945  05E2  160A  118A  25F1   	fcall	_lcd_writeThisStringAt
              120A  118A         
  3946                           	line	129
  3947                           	
  3948  05E7                     l14399:	
  3949                           ;SettingModeHandler.c: 129: if (0 == ParameterIndex) {
  3950  05E7  1283               	bcf	status, 5	;RP0=0, select bank0
  3951  05E8  1303               	bcf	status, 6	;RP1=0, select bank0
  3952  05E9  08C4               	movf	(_ParameterIndex),f
  3953  05EA  1D03               	skipz
  3954  05EB  2DED               	goto	u6331
  3955  05EC  2DEE               	goto	u6330
  3956  05ED                     u6331:
  3957  05ED  2E04               	goto	l6381
  3958  05EE                     u6330:
  3959                           	line	130
  3960                           	
  3961  05EE                     l14401:	
  3962                           ;SettingModeHandler.c: 130: lcd_writeThisStringAt(1, 1, "T:");
  3963  05EE  01B4               	clrf	(?_lcd_writeThisStringAt)
  3964  05EF  1403               	bsf	status,0
  3965  05F0  0DB4               	rlf	(?_lcd_writeThisStringAt),f
  3966  05F1  30D2               	movlw	low((STR_12-__stringbase))
  3967  05F2  00B5               	movwf	(0+?_lcd_writeThisStringAt+01h)
  3968  05F3  3080               	movlw	80h
  3969  05F4  00B6               	movwf	(1+?_lcd_writeThisStringAt+01h)
  3970  05F5  3001               	movlw	(01h)
  3971  05F6  160A  118A  25F1   	fcall	_lcd_writeThisStringAt
              120A  118A         
  3972                           	line	131
  3973                           ;SettingModeHandler.c: 131: lcd_writeThisDigit(CurrentTeaQuantity);
  3974  05FB  1283               	bcf	status, 5	;RP0=0, select bank0
  3975  05FC  1303               	bcf	status, 6	;RP1=0, select bank0
  3976  05FD  0841               	movf	(_CurrentTeaQuantity),w
  3977  05FE  120A  158A  24CA   	fcall	_lcd_writeThisDigit
              120A  118A         
  3978                           	line	132
  3979                           ;SettingModeHandler.c: 132: } else if (1 == ParameterIndex) {
  3980  0603  2E22               	goto	l6382
  3981                           	
  3982  0604                     l6381:	
  3983                           	
  3984  0604                     l14403:	
  3985  0604  1283               	bcf	status, 5	;RP0=0, select bank0
  3986  0605  1303               	bcf	status, 6	;RP1=0, select bank0
  3987  0606  0844               	movf	(_ParameterIndex),w
  3988  0607  3A01               	xorlw	01h
  3989  0608  1D03               	skipz
  3990  0609  2E0B               	goto	u6341
  3991  060A  2E0C               	goto	u6340
  3992  060B                     u6341:
  3993  060B  2E22               	goto	l6383
  3994  060C                     u6340:
  3995                           	line	133
  3996                           	
  3997  060C                     l14405:	
  3998                           ;SettingModeHandler.c: 133: lcd_writeThisStringAt(1, 10, "W:");
  3999  060C  300A               	movlw	(0Ah)
  4000  060D  00BB               	movwf	(??_UpdateScreen+0)+0
  4001  060E  083B               	movf	(??_UpdateScreen+0)+0,w
  4002  060F  00B4               	movwf	(?_lcd_writeThisStringAt)
  4003  0610  30D5               	movlw	low((STR_13-__stringbase))
  4004  0611  00B5               	movwf	(0+?_lcd_writeThisStringAt+01h)
  4005  0612  3080               	movlw	80h
  4006  0613  00B6               	movwf	(1+?_lcd_writeThisStringAt+01h)
  4007  0614  3001               	movlw	(01h)
  4008  0615  160A  118A  25F1   	fcall	_lcd_writeThisStringAt
              120A  118A         
  4009                           	line	134
  4010                           ;SettingModeHandler.c: 134: lcd_writeThisDigit(CurrentWaterQuantity_forTea);
  4011  061A  1283               	bcf	status, 5	;RP0=0, select bank0
  4012  061B  1303               	bcf	status, 6	;RP1=0, select bank0
  4013  061C  0843               	movf	(_CurrentWaterQuantity_forTea),w
  4014  061D  120A  158A  24CA   	fcall	_lcd_writeThisDigit
              120A  118A         
  4015                           	line	135
  4016                           	
  4017  0622                     l6383:	
  4018                           	line	136
  4019                           	
  4020  0622                     l6382:	
  4021                           	
  4022  0622                     l6380:	
  4023                           	line	137
  4024                           	
  4025  0622                     l14407:	
  4026                           ;SettingModeHandler.c: 135: }
  4027                           ;SettingModeHandler.c: 136: }
  4028                           ;SettingModeHandler.c: 137: if (1 == ScreenIndex) {
  4029  0622  1283               	bcf	status, 5	;RP0=0, select bank0
  4030  0623  1303               	bcf	status, 6	;RP1=0, select bank0
  4031  0624  0845               	movf	(_ScreenIndex),w
  4032  0625  3A01               	xorlw	01h
  4033  0626  1D03               	skipz
  4034  0627  2E29               	goto	u6351
  4035  0628  2E2A               	goto	u6350
  4036  0629                     u6351:
  4037  0629  2E77               	goto	l6384
  4038  062A                     u6350:
  4039                           	line	138
  4040                           	
  4041  062A                     l14409:	
  4042                           ;SettingModeHandler.c: 138: lcd_writeThisStringAt(0, 0, "COFFEE SETTINGS");
  4043  062A  1003               	clrc
  4044  062B  3000               	movlw	0
  4045  062C  1803               	btfsc	status,0
  4046  062D  3001               	movlw	1
  4047  062E  00B4               	movwf	(?_lcd_writeThisStringAt)
  4048  062F  3043               	movlw	low((STR_14-__stringbase))
  4049  0630  00B5               	movwf	(0+?_lcd_writeThisStringAt+01h)
  4050  0631  3080               	movlw	80h
  4051  0632  00B6               	movwf	(1+?_lcd_writeThisStringAt+01h)
  4052  0633  3000               	movlw	(0)
  4053  0634  160A  118A  25F1   	fcall	_lcd_writeThisStringAt
              120A  118A         
  4054                           	line	139
  4055                           	
  4056  0639                     l14411:	
  4057                           ;SettingModeHandler.c: 139: if (3 == ParameterIndex) {
  4058  0639  1283               	bcf	status, 5	;RP0=0, select bank0
  4059  063A  1303               	bcf	status, 6	;RP1=0, select bank0
  4060  063B  0844               	movf	(_ParameterIndex),w
  4061  063C  3A03               	xorlw	03h
  4062  063D  1D03               	skipz
  4063  063E  2E40               	goto	u6361
  4064  063F  2E41               	goto	u6360
  4065  0640                     u6361:
  4066  0640  2E59               	goto	l6385
  4067  0641                     u6360:
  4068                           	line	140
  4069                           	
  4070  0641                     l14413:	
  4071                           ;SettingModeHandler.c: 140: lcd_writeThisStringAt(1, 0, "C:");
  4072  0641  1003               	clrc
  4073  0642  3000               	movlw	0
  4074  0643  1803               	btfsc	status,0
  4075  0644  3001               	movlw	1
  4076  0645  00B4               	movwf	(?_lcd_writeThisStringAt)
  4077  0646  30CF               	movlw	low((STR_15-__stringbase))
  4078  0647  00B5               	movwf	(0+?_lcd_writeThisStringAt+01h)
  4079  0648  3080               	movlw	80h
  4080  0649  00B6               	movwf	(1+?_lcd_writeThisStringAt+01h)
  4081  064A  3001               	movlw	(01h)
  4082  064B  160A  118A  25F1   	fcall	_lcd_writeThisStringAt
              120A  118A         
  4083                           	line	141
  4084                           ;SettingModeHandler.c: 141: lcd_writeThisDigit(CurrentCoffeeQuantity);
  4085  0650  1283               	bcf	status, 5	;RP0=0, select bank0
  4086  0651  1303               	bcf	status, 6	;RP1=0, select bank0
  4087  0652  0840               	movf	(_CurrentCoffeeQuantity),w
  4088  0653  120A  158A  24CA   	fcall	_lcd_writeThisDigit
              120A  118A         
  4089                           	line	143
  4090                           ;SettingModeHandler.c: 143: } else if (4 == ParameterIndex) {
  4091  0658  2E77               	goto	l6386
  4092                           	
  4093  0659                     l6385:	
  4094                           	
  4095  0659                     l14415:	
  4096  0659  1283               	bcf	status, 5	;RP0=0, select bank0
  4097  065A  1303               	bcf	status, 6	;RP1=0, select bank0
  4098  065B  0844               	movf	(_ParameterIndex),w
  4099  065C  3A04               	xorlw	04h
  4100  065D  1D03               	skipz
  4101  065E  2E60               	goto	u6371
  4102  065F  2E61               	goto	u6370
  4103  0660                     u6371:
  4104  0660  2E77               	goto	l6387
  4105  0661                     u6370:
  4106                           	line	144
  4107                           	
  4108  0661                     l14417:	
  4109                           ;SettingModeHandler.c: 144: lcd_writeThisStringAt(1, 10, "W:");
  4110  0661  300A               	movlw	(0Ah)
  4111  0662  00BB               	movwf	(??_UpdateScreen+0)+0
  4112  0663  083B               	movf	(??_UpdateScreen+0)+0,w
  4113  0664  00B4               	movwf	(?_lcd_writeThisStringAt)
  4114  0665  30D5               	movlw	low((STR_16-__stringbase))
  4115  0666  00B5               	movwf	(0+?_lcd_writeThisStringAt+01h)
  4116  0667  3080               	movlw	80h
  4117  0668  00B6               	movwf	(1+?_lcd_writeThisStringAt+01h)
  4118  0669  3001               	movlw	(01h)
  4119  066A  160A  118A  25F1   	fcall	_lcd_writeThisStringAt
              120A  118A         
  4120                           	line	145
  4121                           ;SettingModeHandler.c: 145: lcd_writeThisDigit(CurrentWaterQuantity_forCoffee);
  4122  066F  1283               	bcf	status, 5	;RP0=0, select bank0
  4123  0670  1303               	bcf	status, 6	;RP1=0, select bank0
  4124  0671  0842               	movf	(_CurrentWaterQuantity_forCoffee),w
  4125  0672  120A  158A  24CA   	fcall	_lcd_writeThisDigit
              120A  118A         
  4126                           	line	146
  4127                           	
  4128  0677                     l6387:	
  4129                           	line	147
  4130                           	
  4131  0677                     l6386:	
  4132                           	
  4133  0677                     l6384:	
  4134                           	line	148
  4135                           	
  4136  0677                     l14419:	
  4137                           ;SettingModeHandler.c: 146: }
  4138                           ;SettingModeHandler.c: 147: }
  4139                           ;SettingModeHandler.c: 148: if (2 == ScreenIndex) {
  4140  0677  1283               	bcf	status, 5	;RP0=0, select bank0
  4141  0678  1303               	bcf	status, 6	;RP1=0, select bank0
  4142  0679  0845               	movf	(_ScreenIndex),w
  4143  067A  3A02               	xorlw	02h
  4144  067B  1D03               	skipz
  4145  067C  2E7E               	goto	u6381
  4146  067D  2E7F               	goto	u6380
  4147  067E                     u6381:
  4148  067E  2EAD               	goto	l6388
  4149  067F                     u6380:
  4150                           	line	149
  4151                           	
  4152  067F                     l14421:	
  4153                           ;SettingModeHandler.c: 149: lcd_writeThisStringAt(0, 2, "SET DEFAULTS");
  4154  067F  3002               	movlw	(02h)
  4155  0680  00BB               	movwf	(??_UpdateScreen+0)+0
  4156  0681  083B               	movf	(??_UpdateScreen+0)+0,w
  4157  0682  00B4               	movwf	(?_lcd_writeThisStringAt)
  4158  0683  30A9               	movlw	low((STR_17-__stringbase))
  4159  0684  00B5               	movwf	(0+?_lcd_writeThisStringAt+01h)
  4160  0685  3080               	movlw	80h
  4161  0686  00B6               	movwf	(1+?_lcd_writeThisStringAt+01h)
  4162  0687  3000               	movlw	(0)
  4163  0688  160A  118A  25F1   	fcall	_lcd_writeThisStringAt
              120A  118A         
  4164                           	line	150
  4165                           ;SettingModeHandler.c: 150: lcd_writeThisStringAt(1, 2, "YES");
  4166  068D  3002               	movlw	(02h)
  4167  068E  1283               	bcf	status, 5	;RP0=0, select bank0
  4168  068F  1303               	bcf	status, 6	;RP1=0, select bank0
  4169  0690  00BB               	movwf	(??_UpdateScreen+0)+0
  4170  0691  083B               	movf	(??_UpdateScreen+0)+0,w
  4171  0692  00B4               	movwf	(?_lcd_writeThisStringAt)
  4172  0693  30CB               	movlw	low((STR_18-__stringbase))
  4173  0694  00B5               	movwf	(0+?_lcd_writeThisStringAt+01h)
  4174  0695  3080               	movlw	80h
  4175  0696  00B6               	movwf	(1+?_lcd_writeThisStringAt+01h)
  4176  0697  3001               	movlw	(01h)
  4177  0698  160A  118A  25F1   	fcall	_lcd_writeThisStringAt
              120A  118A         
  4178                           	line	151
  4179                           ;SettingModeHandler.c: 151: lcd_writeThisStringAt(1, 10, "NO");
  4180  069D  300A               	movlw	(0Ah)
  4181  069E  1283               	bcf	status, 5	;RP0=0, select bank0
  4182  069F  1303               	bcf	status, 6	;RP1=0, select bank0
  4183  06A0  00BB               	movwf	(??_UpdateScreen+0)+0
  4184  06A1  083B               	movf	(??_UpdateScreen+0)+0,w
  4185  06A2  00B4               	movwf	(?_lcd_writeThisStringAt)
  4186  06A3  30D8               	movlw	low((STR_19-__stringbase))
  4187  06A4  00B5               	movwf	(0+?_lcd_writeThisStringAt+01h)
  4188  06A5  3080               	movlw	80h
  4189  06A6  00B6               	movwf	(1+?_lcd_writeThisStringAt+01h)
  4190  06A7  3001               	movlw	(01h)
  4191  06A8  160A  118A  25F1   	fcall	_lcd_writeThisStringAt
              120A  118A         
  4192                           	line	152
  4193                           	
  4194  06AD                     l6388:	
  4195                           	line	154
  4196                           	
  4197  06AD                     l14423:	
  4198                           ;SettingModeHandler.c: 152: }
  4199                           ;SettingModeHandler.c: 154: _delay((unsigned long)((3000)*(20000000/4000.0)));
  4200                           	opt asmopt_off
  4201  06AD  304C               movlw  76
  4202  06AE  1283               	bcf	status, 5	;RP0=0, select bank0
  4203  06AF  1303               	bcf	status, 6	;RP1=0, select bank0
  4204  06B0  00BD               movwf	((??_UpdateScreen+0)+0+2),f
  4205  06B1  30CE               movlw	206
  4206  06B2  00BC               movwf	((??_UpdateScreen+0)+0+1),f
  4207  06B3  3081               	movlw	129
  4208  06B4  00BB               movwf	((??_UpdateScreen+0)+0),f
  4209  06B5                     u7007:
  4210  06B5  0BBB               	decfsz	((??_UpdateScreen+0)+0),f
  4211  06B6  2EB5               	goto	u7007
  4212  06B7  0BBC               	decfsz	((??_UpdateScreen+0)+0+1),f
  4213  06B8  2EB5               	goto	u7007
  4214  06B9  0BBD               	decfsz	((??_UpdateScreen+0)+0+2),f
  4215  06BA  2EB5               	goto	u7007
  4216  06BB  0064               	clrwdt
  4217                           opt asmopt_on
  4218                           
  4219                           	line	155
  4220                           	
  4221  06BC                     l6389:	
  4222  06BC  0008               	return
  4223                           	opt stack 0
  4224                           GLOBAL	__end_of_UpdateScreen
  4225  06BD                     	__end_of_UpdateScreen:
  4226 ;; =============== function _UpdateScreen ends ============
  4227                           
  4228                           	signat	_UpdateScreen,4216
  4229                           	global	_default_bootSequence
  4230                           psect	text1644,local,class=CODE,delta=2
  4231                           global __ptext1644
  4232  1648                     __ptext1644:
  4233                           
  4234 ;; *************** function _default_bootSequence *****************
  4235 ;; Defined at:
  4236 ;;		line 97 in file "MainCode.c"
  4237 ;; Parameters:    Size  Location     Type
  4238 ;;		None
  4239 ;; Auto vars:     Size  Location     Type
  4240 ;;		None
  4241 ;; Return value:  Size  Location     Type
  4242 ;;		None               void
  4243 ;; Registers used:
  4244 ;;		wreg, fsr0l, fsr0h, status,2, status,0, btemp+0, btemp+1, pclath, cstack
  4245 ;; Tracked objects:
  4246 ;;		On entry : 0/0
  4247 ;;		On exit  : 0/0
  4248 ;;		Unchanged: 0/0
  4249 ;; Data sizes:     COMMON   BANK0   BANK1   BANK3   BANK2
  4250 ;;      Params:         0       0       0       0       0
  4251 ;;      Locals:         0       0       0       0       0
  4252 ;;      Temps:          0       3       0       0       0
  4253 ;;      Totals:         0       3       0       0       0
  4254 ;;Total ram usage:        3 bytes
  4255 ;; Hardware stack levels used:    1
  4256 ;; Hardware stack levels required when called:    9
  4257 ;; This function calls:
  4258 ;;		_lcd_writeThisStringAt
  4259 ;; This function is called by:
  4260 ;;		_main
  4261 ;; This function uses a non-reentrant model
  4262 ;;
  4263                           psect	text1644
  4264                           	file	"MainCode.c"
  4265                           	line	97
  4266                           	global	__size_of_default_bootSequence
  4267  0020                     	__size_of_default_bootSequence	equ	__end_of_default_bootSequence-_default_bootSequence
  4268                           	
  4269  1648                     _default_bootSequence:	
  4270                           	opt	stack 7
  4271                           ; Regs used in _default_bootSequence: [wreg-fsr0h+status,2-btemp+1+pclath+cstack]
  4272                           	line	98
  4273                           	
  4274  1648                     l14389:	
  4275                           ;MainCode.c: 98: lcd_writeThisStringAt(0, 0, "Starting....");
  4276  1648  1003               	clrc
  4277  1649  3000               	movlw	0
  4278  164A  1803               	btfsc	status,0
  4279  164B  3001               	movlw	1
  4280  164C  1283               	bcf	status, 5	;RP0=0, select bank0
  4281  164D  1303               	bcf	status, 6	;RP1=0, select bank0
  4282  164E  00B4               	movwf	(?_lcd_writeThisStringAt)
  4283  164F  30B6               	movlw	low((STR_6-__stringbase))
  4284  1650  00B5               	movwf	(0+?_lcd_writeThisStringAt+01h)
  4285  1651  3080               	movlw	80h
  4286  1652  00B6               	movwf	(1+?_lcd_writeThisStringAt+01h)
  4287  1653  3000               	movlw	(0)
  4288  1654  160A  118A  25F1   	fcall	_lcd_writeThisStringAt
              160A  118A         
  4289                           	line	99
  4290                           	
  4291  1659                     l14391:	
  4292                           ;MainCode.c: 99: _delay((unsigned long)((1000)*(20000000/4000.0)));
  4293                           	opt asmopt_off
  4294  1659  301A               movlw  26
  4295  165A  1283               	bcf	status, 5	;RP0=0, select bank0
  4296  165B  1303               	bcf	status, 6	;RP1=0, select bank0
  4297  165C  00BB               movwf	((??_default_bootSequence+0)+0+2),f
  4298  165D  3045               movlw	69
  4299  165E  00BA               movwf	((??_default_bootSequence+0)+0+1),f
  4300  165F  307E               	movlw	126
  4301  1660  00B9               movwf	((??_default_bootSequence+0)+0),f
  4302  1661                     u7017:
  4303  1661  0BB9               	decfsz	((??_default_bootSequence+0)+0),f
  4304  1662  2E61               	goto	u7017
  4305  1663  0BBA               	decfsz	((??_default_bootSequence+0)+0+1),f
  4306  1664  2E61               	goto	u7017
  4307  1665  0BBB               	decfsz	((??_default_bootSequence+0)+0+2),f
  4308  1666  2E61               	goto	u7017
  4309                           opt asmopt_on
  4310                           
  4311                           	line	100
  4312                           	
  4313  1667                     l4526:	
  4314  1667  0008               	return
  4315                           	opt stack 0
  4316                           GLOBAL	__end_of_default_bootSequence
  4317  1668                     	__end_of_default_bootSequence:
  4318 ;; =============== function _default_bootSequence ends ============
  4319                           
  4320                           	signat	_default_bootSequence,88
  4321                           	global	_serveHotWater
  4322                           psect	text1645,local,class=CODE,delta=2
  4323                           global __ptext1645
  4324  16FB                     __ptext1645:
  4325                           
  4326 ;; *************** function _serveHotWater *****************
  4327 ;; Defined at:
  4328 ;;		line 24 in file "serveMethods.c"
  4329 ;; Parameters:    Size  Location     Type
  4330 ;;		None
  4331 ;; Auto vars:     Size  Location     Type
  4332 ;;		None
  4333 ;; Return value:  Size  Location     Type
  4334 ;;		None               void
  4335 ;; Registers used:
  4336 ;;		wreg, fsr0l, fsr0h, status,2, status,0, btemp+0, btemp+1, pclath, cstack
  4337 ;; Tracked objects:
  4338 ;;		On entry : 0/0
  4339 ;;		On exit  : 0/0
  4340 ;;		Unchanged: 0/0
  4341 ;; Data sizes:     COMMON   BANK0   BANK1   BANK3   BANK2
  4342 ;;      Params:         0       0       0       0       0
  4343 ;;      Locals:         0       0       0       0       0
  4344 ;;      Temps:          0       3       0       0       0
  4345 ;;      Totals:         0       3       0       0       0
  4346 ;;Total ram usage:        3 bytes
  4347 ;; Hardware stack levels used:    1
  4348 ;; Hardware stack levels required when called:    9
  4349 ;; This function calls:
  4350 ;;		_lcd_writeThisStringAt
  4351 ;;		_lcd_clear
  4352 ;; This function is called by:
  4353 ;;		_NormalModeOperations
  4354 ;; This function uses a non-reentrant model
  4355 ;;
  4356                           psect	text1645
  4357                           	file	"serveMethods.c"
  4358                           	line	24
  4359                           	global	__size_of_serveHotWater
  4360  0025                     	__size_of_serveHotWater	equ	__end_of_serveHotWater-_serveHotWater
  4361                           	
  4362  16FB                     _serveHotWater:	
  4363                           	opt	stack 5
  4364                           ; Regs used in _serveHotWater: [wreg-fsr0h+status,2-btemp+1+pclath+cstack]
  4365                           	line	25
  4366                           	
  4367  16FB                     l14383:	
  4368                           ;serveMethods.c: 25: lcd_writeThisStringAt(0, 0, "Serving Water..");
  4369  16FB  1003               	clrc
  4370  16FC  3000               	movlw	0
  4371  16FD  1803               	btfsc	status,0
  4372  16FE  3001               	movlw	1
  4373  16FF  1283               	bcf	status, 5	;RP0=0, select bank0
  4374  1700  1303               	bcf	status, 6	;RP1=0, select bank0
  4375  1701  00B4               	movwf	(?_lcd_writeThisStringAt)
  4376  1702  3023               	movlw	low((STR_23-__stringbase))
  4377  1703  00B5               	movwf	(0+?_lcd_writeThisStringAt+01h)
  4378  1704  3080               	movlw	80h
  4379  1705  00B6               	movwf	(1+?_lcd_writeThisStringAt+01h)
  4380  1706  3000               	movlw	(0)
  4381  1707  160A  118A  25F1   	fcall	_lcd_writeThisStringAt
              160A  118A         
  4382                           	line	27
  4383                           	
  4384  170C                     l14385:	
  4385                           ;serveMethods.c: 27: _delay((unsigned long)((1000)*(20000000/4000.0)));
  4386                           	opt asmopt_off
  4387  170C  301A               movlw  26
  4388  170D  1283               	bcf	status, 5	;RP0=0, select bank0
  4389  170E  1303               	bcf	status, 6	;RP1=0, select bank0
  4390  170F  00BB               movwf	((??_serveHotWater+0)+0+2),f
  4391  1710  3045               movlw	69
  4392  1711  00BA               movwf	((??_serveHotWater+0)+0+1),f
  4393  1712  307E               	movlw	126
  4394  1713  00B9               movwf	((??_serveHotWater+0)+0),f
  4395  1714                     u7027:
  4396  1714  0BB9               	decfsz	((??_serveHotWater+0)+0),f
  4397  1715  2F14               	goto	u7027
  4398  1716  0BBA               	decfsz	((??_serveHotWater+0)+0+1),f
  4399  1717  2F14               	goto	u7027
  4400  1718  0BBB               	decfsz	((??_serveHotWater+0)+0+2),f
  4401  1719  2F14               	goto	u7027
  4402                           opt asmopt_on
  4403                           
  4404                           	line	28
  4405                           	
  4406  171A                     l14387:	
  4407                           ;serveMethods.c: 28: lcd_clear();
  4408  171A  160A  118A  2569   	fcall	_lcd_clear
              160A  118A         
  4409                           	line	29
  4410                           	
  4411  171F                     l8184:	
  4412  171F  0008               	return
  4413                           	opt stack 0
  4414                           GLOBAL	__end_of_serveHotWater
  4415  1720                     	__end_of_serveHotWater:
  4416 ;; =============== function _serveHotWater ends ============
  4417                           
  4418                           	signat	_serveHotWater,88
  4419                           	global	_serveTea
  4420                           psect	text1646,local,class=CODE,delta=2
  4421                           global __ptext1646
  4422  16D6                     __ptext1646:
  4423                           
  4424 ;; *************** function _serveTea *****************
  4425 ;; Defined at:
  4426 ;;		line 17 in file "serveMethods.c"
  4427 ;; Parameters:    Size  Location     Type
  4428 ;;		None
  4429 ;; Auto vars:     Size  Location     Type
  4430 ;;		None
  4431 ;; Return value:  Size  Location     Type
  4432 ;;		None               void
  4433 ;; Registers used:
  4434 ;;		wreg, fsr0l, fsr0h, status,2, status,0, btemp+0, btemp+1, pclath, cstack
  4435 ;; Tracked objects:
  4436 ;;		On entry : 0/0
  4437 ;;		On exit  : 0/0
  4438 ;;		Unchanged: 0/0
  4439 ;; Data sizes:     COMMON   BANK0   BANK1   BANK3   BANK2
  4440 ;;      Params:         0       0       0       0       0
  4441 ;;      Locals:         0       0       0       0       0
  4442 ;;      Temps:          0       3       0       0       0
  4443 ;;      Totals:         0       3       0       0       0
  4444 ;;Total ram usage:        3 bytes
  4445 ;; Hardware stack levels used:    1
  4446 ;; Hardware stack levels required when called:    9
  4447 ;; This function calls:
  4448 ;;		_lcd_writeThisStringAt
  4449 ;;		_lcd_clear
  4450 ;; This function is called by:
  4451 ;;		_NormalModeOperations
  4452 ;; This function uses a non-reentrant model
  4453 ;;
  4454                           psect	text1646
  4455                           	file	"serveMethods.c"
  4456                           	line	17
  4457                           	global	__size_of_serveTea
  4458  0025                     	__size_of_serveTea	equ	__end_of_serveTea-_serveTea
  4459                           	
  4460  16D6                     _serveTea:	
  4461                           	opt	stack 5
  4462                           ; Regs used in _serveTea: [wreg-fsr0h+status,2-btemp+1+pclath+cstack]
  4463                           	line	18
  4464                           	
  4465  16D6                     l14377:	
  4466                           ;serveMethods.c: 18: lcd_writeThisStringAt(0, 0, "Serving Tea..");
  4467  16D6  1003               	clrc
  4468  16D7  3000               	movlw	0
  4469  16D8  1803               	btfsc	status,0
  4470  16D9  3001               	movlw	1
  4471  16DA  1283               	bcf	status, 5	;RP0=0, select bank0
  4472  16DB  1303               	bcf	status, 6	;RP1=0, select bank0
  4473  16DC  00B4               	movwf	(?_lcd_writeThisStringAt)
  4474  16DD  3080               	movlw	low((STR_22-__stringbase))
  4475  16DE  00B5               	movwf	(0+?_lcd_writeThisStringAt+01h)
  4476  16DF  3080               	movlw	80h
  4477  16E0  00B6               	movwf	(1+?_lcd_writeThisStringAt+01h)
  4478  16E1  3000               	movlw	(0)
  4479  16E2  160A  118A  25F1   	fcall	_lcd_writeThisStringAt
              160A  118A         
  4480                           	line	20
  4481                           	
  4482  16E7                     l14379:	
  4483                           ;serveMethods.c: 20: _delay((unsigned long)((1000)*(20000000/4000.0)));
  4484                           	opt asmopt_off
  4485  16E7  301A               movlw  26
  4486  16E8  1283               	bcf	status, 5	;RP0=0, select bank0
  4487  16E9  1303               	bcf	status, 6	;RP1=0, select bank0
  4488  16EA  00BB               movwf	((??_serveTea+0)+0+2),f
  4489  16EB  3045               movlw	69
  4490  16EC  00BA               movwf	((??_serveTea+0)+0+1),f
  4491  16ED  307E               	movlw	126
  4492  16EE  00B9               movwf	((??_serveTea+0)+0),f
  4493  16EF                     u7037:
  4494  16EF  0BB9               	decfsz	((??_serveTea+0)+0),f
  4495  16F0  2EEF               	goto	u7037
  4496  16F1  0BBA               	decfsz	((??_serveTea+0)+0+1),f
  4497  16F2  2EEF               	goto	u7037
  4498  16F3  0BBB               	decfsz	((??_serveTea+0)+0+2),f
  4499  16F4  2EEF               	goto	u7037
  4500                           opt asmopt_on
  4501                           
  4502                           	line	21
  4503                           	
  4504  16F5                     l14381:	
  4505                           ;serveMethods.c: 21: lcd_clear();
  4506  16F5  160A  118A  2569   	fcall	_lcd_clear
              160A  118A         
  4507                           	line	22
  4508                           	
  4509  16FA                     l8181:	
  4510  16FA  0008               	return
  4511                           	opt stack 0
  4512                           GLOBAL	__end_of_serveTea
  4513  16FB                     	__end_of_serveTea:
  4514 ;; =============== function _serveTea ends ============
  4515                           
  4516                           	signat	_serveTea,88
  4517                           	global	_serveHalfQuantity
  4518                           psect	text1647,local,class=CODE,delta=2
  4519                           global __ptext1647
  4520  16B1                     __ptext1647:
  4521                           
  4522 ;; *************** function _serveHalfQuantity *****************
  4523 ;; Defined at:
  4524 ;;		line 10 in file "serveMethods.c"
  4525 ;; Parameters:    Size  Location     Type
  4526 ;;		None
  4527 ;; Auto vars:     Size  Location     Type
  4528 ;;		None
  4529 ;; Return value:  Size  Location     Type
  4530 ;;		None               void
  4531 ;; Registers used:
  4532 ;;		wreg, fsr0l, fsr0h, status,2, status,0, btemp+0, btemp+1, pclath, cstack
  4533 ;; Tracked objects:
  4534 ;;		On entry : 0/0
  4535 ;;		On exit  : 0/0
  4536 ;;		Unchanged: 0/0
  4537 ;; Data sizes:     COMMON   BANK0   BANK1   BANK3   BANK2
  4538 ;;      Params:         0       0       0       0       0
  4539 ;;      Locals:         0       0       0       0       0
  4540 ;;      Temps:          0       3       0       0       0
  4541 ;;      Totals:         0       3       0       0       0
  4542 ;;Total ram usage:        3 bytes
  4543 ;; Hardware stack levels used:    1
  4544 ;; Hardware stack levels required when called:    9
  4545 ;; This function calls:
  4546 ;;		_lcd_writeThisStringAt
  4547 ;;		_lcd_clear
  4548 ;; This function is called by:
  4549 ;;		_NormalModeOperations
  4550 ;; This function uses a non-reentrant model
  4551 ;;
  4552                           psect	text1647
  4553                           	file	"serveMethods.c"
  4554                           	line	10
  4555                           	global	__size_of_serveHalfQuantity
  4556  0025                     	__size_of_serveHalfQuantity	equ	__end_of_serveHalfQuantity-_serveHalfQuantity
  4557                           	
  4558  16B1                     _serveHalfQuantity:	
  4559                           	opt	stack 5
  4560                           ; Regs used in _serveHalfQuantity: [wreg-fsr0h+status,2-btemp+1+pclath+cstack]
  4561                           	line	11
  4562                           	
  4563  16B1                     l14371:	
  4564                           ;serveMethods.c: 11: lcd_writeThisStringAt(0, 0, "Serving Half..");
  4565  16B1  1003               	clrc
  4566  16B2  3000               	movlw	0
  4567  16B3  1803               	btfsc	status,0
  4568  16B4  3001               	movlw	1
  4569  16B5  1283               	bcf	status, 5	;RP0=0, select bank0
  4570  16B6  1303               	bcf	status, 6	;RP1=0, select bank0
  4571  16B7  00B4               	movwf	(?_lcd_writeThisStringAt)
  4572  16B8  3053               	movlw	low((STR_21-__stringbase))
  4573  16B9  00B5               	movwf	(0+?_lcd_writeThisStringAt+01h)
  4574  16BA  3080               	movlw	80h
  4575  16BB  00B6               	movwf	(1+?_lcd_writeThisStringAt+01h)
  4576  16BC  3000               	movlw	(0)
  4577  16BD  160A  118A  25F1   	fcall	_lcd_writeThisStringAt
              160A  118A         
  4578                           	line	13
  4579                           	
  4580  16C2                     l14373:	
  4581                           ;serveMethods.c: 13: _delay((unsigned long)((1000)*(20000000/4000.0)));
  4582                           	opt asmopt_off
  4583  16C2  301A               movlw  26
  4584  16C3  1283               	bcf	status, 5	;RP0=0, select bank0
  4585  16C4  1303               	bcf	status, 6	;RP1=0, select bank0
  4586  16C5  00BB               movwf	((??_serveHalfQuantity+0)+0+2),f
  4587  16C6  3045               movlw	69
  4588  16C7  00BA               movwf	((??_serveHalfQuantity+0)+0+1),f
  4589  16C8  307E               	movlw	126
  4590  16C9  00B9               movwf	((??_serveHalfQuantity+0)+0),f
  4591  16CA                     u7047:
  4592  16CA  0BB9               	decfsz	((??_serveHalfQuantity+0)+0),f
  4593  16CB  2ECA               	goto	u7047
  4594  16CC  0BBA               	decfsz	((??_serveHalfQuantity+0)+0+1),f
  4595  16CD  2ECA               	goto	u7047
  4596  16CE  0BBB               	decfsz	((??_serveHalfQuantity+0)+0+2),f
  4597  16CF  2ECA               	goto	u7047
  4598                           opt asmopt_on
  4599                           
  4600                           	line	14
  4601                           	
  4602  16D0                     l14375:	
  4603                           ;serveMethods.c: 14: lcd_clear();
  4604  16D0  160A  118A  2569   	fcall	_lcd_clear
              160A  118A         
  4605                           	line	15
  4606                           	
  4607  16D5                     l8178:	
  4608  16D5  0008               	return
  4609                           	opt stack 0
  4610                           GLOBAL	__end_of_serveHalfQuantity
  4611  16D6                     	__end_of_serveHalfQuantity:
  4612 ;; =============== function _serveHalfQuantity ends ============
  4613                           
  4614                           	signat	_serveHalfQuantity,88
  4615                           	global	_serveCoffee
  4616                           psect	text1648,local,class=CODE,delta=2
  4617                           global __ptext1648
  4618  168C                     __ptext1648:
  4619                           
  4620 ;; *************** function _serveCoffee *****************
  4621 ;; Defined at:
  4622 ;;		line 3 in file "serveMethods.c"
  4623 ;; Parameters:    Size  Location     Type
  4624 ;;		None
  4625 ;; Auto vars:     Size  Location     Type
  4626 ;;		None
  4627 ;; Return value:  Size  Location     Type
  4628 ;;		None               void
  4629 ;; Registers used:
  4630 ;;		wreg, fsr0l, fsr0h, status,2, status,0, btemp+0, btemp+1, pclath, cstack
  4631 ;; Tracked objects:
  4632 ;;		On entry : 0/0
  4633 ;;		On exit  : 0/0
  4634 ;;		Unchanged: 0/0
  4635 ;; Data sizes:     COMMON   BANK0   BANK1   BANK3   BANK2
  4636 ;;      Params:         0       0       0       0       0
  4637 ;;      Locals:         0       0       0       0       0
  4638 ;;      Temps:          0       3       0       0       0
  4639 ;;      Totals:         0       3       0       0       0
  4640 ;;Total ram usage:        3 bytes
  4641 ;; Hardware stack levels used:    1
  4642 ;; Hardware stack levels required when called:    9
  4643 ;; This function calls:
  4644 ;;		_lcd_writeThisStringAt
  4645 ;;		_lcd_clear
  4646 ;; This function is called by:
  4647 ;;		_NormalModeOperations
  4648 ;; This function uses a non-reentrant model
  4649 ;;
  4650                           psect	text1648
  4651                           	file	"serveMethods.c"
  4652                           	line	3
  4653                           	global	__size_of_serveCoffee
  4654  0025                     	__size_of_serveCoffee	equ	__end_of_serveCoffee-_serveCoffee
  4655                           	
  4656  168C                     _serveCoffee:	
  4657                           	opt	stack 5
  4658                           ; Regs used in _serveCoffee: [wreg-fsr0h+status,2-btemp+1+pclath+cstack]
  4659                           	line	4
  4660                           	
  4661  168C                     l14365:	
  4662                           ;serveMethods.c: 4: lcd_writeThisStringAt(0, 0, "Serving Coffee..");
  4663  168C  1003               	clrc
  4664  168D  3000               	movlw	0
  4665  168E  1803               	btfsc	status,0
  4666  168F  3001               	movlw	1
  4667  1690  1283               	bcf	status, 5	;RP0=0, select bank0
  4668  1691  1303               	bcf	status, 6	;RP1=0, select bank0
  4669  1692  00B4               	movwf	(?_lcd_writeThisStringAt)
  4670  1693  3001               	movlw	low((STR_20-__stringbase))
  4671  1694  00B5               	movwf	(0+?_lcd_writeThisStringAt+01h)
  4672  1695  3080               	movlw	80h
  4673  1696  00B6               	movwf	(1+?_lcd_writeThisStringAt+01h)
  4674  1697  3000               	movlw	(0)
  4675  1698  160A  118A  25F1   	fcall	_lcd_writeThisStringAt
              160A  118A         
  4676                           	line	6
  4677                           	
  4678  169D                     l14367:	
  4679                           ;serveMethods.c: 6: _delay((unsigned long)((1000)*(20000000/4000.0)));
  4680                           	opt asmopt_off
  4681  169D  301A               movlw  26
  4682  169E  1283               	bcf	status, 5	;RP0=0, select bank0
  4683  169F  1303               	bcf	status, 6	;RP1=0, select bank0
  4684  16A0  00BB               movwf	((??_serveCoffee+0)+0+2),f
  4685  16A1  3045               movlw	69
  4686  16A2  00BA               movwf	((??_serveCoffee+0)+0+1),f
  4687  16A3  307E               	movlw	126
  4688  16A4  00B9               movwf	((??_serveCoffee+0)+0),f
  4689  16A5                     u7057:
  4690  16A5  0BB9               	decfsz	((??_serveCoffee+0)+0),f
  4691  16A6  2EA5               	goto	u7057
  4692  16A7  0BBA               	decfsz	((??_serveCoffee+0)+0+1),f
  4693  16A8  2EA5               	goto	u7057
  4694  16A9  0BBB               	decfsz	((??_serveCoffee+0)+0+2),f
  4695  16AA  2EA5               	goto	u7057
  4696                           opt asmopt_on
  4697                           
  4698                           	line	7
  4699                           	
  4700  16AB                     l14369:	
  4701                           ;serveMethods.c: 7: lcd_clear();
  4702  16AB  160A  118A  2569   	fcall	_lcd_clear
              160A  118A         
  4703                           	line	8
  4704                           	
  4705  16B0                     l8175:	
  4706  16B0  0008               	return
  4707                           	opt stack 0
  4708                           GLOBAL	__end_of_serveCoffee
  4709  16B1                     	__end_of_serveCoffee:
  4710 ;; =============== function _serveCoffee ends ============
  4711                           
  4712                           	signat	_serveCoffee,88
  4713                           	global	_lcd_writeThisDigit
  4714                           psect	text1649,local,class=CODE,delta=2
  4715                           global __ptext1649
  4716  0CCA                     __ptext1649:
  4717                           
  4718 ;; *************** function _lcd_writeThisDigit *****************
  4719 ;; Defined at:
  4720 ;;		line 125 in file "lcd.c"
  4721 ;; Parameters:    Size  Location     Type
  4722 ;;  data            1    wreg     unsigned char 
  4723 ;; Auto vars:     Size  Location     Type
  4724 ;;  data            1    4[BANK1 ] unsigned char 
  4725 ;;  string          4    0[BANK1 ] unsigned char [4]
  4726 ;; Return value:  Size  Location     Type
  4727 ;;		None               void
  4728 ;; Registers used:
  4729 ;;		wreg, fsr0l, fsr0h, status,2, status,0, btemp+0, btemp+1, pclath, cstack
  4730 ;; Tracked objects:
  4731 ;;		On entry : 0/0
  4732 ;;		On exit  : 0/0
  4733 ;;		Unchanged: 0/0
  4734 ;; Data sizes:     COMMON   BANK0   BANK1   BANK3   BANK2
  4735 ;;      Params:         0       0       0       0       0
  4736 ;;      Locals:         0       0       5       0       0
  4737 ;;      Temps:          0       3       0       0       0
  4738 ;;      Totals:         0       3       5       0       0
  4739 ;;Total ram usage:        8 bytes
  4740 ;; Hardware stack levels used:    1
  4741 ;; Hardware stack levels required when called:    8
  4742 ;; This function calls:
  4743 ;;		___awmod
  4744 ;;		___awdiv
  4745 ;;		_lcd_puts
  4746 ;; This function is called by:
  4747 ;;		_UpdateScreen
  4748 ;; This function uses a non-reentrant model
  4749 ;;
  4750                           psect	text1649
  4751                           	file	"lcd.c"
  4752                           	line	125
  4753                           	global	__size_of_lcd_writeThisDigit
  4754  00C0                     	__size_of_lcd_writeThisDigit	equ	__end_of_lcd_writeThisDigit-_lcd_writeThisDigit
  4755                           	
  4756  0CCA                     _lcd_writeThisDigit:	
  4757                           	opt	stack 3
  4758                           ; Regs used in _lcd_writeThisDigit: [wreg-fsr0h+status,2-btemp+1+pclath+cstack]
  4759                           ;lcd_writeThisDigit@data stored from wreg
  4760                           	line	126
  4761  0CCA  1683               	bsf	status, 5	;RP0=1, select bank1
  4762  0CCB  1303               	bcf	status, 6	;RP1=0, select bank1
  4763  0CCC  00A4               	movwf	(lcd_writeThisDigit@data)^080h
  4764                           	
  4765  0CCD                     l14351:	
  4766                           ;lcd.c: 126: UByte string[4]= {'0','0','0','\0'};
  4767  0CCD  1283               	bcf	status, 5	;RP0=0, select bank0
  4768  0CCE  1303               	bcf	status, 6	;RP1=0, select bank0
  4769  0CCF  085E               	movf	(lcd_writeThisDigit@F912+3),w
  4770  0CD0  1683               	bsf	status, 5	;RP0=1, select bank1
  4771  0CD1  1303               	bcf	status, 6	;RP1=0, select bank1
  4772  0CD2  00A3               	movwf	(lcd_writeThisDigit@string+3)^080h
  4773  0CD3  1283               	bcf	status, 5	;RP0=0, select bank0
  4774  0CD4  1303               	bcf	status, 6	;RP1=0, select bank0
  4775  0CD5  085D               	movf	(lcd_writeThisDigit@F912+2),w
  4776  0CD6  1683               	bsf	status, 5	;RP0=1, select bank1
  4777  0CD7  1303               	bcf	status, 6	;RP1=0, select bank1
  4778  0CD8  00A2               	movwf	(lcd_writeThisDigit@string+2)^080h
  4779  0CD9  1283               	bcf	status, 5	;RP0=0, select bank0
  4780  0CDA  1303               	bcf	status, 6	;RP1=0, select bank0
  4781  0CDB  085C               	movf	(lcd_writeThisDigit@F912+1),w
  4782  0CDC  1683               	bsf	status, 5	;RP0=1, select bank1
  4783  0CDD  1303               	bcf	status, 6	;RP1=0, select bank1
  4784  0CDE  00A1               	movwf	(lcd_writeThisDigit@string+1)^080h
  4785  0CDF  1283               	bcf	status, 5	;RP0=0, select bank0
  4786  0CE0  1303               	bcf	status, 6	;RP1=0, select bank0
  4787  0CE1  085B               	movf	(lcd_writeThisDigit@F912),w
  4788  0CE2  1683               	bsf	status, 5	;RP0=1, select bank1
  4789  0CE3  1303               	bcf	status, 6	;RP1=0, select bank1
  4790  0CE4  00A0               	movwf	(lcd_writeThisDigit@string)^080h
  4791                           
  4792                           	line	128
  4793                           	
  4794  0CE5                     l14353:	
  4795                           ;lcd.c: 128: string[2] = data%10 + 0x30;
  4796  0CE5  300A               	movlw	low(0Ah)
  4797  0CE6  1283               	bcf	status, 5	;RP0=0, select bank0
  4798  0CE7  1303               	bcf	status, 6	;RP1=0, select bank0
  4799  0CE8  00AF               	movwf	(?___awmod)
  4800  0CE9  3000               	movlw	high(0Ah)
  4801  0CEA  00B0               	movwf	((?___awmod))+1
  4802  0CEB  1683               	bsf	status, 5	;RP0=1, select bank1
  4803  0CEC  1303               	bcf	status, 6	;RP1=0, select bank1
  4804  0CED  0824               	movf	(lcd_writeThisDigit@data)^080h,w
  4805  0CEE  1283               	bcf	status, 5	;RP0=0, select bank0
  4806  0CEF  1303               	bcf	status, 6	;RP1=0, select bank0
  4807  0CF0  00B8               	movwf	(??_lcd_writeThisDigit+0)+0
  4808  0CF1  01B9               	clrf	(??_lcd_writeThisDigit+0)+0+1
  4809  0CF2  0838               	movf	0+(??_lcd_writeThisDigit+0)+0,w
  4810  0CF3  00B1               	movwf	0+(?___awmod)+02h
  4811  0CF4  0839               	movf	1+(??_lcd_writeThisDigit+0)+0,w
  4812  0CF5  00B2               	movwf	1+(?___awmod)+02h
  4813  0CF6  120A  158A  224E   	fcall	___awmod
              120A  158A         
  4814  0CFB  1283               	bcf	status, 5	;RP0=0, select bank0
  4815  0CFC  1303               	bcf	status, 6	;RP1=0, select bank0
  4816  0CFD  082F               	movf	(0+(?___awmod)),w
  4817  0CFE  3E30               	addlw	030h
  4818  0CFF  00BA               	movwf	(??_lcd_writeThisDigit+2)+0
  4819  0D00  083A               	movf	(??_lcd_writeThisDigit+2)+0,w
  4820  0D01  1683               	bsf	status, 5	;RP0=1, select bank1
  4821  0D02  1303               	bcf	status, 6	;RP1=0, select bank1
  4822  0D03  00A2               	movwf	0+(lcd_writeThisDigit@string)^080h+02h
  4823                           	line	129
  4824                           	
  4825  0D04                     l14355:	
  4826                           ;lcd.c: 129: data=data/10;
  4827  0D04  300A               	movlw	low(0Ah)
  4828  0D05  1283               	bcf	status, 5	;RP0=0, select bank0
  4829  0D06  1303               	bcf	status, 6	;RP1=0, select bank0
  4830  0D07  00AF               	movwf	(?___awdiv)
  4831  0D08  3000               	movlw	high(0Ah)
  4832  0D09  00B0               	movwf	((?___awdiv))+1
  4833  0D0A  1683               	bsf	status, 5	;RP0=1, select bank1
  4834  0D0B  1303               	bcf	status, 6	;RP1=0, select bank1
  4835  0D0C  0824               	movf	(lcd_writeThisDigit@data)^080h,w
  4836  0D0D  1283               	bcf	status, 5	;RP0=0, select bank0
  4837  0D0E  1303               	bcf	status, 6	;RP1=0, select bank0
  4838  0D0F  00B8               	movwf	(??_lcd_writeThisDigit+0)+0
  4839  0D10  01B9               	clrf	(??_lcd_writeThisDigit+0)+0+1
  4840  0D11  0838               	movf	0+(??_lcd_writeThisDigit+0)+0,w
  4841  0D12  00B1               	movwf	0+(?___awdiv)+02h
  4842  0D13  0839               	movf	1+(??_lcd_writeThisDigit+0)+0,w
  4843  0D14  00B2               	movwf	1+(?___awdiv)+02h
  4844  0D15  120A  158A  2320   	fcall	___awdiv
              120A  158A         
  4845  0D1A  1283               	bcf	status, 5	;RP0=0, select bank0
  4846  0D1B  1303               	bcf	status, 6	;RP1=0, select bank0
  4847  0D1C  082F               	movf	(0+(?___awdiv)),w
  4848  0D1D  00BA               	movwf	(??_lcd_writeThisDigit+2)+0
  4849  0D1E  083A               	movf	(??_lcd_writeThisDigit+2)+0,w
  4850  0D1F  1683               	bsf	status, 5	;RP0=1, select bank1
  4851  0D20  1303               	bcf	status, 6	;RP1=0, select bank1
  4852  0D21  00A4               	movwf	(lcd_writeThisDigit@data)^080h
  4853                           	line	130
  4854                           	
  4855  0D22                     l14357:	
  4856                           ;lcd.c: 130: string[1] = data%10 + 0x30;
  4857  0D22  300A               	movlw	low(0Ah)
  4858  0D23  1283               	bcf	status, 5	;RP0=0, select bank0
  4859  0D24  1303               	bcf	status, 6	;RP1=0, select bank0
  4860  0D25  00AF               	movwf	(?___awmod)
  4861  0D26  3000               	movlw	high(0Ah)
  4862  0D27  00B0               	movwf	((?___awmod))+1
  4863  0D28  1683               	bsf	status, 5	;RP0=1, select bank1
  4864  0D29  1303               	bcf	status, 6	;RP1=0, select bank1
  4865  0D2A  0824               	movf	(lcd_writeThisDigit@data)^080h,w
  4866  0D2B  1283               	bcf	status, 5	;RP0=0, select bank0
  4867  0D2C  1303               	bcf	status, 6	;RP1=0, select bank0
  4868  0D2D  00B8               	movwf	(??_lcd_writeThisDigit+0)+0
  4869  0D2E  01B9               	clrf	(??_lcd_writeThisDigit+0)+0+1
  4870  0D2F  0838               	movf	0+(??_lcd_writeThisDigit+0)+0,w
  4871  0D30  00B1               	movwf	0+(?___awmod)+02h
  4872  0D31  0839               	movf	1+(??_lcd_writeThisDigit+0)+0,w
  4873  0D32  00B2               	movwf	1+(?___awmod)+02h
  4874  0D33  120A  158A  224E   	fcall	___awmod
              120A  158A         
  4875  0D38  1283               	bcf	status, 5	;RP0=0, select bank0
  4876  0D39  1303               	bcf	status, 6	;RP1=0, select bank0
  4877  0D3A  082F               	movf	(0+(?___awmod)),w
  4878  0D3B  3E30               	addlw	030h
  4879  0D3C  00BA               	movwf	(??_lcd_writeThisDigit+2)+0
  4880  0D3D  083A               	movf	(??_lcd_writeThisDigit+2)+0,w
  4881  0D3E  1683               	bsf	status, 5	;RP0=1, select bank1
  4882  0D3F  1303               	bcf	status, 6	;RP1=0, select bank1
  4883  0D40  00A1               	movwf	0+(lcd_writeThisDigit@string)^080h+01h
  4884                           	line	131
  4885                           	
  4886  0D41                     l14359:	
  4887                           ;lcd.c: 131: data = data/10;
  4888  0D41  300A               	movlw	low(0Ah)
  4889  0D42  1283               	bcf	status, 5	;RP0=0, select bank0
  4890  0D43  1303               	bcf	status, 6	;RP1=0, select bank0
  4891  0D44  00AF               	movwf	(?___awdiv)
  4892  0D45  3000               	movlw	high(0Ah)
  4893  0D46  00B0               	movwf	((?___awdiv))+1
  4894  0D47  1683               	bsf	status, 5	;RP0=1, select bank1
  4895  0D48  1303               	bcf	status, 6	;RP1=0, select bank1
  4896  0D49  0824               	movf	(lcd_writeThisDigit@data)^080h,w
  4897  0D4A  1283               	bcf	status, 5	;RP0=0, select bank0
  4898  0D4B  1303               	bcf	status, 6	;RP1=0, select bank0
  4899  0D4C  00B8               	movwf	(??_lcd_writeThisDigit+0)+0
  4900  0D4D  01B9               	clrf	(??_lcd_writeThisDigit+0)+0+1
  4901  0D4E  0838               	movf	0+(??_lcd_writeThisDigit+0)+0,w
  4902  0D4F  00B1               	movwf	0+(?___awdiv)+02h
  4903  0D50  0839               	movf	1+(??_lcd_writeThisDigit+0)+0,w
  4904  0D51  00B2               	movwf	1+(?___awdiv)+02h
  4905  0D52  120A  158A  2320   	fcall	___awdiv
              120A  158A         
  4906  0D57  1283               	bcf	status, 5	;RP0=0, select bank0
  4907  0D58  1303               	bcf	status, 6	;RP1=0, select bank0
  4908  0D59  082F               	movf	(0+(?___awdiv)),w
  4909  0D5A  00BA               	movwf	(??_lcd_writeThisDigit+2)+0
  4910  0D5B  083A               	movf	(??_lcd_writeThisDigit+2)+0,w
  4911  0D5C  1683               	bsf	status, 5	;RP0=1, select bank1
  4912  0D5D  1303               	bcf	status, 6	;RP1=0, select bank1
  4913  0D5E  00A4               	movwf	(lcd_writeThisDigit@data)^080h
  4914                           	line	132
  4915                           	
  4916  0D5F                     l14361:	
  4917                           ;lcd.c: 132: string[0] = data%10 + 0x30;
  4918  0D5F  300A               	movlw	low(0Ah)
  4919  0D60  1283               	bcf	status, 5	;RP0=0, select bank0
  4920  0D61  1303               	bcf	status, 6	;RP1=0, select bank0
  4921  0D62  00AF               	movwf	(?___awmod)
  4922  0D63  3000               	movlw	high(0Ah)
  4923  0D64  00B0               	movwf	((?___awmod))+1
  4924  0D65  1683               	bsf	status, 5	;RP0=1, select bank1
  4925  0D66  1303               	bcf	status, 6	;RP1=0, select bank1
  4926  0D67  0824               	movf	(lcd_writeThisDigit@data)^080h,w
  4927  0D68  1283               	bcf	status, 5	;RP0=0, select bank0
  4928  0D69  1303               	bcf	status, 6	;RP1=0, select bank0
  4929  0D6A  00B8               	movwf	(??_lcd_writeThisDigit+0)+0
  4930  0D6B  01B9               	clrf	(??_lcd_writeThisDigit+0)+0+1
  4931  0D6C  0838               	movf	0+(??_lcd_writeThisDigit+0)+0,w
  4932  0D6D  00B1               	movwf	0+(?___awmod)+02h
  4933  0D6E  0839               	movf	1+(??_lcd_writeThisDigit+0)+0,w
  4934  0D6F  00B2               	movwf	1+(?___awmod)+02h
  4935  0D70  120A  158A  224E   	fcall	___awmod
              120A  158A         
  4936  0D75  1283               	bcf	status, 5	;RP0=0, select bank0
  4937  0D76  1303               	bcf	status, 6	;RP1=0, select bank0
  4938  0D77  082F               	movf	(0+(?___awmod)),w
  4939  0D78  3E30               	addlw	030h
  4940  0D79  00BA               	movwf	(??_lcd_writeThisDigit+2)+0
  4941  0D7A  083A               	movf	(??_lcd_writeThisDigit+2)+0,w
  4942  0D7B  1683               	bsf	status, 5	;RP0=1, select bank1
  4943  0D7C  1303               	bcf	status, 6	;RP1=0, select bank1
  4944  0D7D  00A0               	movwf	(lcd_writeThisDigit@string)^080h
  4945                           	line	134
  4946                           	
  4947  0D7E                     l14363:	
  4948                           ;lcd.c: 134: lcd_puts(string);
  4949  0D7E  30A0               	movlw	(lcd_writeThisDigit@string&0ffh)
  4950  0D7F  1283               	bcf	status, 5	;RP0=0, select bank0
  4951  0D80  1303               	bcf	status, 6	;RP1=0, select bank0
  4952  0D81  00B2               	movwf	(?_lcd_puts)
  4953  0D82  3000               	movlw	(0x1/2)
  4954  0D83  00B3               	movwf	(?_lcd_puts+1)
  4955  0D84  160A  118A  2720   	fcall	_lcd_puts
              120A  158A         
  4956                           	line	136
  4957                           	
  4958  0D89                     l7298:	
  4959  0D89  0008               	return
  4960                           	opt stack 0
  4961                           GLOBAL	__end_of_lcd_writeThisDigit
  4962  0D8A                     	__end_of_lcd_writeThisDigit:
  4963 ;; =============== function _lcd_writeThisDigit ends ============
  4964                           
  4965                           	signat	_lcd_writeThisDigit,4216
  4966                           	global	_peripheral_initialsation
  4967                           psect	text1650,local,class=CODE,delta=2
  4968                           global __ptext1650
  4969  1748                     __ptext1650:
  4970                           
  4971 ;; *************** function _peripheral_initialsation *****************
  4972 ;; Defined at:
  4973 ;;		line 68 in file "MainCode.c"
  4974 ;; Parameters:    Size  Location     Type
  4975 ;;		None
  4976 ;; Auto vars:     Size  Location     Type
  4977 ;;		None
  4978 ;; Return value:  Size  Location     Type
  4979 ;;		None               void
  4980 ;; Registers used:
  4981 ;;		wreg, fsr0l, fsr0h, status,2, status,0, pclath, cstack
  4982 ;; Tracked objects:
  4983 ;;		On entry : 0/0
  4984 ;;		On exit  : 0/0
  4985 ;;		Unchanged: 0/0
  4986 ;; Data sizes:     COMMON   BANK0   BANK1   BANK3   BANK2
  4987 ;;      Params:         0       0       0       0       0
  4988 ;;      Locals:         0       0       0       0       0
  4989 ;;      Temps:          0       0       0       0       0
  4990 ;;      Totals:         0       0       0       0       0
  4991 ;;Total ram usage:        0 bytes
  4992 ;; Hardware stack levels used:    1
  4993 ;; Hardware stack levels required when called:    8
  4994 ;; This function calls:
  4995 ;;		_lcd_init
  4996 ;;		_initialisePortB
  4997 ;;		_enableInterrupt_RB0
  4998 ;;		_GlobalInterrupt_ENABLE
  4999 ;;		_initialise_timer0
  5000 ;;		_adc_initialise
  5001 ;;		_lcd_clear
  5002 ;; This function is called by:
  5003 ;;		_main
  5004 ;; This function uses a non-reentrant model
  5005 ;;
  5006                           psect	text1650
  5007                           	file	"MainCode.c"
  5008                           	line	68
  5009                           	global	__size_of_peripheral_initialsation
  5010  002B                     	__size_of_peripheral_initialsation	equ	__end_of_peripheral_initialsation-_peripheral_in
                                 itialsation
  5011                           	
  5012  1748                     _peripheral_initialsation:	
  5013                           	opt	stack 7
  5014                           ; Regs used in _peripheral_initialsation: [wreg-fsr0h+status,2+status,0+pclath+cstack]
  5015                           	line	69
  5016                           	
  5017  1748                     l14335:	
  5018                           ;MainCode.c: 69: lcd_init();
  5019  1748  120A  158A  2022   	fcall	_lcd_init
              160A  118A         
  5020                           	line	70
  5021                           	
  5022  174D                     l14337:	
  5023                           ;MainCode.c: 70: initialisePortB();
  5024  174D  160A  118A  255C   	fcall	_initialisePortB
              160A  118A         
  5025                           	line	71
  5026                           	
  5027  1752                     l14339:	
  5028                           ;MainCode.c: 71: enableInterrupt_RB0();
  5029  1752  160A  118A  2552   	fcall	_enableInterrupt_RB0
              160A  118A         
  5030                           	line	73
  5031                           	
  5032  1757                     l14341:	
  5033                           ;MainCode.c: 73: GlobalInterrupt_ENABLE();
  5034  1757  120A  158A  2000   	fcall	_GlobalInterrupt_ENABLE
              160A  118A         
  5035                           	line	74
  5036                           	
  5037  175C                     l14343:	
  5038                           ;MainCode.c: 74: initialise_timer0();
  5039  175C  160A  118A  25C4   	fcall	_initialise_timer0
              160A  118A         
  5040                           	line	76
  5041                           	
  5042  1761                     l14345:	
  5043                           ;MainCode.c: 76: adc_initialise();
  5044  1761  160A  118A  2570   	fcall	_adc_initialise
              160A  118A         
  5045                           	line	77
  5046                           	
  5047  1766                     l14347:	
  5048                           ;MainCode.c: 77: lcd_clear();
  5049  1766  160A  118A  2569   	fcall	_lcd_clear
              160A  118A         
  5050                           	line	78
  5051                           	
  5052  176B                     l14349:	
  5053                           ;MainCode.c: 78: isFirstTime_Settings = 0;
  5054  176B  1003               	clrc
  5055  176C  3000               	movlw	0
  5056  176D  1803               	btfsc	status,0
  5057  176E  3001               	movlw	1
  5058  176F  1283               	bcf	status, 5	;RP0=0, select bank0
  5059  1770  1303               	bcf	status, 6	;RP1=0, select bank0
  5060  1771  00CB               	movwf	(_isFirstTime_Settings)
  5061                           	line	79
  5062                           	
  5063  1772                     l4520:	
  5064  1772  0008               	return
  5065                           	opt stack 0
  5066                           GLOBAL	__end_of_peripheral_initialsation
  5067  1773                     	__end_of_peripheral_initialsation:
  5068 ;; =============== function _peripheral_initialsation ends ============
  5069                           
  5070                           	signat	_peripheral_initialsation,88
  5071                           	global	_lcd_writeThisStringAt
  5072                           psect	text1651,local,class=CODE,delta=2
  5073                           global __ptext1651
  5074  15F1                     __ptext1651:
  5075                           
  5076 ;; *************** function _lcd_writeThisStringAt *****************
  5077 ;; Defined at:
  5078 ;;		line 113 in file "lcd.c"
  5079 ;; Parameters:    Size  Location     Type
  5080 ;;  row             1    wreg     unsigned char 
  5081 ;;  column          1   20[BANK0 ] unsigned char 
  5082 ;;  ptr             2   21[BANK0 ] PTR unsigned char 
  5083 ;;		 -> STR_23(16), STR_22(14), STR_21(15), STR_20(17), 
  5084 ;;		 -> STR_19(3), STR_18(4), STR_17(13), STR_16(3), 
  5085 ;;		 -> STR_15(3), STR_14(16), STR_13(3), STR_12(3), 
  5086 ;;		 -> STR_11(13), STR_10(15), STR_9(17), STR_8(15), 
  5087 ;;		 -> STR_7(16), STR_6(13), STR_5(8), STR_4(8), 
  5088 ;;		 -> STR_3(15), STR_2(14), STR_1(9), print_ADCValue@data(5), 
  5089 ;; Auto vars:     Size  Location     Type
  5090 ;;  row             1   24[BANK0 ] unsigned char 
  5091 ;; Return value:  Size  Location     Type
  5092 ;;		None               void
  5093 ;; Registers used:
  5094 ;;		wreg, fsr0l, fsr0h, status,2, status,0, btemp+0, btemp+1, pclath, cstack
  5095 ;; Tracked objects:
  5096 ;;		On entry : 0/0
  5097 ;;		On exit  : 0/0
  5098 ;;		Unchanged: 0/0
  5099 ;; Data sizes:     COMMON   BANK0   BANK1   BANK3   BANK2
  5100 ;;      Params:         0       3       0       0       0
  5101 ;;      Locals:         0       1       0       0       0
  5102 ;;      Temps:          0       1       0       0       0
  5103 ;;      Totals:         0       5       0       0       0
  5104 ;;Total ram usage:        5 bytes
  5105 ;; Hardware stack levels used:    1
  5106 ;; Hardware stack levels required when called:    8
  5107 ;; This function calls:
  5108 ;;		_goto_XY
  5109 ;;		_lcd_puts
  5110 ;; This function is called by:
  5111 ;;		_main
  5112 ;;		_default_bootSequence
  5113 ;;		_UpbuttonHandler
  5114 ;;		_DownButtonHandler
  5115 ;;		_UpdateScreen
  5116 ;;		_serveCoffee
  5117 ;;		_serveHalfQuantity
  5118 ;;		_serveTea
  5119 ;;		_serveHotWater
  5120 ;; This function uses a non-reentrant model
  5121 ;;
  5122                           psect	text1651
  5123                           	file	"lcd.c"
  5124                           	line	113
  5125                           	global	__size_of_lcd_writeThisStringAt
  5126  001B                     	__size_of_lcd_writeThisStringAt	equ	__end_of_lcd_writeThisStringAt-_lcd_writeThisString
                                 At
  5127                           	
  5128  15F1                     _lcd_writeThisStringAt:	
  5129                           	opt	stack 4
  5130                           ; Regs used in _lcd_writeThisStringAt: [wreg-fsr0h+status,2-btemp+1+pclath+cstack]
  5131                           ;lcd_writeThisStringAt@row stored from wreg
  5132  15F1  1283               	bcf	status, 5	;RP0=0, select bank0
  5133  15F2  1303               	bcf	status, 6	;RP1=0, select bank0
  5134  15F3  00B8               	movwf	(lcd_writeThisStringAt@row)
  5135                           	line	114
  5136                           	
  5137  15F4                     l14331:	
  5138                           ;lcd.c: 114: goto_XY(row,column);
  5139  15F4  0834               	movf	(lcd_writeThisStringAt@column),w
  5140  15F5  00B7               	movwf	(??_lcd_writeThisStringAt+0)+0
  5141  15F6  0837               	movf	(??_lcd_writeThisStringAt+0)+0,w
  5142  15F7  00B2               	movwf	(?_goto_XY)
  5143  15F8  0838               	movf	(lcd_writeThisStringAt@row),w
  5144  15F9  160A  118A  2628   	fcall	_goto_XY
              160A  118A         
  5145                           	line	115
  5146                           	
  5147  15FE                     l14333:	
  5148                           ;lcd.c: 115: lcd_puts(ptr);
  5149  15FE  1283               	bcf	status, 5	;RP0=0, select bank0
  5150  15FF  1303               	bcf	status, 6	;RP1=0, select bank0
  5151  1600  0836               	movf	(lcd_writeThisStringAt@ptr+1),w
  5152  1601  01B3               	clrf	(?_lcd_puts+1)
  5153  1602  07B3               	addwf	(?_lcd_puts+1)
  5154  1603  0835               	movf	(lcd_writeThisStringAt@ptr),w
  5155  1604  01B2               	clrf	(?_lcd_puts)
  5156  1605  07B2               	addwf	(?_lcd_puts)
  5157                           
  5158  1606  160A  118A  2720   	fcall	_lcd_puts
              160A  118A         
  5159                           	line	116
  5160                           	
  5161  160B                     l7290:	
  5162  160B  0008               	return
  5163                           	opt stack 0
  5164                           GLOBAL	__end_of_lcd_writeThisStringAt
  5165  160C                     	__end_of_lcd_writeThisStringAt:
  5166 ;; =============== function _lcd_writeThisStringAt ends ============
  5167                           
  5168                           	signat	_lcd_writeThisStringAt,12408
  5169                           	global	_goto_XY
  5170                           psect	text1652,local,class=CODE,delta=2
  5171                           global __ptext1652
  5172  1628                     __ptext1652:
  5173                           
  5174 ;; *************** function _goto_XY *****************
  5175 ;; Defined at:
  5176 ;;		line 89 in file "lcd.c"
  5177 ;; Parameters:    Size  Location     Type
  5178 ;;  row             1    wreg     unsigned char 
  5179 ;;  column          1   18[BANK0 ] unsigned char 
  5180 ;; Auto vars:     Size  Location     Type
  5181 ;;  row             1   19[BANK0 ] unsigned char 
  5182 ;; Return value:  Size  Location     Type
  5183 ;;		None               void
  5184 ;; Registers used:
  5185 ;;		wreg, status,2, status,0, pclath, cstack
  5186 ;; Tracked objects:
  5187 ;;		On entry : 0/0
  5188 ;;		On exit  : 0/0
  5189 ;;		Unchanged: 0/0
  5190 ;; Data sizes:     COMMON   BANK0   BANK1   BANK3   BANK2
  5191 ;;      Params:         0       1       0       0       0
  5192 ;;      Locals:         0       1       0       0       0
  5193 ;;      Temps:          0       0       0       0       0
  5194 ;;      Totals:         0       2       0       0       0
  5195 ;;Total ram usage:        2 bytes
  5196 ;; Hardware stack levels used:    1
  5197 ;; Hardware stack levels required when called:    7
  5198 ;; This function calls:
  5199 ;;		_lcd_cmd
  5200 ;; This function is called by:
  5201 ;;		_lcd_writeThisStringAt
  5202 ;;		_clear_XY
  5203 ;;		_lcd_writeThisCharAt
  5204 ;; This function uses a non-reentrant model
  5205 ;;
  5206                           psect	text1652
  5207                           	file	"lcd.c"
  5208                           	line	89
  5209                           	global	__size_of_goto_XY
  5210  0020                     	__size_of_goto_XY	equ	__end_of_goto_XY-_goto_XY
  5211                           	
  5212  1628                     _goto_XY:	
  5213                           	opt	stack 3
  5214                           ; Regs used in _goto_XY: [wreg+status,2+status,0+pclath+cstack]
  5215                           ;goto_XY@row stored from wreg
  5216  1628  1283               	bcf	status, 5	;RP0=0, select bank0
  5217  1629  1303               	bcf	status, 6	;RP1=0, select bank0
  5218  162A  00B3               	movwf	(goto_XY@row)
  5219                           	line	90
  5220                           	
  5221  162B                     l14323:	
  5222                           ;lcd.c: 90: if(row == 0)
  5223  162B  08B3               	movf	(goto_XY@row),f
  5224  162C  1D03               	skipz
  5225  162D  2E2F               	goto	u6301
  5226  162E  2E30               	goto	u6300
  5227  162F                     u6301:
  5228  162F  2E38               	goto	l7278
  5229  1630                     u6300:
  5230                           	line	92
  5231                           	
  5232  1630                     l14325:	
  5233                           ;lcd.c: 91: {
  5234                           ;lcd.c: 92: lcd_cmd(0x80 + column);
  5235  1630  0832               	movf	(goto_XY@column),w
  5236  1631  3E80               	addlw	080h
  5237  1632  120A  158A  20DC   	fcall	_lcd_cmd
              160A  118A         
  5238                           	line	93
  5239                           ;lcd.c: 93: }
  5240  1637  2E47               	goto	l7279
  5241                           	line	94
  5242                           	
  5243  1638                     l7278:	
  5244                           	
  5245  1638                     l14327:	
  5246                           ;lcd.c: 94: else if(row == 1)
  5247  1638  1283               	bcf	status, 5	;RP0=0, select bank0
  5248  1639  1303               	bcf	status, 6	;RP1=0, select bank0
  5249  163A  0833               	movf	(goto_XY@row),w
  5250  163B  3A01               	xorlw	01h
  5251  163C  1D03               	skipz
  5252  163D  2E3F               	goto	u6311
  5253  163E  2E40               	goto	u6310
  5254  163F                     u6311:
  5255  163F  2E47               	goto	l7280
  5256  1640                     u6310:
  5257                           	line	96
  5258                           	
  5259  1640                     l14329:	
  5260                           ;lcd.c: 95: {
  5261                           ;lcd.c: 96: lcd_cmd(0xC0 + column);
  5262  1640  0832               	movf	(goto_XY@column),w
  5263  1641  3EC0               	addlw	0C0h
  5264  1642  120A  158A  20DC   	fcall	_lcd_cmd
              160A  118A         
  5265                           	line	97
  5266                           	
  5267  1647                     l7280:	
  5268                           	line	98
  5269                           	
  5270  1647                     l7279:	
  5271                           	
  5272  1647                     l7281:	
  5273  1647  0008               	return
  5274                           	opt stack 0
  5275                           GLOBAL	__end_of_goto_XY
  5276  1648                     	__end_of_goto_XY:
  5277 ;; =============== function _goto_XY ends ============
  5278                           
  5279                           	signat	_goto_XY,8312
  5280                           	global	_lcd_puts
  5281                           psect	text1653,local,class=CODE,delta=2
  5282                           global __ptext1653
  5283  1720                     __ptext1653:
  5284                           
  5285 ;; *************** function _lcd_puts *****************
  5286 ;; Defined at:
  5287 ;;		line 80 in file "lcd.c"
  5288 ;; Parameters:    Size  Location     Type
  5289 ;;  ptr             2   18[BANK0 ] PTR unsigned char 
  5290 ;;		 -> STR_23(16), STR_22(14), STR_21(15), STR_20(17), 
  5291 ;;		 -> lcd_writeThisDigit@string(4), STR_19(3), STR_18(4), STR_17(13), 
  5292 ;;		 -> STR_16(3), STR_15(3), STR_14(16), STR_13(3), 
  5293 ;;		 -> STR_12(3), STR_11(13), STR_10(15), STR_9(17), 
  5294 ;;		 -> STR_8(15), STR_7(16), STR_6(13), STR_5(8), 
  5295 ;;		 -> STR_4(8), STR_3(15), STR_2(14), STR_1(9), 
  5296 ;;		 -> print_ADCValue@data(5), 
  5297 ;; Auto vars:     Size  Location     Type
  5298 ;;		None
  5299 ;; Return value:  Size  Location     Type
  5300 ;;		None               void
  5301 ;; Registers used:
  5302 ;;		wreg, fsr0l, fsr0h, status,2, status,0, btemp+0, btemp+1, pclath, cstack
  5303 ;; Tracked objects:
  5304 ;;		On entry : 0/0
  5305 ;;		On exit  : 0/0
  5306 ;;		Unchanged: 0/0
  5307 ;; Data sizes:     COMMON   BANK0   BANK1   BANK3   BANK2
  5308 ;;      Params:         0       2       0       0       0
  5309 ;;      Locals:         0       0       0       0       0
  5310 ;;      Temps:          0       0       0       0       0
  5311 ;;      Totals:         0       2       0       0       0
  5312 ;;Total ram usage:        2 bytes
  5313 ;; Hardware stack levels used:    1
  5314 ;; Hardware stack levels required when called:    7
  5315 ;; This function calls:
  5316 ;;		_lcd_write
  5317 ;; This function is called by:
  5318 ;;		_lcd_writeThisStringAt
  5319 ;;		_lcd_writeThisDigit
  5320 ;; This function uses a non-reentrant model
  5321 ;;
  5322                           psect	text1653
  5323                           	file	"lcd.c"
  5324                           	line	80
  5325                           	global	__size_of_lcd_puts
  5326  0028                     	__size_of_lcd_puts	equ	__end_of_lcd_puts-_lcd_puts
  5327                           	
  5328  1720                     _lcd_puts:	
  5329                           	opt	stack 3
  5330                           ; Regs used in _lcd_puts: [wreg-fsr0h+status,2-btemp+1+pclath+cstack]
  5331                           	line	81
  5332                           	
  5333  1720                     l14315:	
  5334                           ;lcd.c: 81: while(*ptr != '\0')
  5335  1720  2F39               	goto	l7272
  5336                           	
  5337  1721                     l7273:	
  5338                           	line	83
  5339                           	
  5340  1721                     l14317:	
  5341                           ;lcd.c: 82: {
  5342                           ;lcd.c: 83: lcd_write(*ptr++);
  5343  1721  1283               	bcf	status, 5	;RP0=0, select bank0
  5344  1722  1303               	bcf	status, 6	;RP1=0, select bank0
  5345  1723  0833               	movf	(lcd_puts@ptr+1),w
  5346  1724  00FF               	movwf	btemp+1
  5347  1725  0832               	movf	(lcd_puts@ptr),w
  5348  1726  0084               	movwf	fsr0
  5349  1727  120A  118A  2015   	fcall	stringtab
              160A  118A         
  5350  172C  120A  158A  211D   	fcall	_lcd_write
              160A  118A         
  5351                           	
  5352  1731                     l14319:	
  5353  1731  3001               	movlw	low(01h)
  5354  1732  1283               	bcf	status, 5	;RP0=0, select bank0
  5355  1733  1303               	bcf	status, 6	;RP1=0, select bank0
  5356  1734  07B2               	addwf	(lcd_puts@ptr),f
  5357  1735  1803               	skipnc
  5358  1736  0AB3               	incf	(lcd_puts@ptr+1),f
  5359  1737  3000               	movlw	high(01h)
  5360  1738  07B3               	addwf	(lcd_puts@ptr+1),f
  5361                           	line	84
  5362                           	
  5363  1739                     l7272:	
  5364                           	line	81
  5365                           	
  5366  1739                     l14321:	
  5367  1739  0833               	movf	(lcd_puts@ptr+1),w
  5368  173A  00FF               	movwf	btemp+1
  5369  173B  0832               	movf	(lcd_puts@ptr),w
  5370  173C  0084               	movwf	fsr0
  5371  173D  120A  118A  2015   	fcall	stringtab
              160A  118A         
  5372  1742  3800               	iorlw	0
  5373  1743  1D03               	skipz
  5374  1744  2F46               	goto	u6291
  5375  1745  2F47               	goto	u6290
  5376  1746                     u6291:
  5377  1746  2F21               	goto	l7273
  5378  1747                     u6290:
  5379                           	
  5380  1747                     l7274:	
  5381                           	line	85
  5382                           	
  5383  1747                     l7275:	
  5384  1747  0008               	return
  5385                           	opt stack 0
  5386                           GLOBAL	__end_of_lcd_puts
  5387  1748                     	__end_of_lcd_puts:
  5388 ;; =============== function _lcd_puts ends ============
  5389                           
  5390                           	signat	_lcd_puts,4216
  5391                           	global	_lcd_init
  5392                           psect	text1654,local,class=CODE,delta=2
  5393                           global __ptext1654
  5394  0822                     __ptext1654:
  5395                           
  5396 ;; *************** function _lcd_init *****************
  5397 ;; Defined at:
  5398 ;;		line 7 in file "lcd.c"
  5399 ;; Parameters:    Size  Location     Type
  5400 ;;		None
  5401 ;; Auto vars:     Size  Location     Type
  5402 ;;  command_arra    6   19[BANK0 ] unsigned char [6]
  5403 ;;  index           1   25[BANK0 ] unsigned char 
  5404 ;; Return value:  Size  Location     Type
  5405 ;;		None               void
  5406 ;; Registers used:
  5407 ;;		wreg, fsr0l, fsr0h, status,2, status,0, pclath, cstack
  5408 ;; Tracked objects:
  5409 ;;		On entry : 0/0
  5410 ;;		On exit  : 0/0
  5411 ;;		Unchanged: 0/0
  5412 ;; Data sizes:     COMMON   BANK0   BANK1   BANK3   BANK2
  5413 ;;      Params:         0       0       0       0       0
  5414 ;;      Locals:         0       7       0       0       0
  5415 ;;      Temps:          0       1       0       0       0
  5416 ;;      Totals:         0       8       0       0       0
  5417 ;;Total ram usage:        8 bytes
  5418 ;; Hardware stack levels used:    1
  5419 ;; Hardware stack levels required when called:    7
  5420 ;; This function calls:
  5421 ;;		_lcd_cmd
  5422 ;; This function is called by:
  5423 ;;		_peripheral_initialsation
  5424 ;; This function uses a non-reentrant model
  5425 ;;
  5426                           psect	text1654
  5427                           	file	"lcd.c"
  5428                           	line	7
  5429                           	global	__size_of_lcd_init
  5430  0038                     	__size_of_lcd_init	equ	__end_of_lcd_init-_lcd_init
  5431                           	
  5432  0822                     _lcd_init:	
  5433                           	opt	stack 6
  5434                           ; Regs used in _lcd_init: [wreg-fsr0h+status,2+status,0+pclath+cstack]
  5435                           	line	8
  5436                           	
  5437  0822                     l14301:	
  5438                           ;lcd.c: 8: UByte command_array[]={0x02,0x28,0x0E,0x01,0x06,0x80};
  5439  0822  3033               	movlw	(lcd_init@command_array)&0ffh
  5440  0823  0084               	movwf	fsr0
  5441  0824  1283               	bcf	status, 5	;RP0=0, select bank0
  5442  0825  1303               	bcf	status, 6	;RP1=0, select bank0
  5443  0826  0850               	movf	(lcd_init@F891),w
  5444  0827  1383               	bcf	status, 7	;select IRP bank0
  5445  0828  0080               	movwf	indf
  5446  0829  0A84               	incf	fsr0,f
  5447  082A  0851               	movf	(lcd_init@F891)+1,w
  5448  082B  0080               	movwf	indf
  5449  082C  0A84               	incf	fsr0,f
  5450  082D  0852               	movf	(lcd_init@F891)+2,w
  5451  082E  0080               	movwf	indf
  5452  082F  0A84               	incf	fsr0,f
  5453  0830  0853               	movf	(lcd_init@F891)+3,w
  5454  0831  0080               	movwf	indf
  5455  0832  0A84               	incf	fsr0,f
  5456  0833  0854               	movf	(lcd_init@F891)+4,w
  5457  0834  0080               	movwf	indf
  5458  0835  0A84               	incf	fsr0,f
  5459  0836  0855               	movf	(lcd_init@F891)+5,w
  5460  0837  0080               	movwf	indf
  5461                           	line	11
  5462                           	
  5463  0838                     l14303:	
  5464                           ;lcd.c: 9: UByte index;
  5465                           ;lcd.c: 11: for(index=0;index<6;index++)
  5466  0838  1003               	clrc
  5467  0839  3000               	movlw	0
  5468  083A  1803               	btfsc	status,0
  5469  083B  3001               	movlw	1
  5470  083C  00B9               	movwf	(lcd_init@index)
  5471                           	
  5472  083D                     l14305:	
  5473  083D  3006               	movlw	(06h)
  5474  083E  0239               	subwf	(lcd_init@index),w
  5475  083F  1C03               	skipc
  5476  0840  2842               	goto	u6271
  5477  0841  2843               	goto	u6270
  5478  0842                     u6271:
  5479  0842  2844               	goto	l7261
  5480  0843                     u6270:
  5481                           	
  5482  0843                     l14307:	
  5483  0843  2859               	goto	l7262
  5484                           	line	12
  5485                           	
  5486  0844                     l7261:	
  5487                           	line	13
  5488                           	
  5489  0844                     l14309:	
  5490                           ;lcd.c: 12: {
  5491                           ;lcd.c: 13: lcd_cmd(command_array[index]);
  5492  0844  0839               	movf	(lcd_init@index),w
  5493  0845  3E33               	addlw	lcd_init@command_array&0ffh
  5494  0846  0084               	movwf	fsr0
  5495  0847  0800               	movf	indf,w
  5496  0848  120A  158A  20DC   	fcall	_lcd_cmd
              120A  158A         
  5497                           	line	11
  5498                           	
  5499  084D                     l14311:	
  5500  084D  3001               	movlw	(01h)
  5501  084E  1283               	bcf	status, 5	;RP0=0, select bank0
  5502  084F  1303               	bcf	status, 6	;RP1=0, select bank0
  5503  0850  00B2               	movwf	(??_lcd_init+0)+0
  5504  0851  0832               	movf	(??_lcd_init+0)+0,w
  5505  0852  07B9               	addwf	(lcd_init@index),f
  5506                           	
  5507  0853                     l14313:	
  5508  0853  3006               	movlw	(06h)
  5509  0854  0239               	subwf	(lcd_init@index),w
  5510  0855  1C03               	skipc
  5511  0856  2858               	goto	u6281
  5512  0857  2859               	goto	u6280
  5513  0858                     u6281:
  5514  0858  2844               	goto	l7261
  5515  0859                     u6280:
  5516                           	
  5517  0859                     l7262:	
  5518                           	line	15
  5519                           	
  5520  0859                     l7263:	
  5521  0859  0008               	return
  5522                           	opt stack 0
  5523                           GLOBAL	__end_of_lcd_init
  5524  085A                     	__end_of_lcd_init:
  5525 ;; =============== function _lcd_init ends ============
  5526                           
  5527                           	signat	_lcd_init,88
  5528                           	global	_lcd_clear
  5529                           psect	text1655,local,class=CODE,delta=2
  5530                           global __ptext1655
  5531  1569                     __ptext1655:
  5532                           
  5533 ;; *************** function _lcd_clear *****************
  5534 ;; Defined at:
  5535 ;;		line 101 in file "lcd.c"
  5536 ;; Parameters:    Size  Location     Type
  5537 ;;		None
  5538 ;; Auto vars:     Size  Location     Type
  5539 ;;		None
  5540 ;; Return value:  Size  Location     Type
  5541 ;;		None               void
  5542 ;; Registers used:
  5543 ;;		wreg, status,2, status,0, pclath, cstack
  5544 ;; Tracked objects:
  5545 ;;		On entry : 0/0
  5546 ;;		On exit  : 0/0
  5547 ;;		Unchanged: 0/0
  5548 ;; Data sizes:     COMMON   BANK0   BANK1   BANK3   BANK2
  5549 ;;      Params:         0       0       0       0       0
  5550 ;;      Locals:         0       0       0       0       0
  5551 ;;      Temps:          0       0       0       0       0
  5552 ;;      Totals:         0       0       0       0       0
  5553 ;;Total ram usage:        0 bytes
  5554 ;; Hardware stack levels used:    1
  5555 ;; Hardware stack levels required when called:    7
  5556 ;; This function calls:
  5557 ;;		_lcd_cmd
  5558 ;; This function is called by:
  5559 ;;		_main
  5560 ;;		_peripheral_initialsation
  5561 ;;		_UpdateScreen
  5562 ;;		_serveCoffee
  5563 ;;		_serveHalfQuantity
  5564 ;;		_serveTea
  5565 ;;		_serveHotWater
  5566 ;; This function uses a non-reentrant model
  5567 ;;
  5568                           psect	text1655
  5569                           	file	"lcd.c"
  5570                           	line	101
  5571                           	global	__size_of_lcd_clear
  5572  0007                     	__size_of_lcd_clear	equ	__end_of_lcd_clear-_lcd_clear
  5573                           	
  5574  1569                     _lcd_clear:	
  5575                           	opt	stack 4
  5576                           ; Regs used in _lcd_clear: [wreg+status,2+status,0+pclath+cstack]
  5577                           	line	102
  5578                           	
  5579  1569                     l14299:	
  5580                           ;lcd.c: 102: lcd_cmd(0x01);
  5581  1569  3001               	movlw	(01h)
  5582  156A  120A  158A  20DC   	fcall	_lcd_cmd
              160A  118A         
  5583                           	line	103
  5584                           	
  5585  156F                     l7284:	
  5586  156F  0008               	return
  5587                           	opt stack 0
  5588                           GLOBAL	__end_of_lcd_clear
  5589  1570                     	__end_of_lcd_clear:
  5590 ;; =============== function _lcd_clear ends ============
  5591                           
  5592                           	signat	_lcd_clear,88
  5593                           	global	_lcd_write
  5594                           psect	text1656,local,class=CODE,delta=2
  5595                           global __ptext1656
  5596  091D                     __ptext1656:
  5597                           
  5598 ;; *************** function _lcd_write *****************
  5599 ;; Defined at:
  5600 ;;		line 19 in file "lcd.c"
  5601 ;; Parameters:    Size  Location     Type
  5602 ;;  data            1    wreg     unsigned char 
  5603 ;; Auto vars:     Size  Location     Type
  5604 ;;  data            1   17[BANK0 ] unsigned char 
  5605 ;; Return value:  Size  Location     Type
  5606 ;;		None               void
  5607 ;; Registers used:
  5608 ;;		wreg, status,2, status,0
  5609 ;; Tracked objects:
  5610 ;;		On entry : 0/0
  5611 ;;		On exit  : 0/0
  5612 ;;		Unchanged: 0/0
  5613 ;; Data sizes:     COMMON   BANK0   BANK1   BANK3   BANK2
  5614 ;;      Params:         0       0       0       0       0
  5615 ;;      Locals:         0       1       0       0       0
  5616 ;;      Temps:          0       2       0       0       0
  5617 ;;      Totals:         0       3       0       0       0
  5618 ;;Total ram usage:        3 bytes
  5619 ;; Hardware stack levels used:    1
  5620 ;; Hardware stack levels required when called:    6
  5621 ;; This function calls:
  5622 ;;		Nothing
  5623 ;; This function is called by:
  5624 ;;		_lcd_puts
  5625 ;;		_clear_XY
  5626 ;;		_lcd_writeThisCharAt
  5627 ;; This function uses a non-reentrant model
  5628 ;;
  5629                           psect	text1656
  5630                           	file	"lcd.c"
  5631                           	line	19
  5632                           	global	__size_of_lcd_write
  5633  0041                     	__size_of_lcd_write	equ	__end_of_lcd_write-_lcd_write
  5634                           	
  5635  091D                     _lcd_write:	
  5636                           	opt	stack 2
  5637                           ; Regs used in _lcd_write: [wreg+status,2+status,0]
  5638                           ;lcd_write@data stored from wreg
  5639                           	line	22
  5640  091D  1283               	bcf	status, 5	;RP0=0, select bank0
  5641  091E  1303               	bcf	status, 6	;RP1=0, select bank0
  5642  091F  00B1               	movwf	(lcd_write@data)
  5643                           	
  5644  0920                     l14277:	
  5645                           ;lcd.c: 22: PORTD = ((data >> 4)& 0x0F);
  5646  0920  0831               	movf	(lcd_write@data),w
  5647  0921  00AF               	movwf	(??_lcd_write+0)+0
  5648  0922  3004               	movlw	04h
  5649  0923                     u6255:
  5650  0923  1003               	clrc
  5651  0924  0CAF               	rrf	(??_lcd_write+0)+0,f
  5652  0925  3EFF               	addlw	-1
  5653  0926  1D03               	skipz
  5654  0927  2923               	goto	u6255
  5655  0928  082F               	movf	0+(??_lcd_write+0)+0,w
  5656  0929  390F               	andlw	0Fh
  5657  092A  0088               	movwf	(8)	;volatile
  5658                           	line	26
  5659                           	
  5660  092B                     l14279:	
  5661                           ;lcd.c: 26: PORTD=( data & 0x0F0 );
  5662  092B  0831               	movf	(lcd_write@data),w
  5663  092C  39F0               	andlw	0F0h
  5664  092D  0088               	movwf	(8)	;volatile
  5665                           	line	29
  5666                           	
  5667  092E                     l14281:	
  5668                           ;lcd.c: 29: RE0=1;
  5669  092E  1409               	bsf	(72/8),(72)&7
  5670                           	line	30
  5671                           	
  5672  092F                     l14283:	
  5673                           ;lcd.c: 30: RW=0;
  5674  092F  1683               	bsf	status, 5	;RP0=1, select bank1
  5675  0930  1303               	bcf	status, 6	;RP1=0, select bank1
  5676  0931  1114               	bcf	(1186/8)^080h,(1186)&7
  5677                           	line	31
  5678                           	
  5679  0932                     l14285:	
  5680                           ;lcd.c: 31: RE1=1;
  5681  0932  1283               	bcf	status, 5	;RP0=0, select bank0
  5682  0933  1303               	bcf	status, 6	;RP1=0, select bank0
  5683  0934  1489               	bsf	(73/8),(73)&7
  5684                           	line	32
  5685                           	
  5686  0935                     l14287:	
  5687                           ;lcd.c: 32: _delay((unsigned long)((5)*(20000000/4000.0)));
  5688                           	opt asmopt_off
  5689  0935  3021               movlw	33
  5690  0936  00B0               movwf	((??_lcd_write+0)+0+1),f
  5691  0937  3076               	movlw	118
  5692  0938  00AF               movwf	((??_lcd_write+0)+0),f
  5693  0939                     u7067:
  5694  0939  0BAF               	decfsz	((??_lcd_write+0)+0),f
  5695  093A  2939               	goto	u7067
  5696  093B  0BB0               	decfsz	((??_lcd_write+0)+0+1),f
  5697  093C  2939               	goto	u7067
  5698  093D  0064               	clrwdt
  5699                           opt asmopt_on
  5700                           
  5701                           	line	33
  5702                           	
  5703  093E                     l14289:	
  5704                           ;lcd.c: 33: RE1=0;
  5705  093E  1283               	bcf	status, 5	;RP0=0, select bank0
  5706  093F  1303               	bcf	status, 6	;RP1=0, select bank0
  5707  0940  1089               	bcf	(73/8),(73)&7
  5708                           	line	36
  5709                           	
  5710  0941                     l14291:	
  5711                           ;lcd.c: 36: PORTD=( data & 0x0F );
  5712  0941  0831               	movf	(lcd_write@data),w
  5713  0942  390F               	andlw	0Fh
  5714  0943  0088               	movwf	(8)	;volatile
  5715                           	line	39
  5716                           	
  5717  0944                     l14293:	
  5718                           ;lcd.c: 39: PORTD=((data<<4)&(0x0F0));
  5719  0944  0831               	movf	(lcd_write@data),w
  5720  0945  00AF               	movwf	(??_lcd_write+0)+0
  5721  0946  3003               	movlw	(04h)-1
  5722  0947                     u6265:
  5723  0947  1003               	clrc
  5724  0948  0DAF               	rlf	(??_lcd_write+0)+0,f
  5725  0949  3EFF               	addlw	-1
  5726  094A  1D03               	skipz
  5727  094B  2947               	goto	u6265
  5728  094C  1003               	clrc
  5729  094D  0D2F               	rlf	(??_lcd_write+0)+0,w
  5730  094E  39F0               	andlw	0F0h
  5731  094F  0088               	movwf	(8)	;volatile
  5732                           	line	41
  5733                           	
  5734  0950                     l14295:	
  5735                           ;lcd.c: 41: RE1=1;
  5736  0950  1489               	bsf	(73/8),(73)&7
  5737                           	line	42
  5738                           ;lcd.c: 42: _delay((unsigned long)((5)*(20000000/4000.0)));
  5739                           	opt asmopt_off
  5740  0951  3021               movlw	33
  5741  0952  00B0               movwf	((??_lcd_write+0)+0+1),f
  5742  0953  3076               	movlw	118
  5743  0954  00AF               movwf	((??_lcd_write+0)+0),f
  5744  0955                     u7077:
  5745  0955  0BAF               	decfsz	((??_lcd_write+0)+0),f
  5746  0956  2955               	goto	u7077
  5747  0957  0BB0               	decfsz	((??_lcd_write+0)+0+1),f
  5748  0958  2955               	goto	u7077
  5749  0959  0064               	clrwdt
  5750                           opt asmopt_on
  5751                           
  5752                           	line	43
  5753                           	
  5754  095A                     l14297:	
  5755                           ;lcd.c: 43: RE1=0;
  5756  095A  1283               	bcf	status, 5	;RP0=0, select bank0
  5757  095B  1303               	bcf	status, 6	;RP1=0, select bank0
  5758  095C  1089               	bcf	(73/8),(73)&7
  5759                           	line	45
  5760                           	
  5761  095D                     l7266:	
  5762  095D  0008               	return
  5763                           	opt stack 0
  5764                           GLOBAL	__end_of_lcd_write
  5765  095E                     	__end_of_lcd_write:
  5766 ;; =============== function _lcd_write ends ============
  5767                           
  5768                           	signat	_lcd_write,4216
  5769                           	global	_lcd_cmd
  5770                           psect	text1657,local,class=CODE,delta=2
  5771                           global __ptext1657
  5772  08DC                     __ptext1657:
  5773                           
  5774 ;; *************** function _lcd_cmd *****************
  5775 ;; Defined at:
  5776 ;;		line 50 in file "lcd.c"
  5777 ;; Parameters:    Size  Location     Type
  5778 ;;  cmnd            1    wreg     unsigned char 
  5779 ;; Auto vars:     Size  Location     Type
  5780 ;;  cmnd            1   17[BANK0 ] unsigned char 
  5781 ;; Return value:  Size  Location     Type
  5782 ;;		None               void
  5783 ;; Registers used:
  5784 ;;		wreg, status,2, status,0
  5785 ;; Tracked objects:
  5786 ;;		On entry : 0/0
  5787 ;;		On exit  : 0/0
  5788 ;;		Unchanged: 0/0
  5789 ;; Data sizes:     COMMON   BANK0   BANK1   BANK3   BANK2
  5790 ;;      Params:         0       0       0       0       0
  5791 ;;      Locals:         0       1       0       0       0
  5792 ;;      Temps:          0       2       0       0       0
  5793 ;;      Totals:         0       3       0       0       0
  5794 ;;Total ram usage:        3 bytes
  5795 ;; Hardware stack levels used:    1
  5796 ;; Hardware stack levels required when called:    6
  5797 ;; This function calls:
  5798 ;;		Nothing
  5799 ;; This function is called by:
  5800 ;;		_lcd_init
  5801 ;;		_goto_XY
  5802 ;;		_lcd_clear
  5803 ;; This function uses a non-reentrant model
  5804 ;;
  5805                           psect	text1657
  5806                           	file	"lcd.c"
  5807                           	line	50
  5808                           	global	__size_of_lcd_cmd
  5809  0041                     	__size_of_lcd_cmd	equ	__end_of_lcd_cmd-_lcd_cmd
  5810                           	
  5811  08DC                     _lcd_cmd:	
  5812                           	opt	stack 3
  5813                           ; Regs used in _lcd_cmd: [wreg+status,2+status,0]
  5814                           ;lcd_cmd@cmnd stored from wreg
  5815                           	line	52
  5816  08DC  1283               	bcf	status, 5	;RP0=0, select bank0
  5817  08DD  1303               	bcf	status, 6	;RP1=0, select bank0
  5818  08DE  00B1               	movwf	(lcd_cmd@cmnd)
  5819                           	
  5820  08DF                     l14255:	
  5821                           ;lcd.c: 52: PORTD = ((cmnd >> 4)& 0x0F);
  5822  08DF  0831               	movf	(lcd_cmd@cmnd),w
  5823  08E0  00AF               	movwf	(??_lcd_cmd+0)+0
  5824  08E1  3004               	movlw	04h
  5825  08E2                     u6235:
  5826  08E2  1003               	clrc
  5827  08E3  0CAF               	rrf	(??_lcd_cmd+0)+0,f
  5828  08E4  3EFF               	addlw	-1
  5829  08E5  1D03               	skipz
  5830  08E6  28E2               	goto	u6235
  5831  08E7  082F               	movf	0+(??_lcd_cmd+0)+0,w
  5832  08E8  390F               	andlw	0Fh
  5833  08E9  0088               	movwf	(8)	;volatile
  5834                           	line	56
  5835                           	
  5836  08EA                     l14257:	
  5837                           ;lcd.c: 56: PORTD=( cmnd & 0x0F0 );
  5838  08EA  0831               	movf	(lcd_cmd@cmnd),w
  5839  08EB  39F0               	andlw	0F0h
  5840  08EC  0088               	movwf	(8)	;volatile
  5841                           	line	59
  5842                           	
  5843  08ED                     l14259:	
  5844                           ;lcd.c: 59: RE0=0;
  5845  08ED  1009               	bcf	(72/8),(72)&7
  5846                           	line	60
  5847                           	
  5848  08EE                     l14261:	
  5849                           ;lcd.c: 60: RW=0;
  5850  08EE  1683               	bsf	status, 5	;RP0=1, select bank1
  5851  08EF  1303               	bcf	status, 6	;RP1=0, select bank1
  5852  08F0  1114               	bcf	(1186/8)^080h,(1186)&7
  5853                           	line	61
  5854                           	
  5855  08F1                     l14263:	
  5856                           ;lcd.c: 61: RE1=1;
  5857  08F1  1283               	bcf	status, 5	;RP0=0, select bank0
  5858  08F2  1303               	bcf	status, 6	;RP1=0, select bank0
  5859  08F3  1489               	bsf	(73/8),(73)&7
  5860                           	line	62
  5861                           	
  5862  08F4                     l14265:	
  5863                           ;lcd.c: 62: _delay((unsigned long)((5)*(20000000/4000.0)));
  5864                           	opt asmopt_off
  5865  08F4  3021               movlw	33
  5866  08F5  00B0               movwf	((??_lcd_cmd+0)+0+1),f
  5867  08F6  3076               	movlw	118
  5868  08F7  00AF               movwf	((??_lcd_cmd+0)+0),f
  5869  08F8                     u7087:
  5870  08F8  0BAF               	decfsz	((??_lcd_cmd+0)+0),f
  5871  08F9  28F8               	goto	u7087
  5872  08FA  0BB0               	decfsz	((??_lcd_cmd+0)+0+1),f
  5873  08FB  28F8               	goto	u7087
  5874  08FC  0064               	clrwdt
  5875                           opt asmopt_on
  5876                           
  5877                           	line	63
  5878                           	
  5879  08FD                     l14267:	
  5880                           ;lcd.c: 63: RE1=0;
  5881  08FD  1283               	bcf	status, 5	;RP0=0, select bank0
  5882  08FE  1303               	bcf	status, 6	;RP1=0, select bank0
  5883  08FF  1089               	bcf	(73/8),(73)&7
  5884                           	line	67
  5885                           	
  5886  0900                     l14269:	
  5887                           ;lcd.c: 67: PORTD=( cmnd & 0x0F );
  5888  0900  0831               	movf	(lcd_cmd@cmnd),w
  5889  0901  390F               	andlw	0Fh
  5890  0902  0088               	movwf	(8)	;volatile
  5891                           	line	70
  5892                           	
  5893  0903                     l14271:	
  5894                           ;lcd.c: 70: PORTD=((cmnd<<4)&(0x0F0));
  5895  0903  0831               	movf	(lcd_cmd@cmnd),w
  5896  0904  00AF               	movwf	(??_lcd_cmd+0)+0
  5897  0905  3003               	movlw	(04h)-1
  5898  0906                     u6245:
  5899  0906  1003               	clrc
  5900  0907  0DAF               	rlf	(??_lcd_cmd+0)+0,f
  5901  0908  3EFF               	addlw	-1
  5902  0909  1D03               	skipz
  5903  090A  2906               	goto	u6245
  5904  090B  1003               	clrc
  5905  090C  0D2F               	rlf	(??_lcd_cmd+0)+0,w
  5906  090D  39F0               	andlw	0F0h
  5907  090E  0088               	movwf	(8)	;volatile
  5908                           	line	73
  5909                           	
  5910  090F                     l14273:	
  5911                           ;lcd.c: 73: RE1=1;
  5912  090F  1489               	bsf	(73/8),(73)&7
  5913                           	line	74
  5914                           ;lcd.c: 74: _delay((unsigned long)((5)*(20000000/4000.0)));
  5915                           	opt asmopt_off
  5916  0910  3021               movlw	33
  5917  0911  00B0               movwf	((??_lcd_cmd+0)+0+1),f
  5918  0912  3076               	movlw	118
  5919  0913  00AF               movwf	((??_lcd_cmd+0)+0),f
  5920  0914                     u7097:
  5921  0914  0BAF               	decfsz	((??_lcd_cmd+0)+0),f
  5922  0915  2914               	goto	u7097
  5923  0916  0BB0               	decfsz	((??_lcd_cmd+0)+0+1),f
  5924  0917  2914               	goto	u7097
  5925  0918  0064               	clrwdt
  5926                           opt asmopt_on
  5927                           
  5928                           	line	75
  5929                           	
  5930  0919                     l14275:	
  5931                           ;lcd.c: 75: RE1=0;
  5932  0919  1283               	bcf	status, 5	;RP0=0, select bank0
  5933  091A  1303               	bcf	status, 6	;RP1=0, select bank0
  5934  091B  1089               	bcf	(73/8),(73)&7
  5935                           	line	77
  5936                           	
  5937  091C                     l7269:	
  5938  091C  0008               	return
  5939                           	opt stack 0
  5940                           GLOBAL	__end_of_lcd_cmd
  5941  091D                     	__end_of_lcd_cmd:
  5942 ;; =============== function _lcd_cmd ends ============
  5943                           
  5944                           	signat	_lcd_cmd,4216
  5945                           	global	_initialise_timer0
  5946                           psect	text1658,local,class=CODE,delta=2
  5947                           global __ptext1658
  5948  15C4                     __ptext1658:
  5949                           
  5950 ;; *************** function _initialise_timer0 *****************
  5951 ;; Defined at:
  5952 ;;		line 5 in file "timer0.c"
  5953 ;; Parameters:    Size  Location     Type
  5954 ;;		None
  5955 ;; Auto vars:     Size  Location     Type
  5956 ;;		None
  5957 ;; Return value:  Size  Location     Type
  5958 ;;		None               void
  5959 ;; Registers used:
  5960 ;;		status,2, status,0, pclath, cstack
  5961 ;; Tracked objects:
  5962 ;;		On entry : 0/0
  5963 ;;		On exit  : 0/0
  5964 ;;		Unchanged: 0/0
  5965 ;; Data sizes:     COMMON   BANK0   BANK1   BANK3   BANK2
  5966 ;;      Params:         0       0       0       0       0
  5967 ;;      Locals:         0       0       0       0       0
  5968 ;;      Temps:          0       0       0       0       0
  5969 ;;      Totals:         0       0       0       0       0
  5970 ;;Total ram usage:        0 bytes
  5971 ;; Hardware stack levels used:    1
  5972 ;; Hardware stack levels required when called:    7
  5973 ;; This function calls:
  5974 ;;		_GlobalInterrupt_ENABLE
  5975 ;; This function is called by:
  5976 ;;		_peripheral_initialsation
  5977 ;; This function uses a non-reentrant model
  5978 ;;
  5979                           psect	text1658
  5980                           	file	"timer0.c"
  5981                           	line	5
  5982                           	global	__size_of_initialise_timer0
  5983  0016                     	__size_of_initialise_timer0	equ	__end_of_initialise_timer0-_initialise_timer0
  5984                           	
  5985  15C4                     _initialise_timer0:	
  5986                           	opt	stack 6
  5987                           ; Regs used in _initialise_timer0: [status,2+status,0+pclath+cstack]
  5988                           	line	7
  5989                           	
  5990  15C4                     l13525:	
  5991                           ;timer0.c: 7: PS0 = 1;
  5992  15C4  1683               	bsf	status, 5	;RP0=1, select bank1
  5993  15C5  1303               	bcf	status, 6	;RP1=0, select bank1
  5994  15C6  1401               	bsf	(1032/8)^080h,(1032)&7
  5995                           	line	8
  5996                           ;timer0.c: 8: PS1 = 1;
  5997  15C7  1481               	bsf	(1033/8)^080h,(1033)&7
  5998                           	line	9
  5999                           ;timer0.c: 9: PS2 = 1;
  6000  15C8  1501               	bsf	(1034/8)^080h,(1034)&7
  6001                           	line	12
  6002                           ;timer0.c: 12: PSA = 0;
  6003  15C9  1181               	bcf	(1035/8)^080h,(1035)&7
  6004                           	line	15
  6005                           ;timer0.c: 15: T0CS = 0;
  6006  15CA  1281               	bcf	(1037/8)^080h,(1037)&7
  6007                           	line	18
  6008                           ;timer0.c: 18: T0SE = 0;
  6009  15CB  1201               	bcf	(1036/8)^080h,(1036)&7
  6010                           	line	21
  6011                           	
  6012  15CC                     l13527:	
  6013                           ;timer0.c: 21: TMR0 = 0x00;
  6014  15CC  1283               	bcf	status, 5	;RP0=0, select bank0
  6015  15CD  1303               	bcf	status, 6	;RP1=0, select bank0
  6016  15CE  0181               	clrf	(1)	;volatile
  6017                           	line	23
  6018                           	
  6019  15CF                     l13529:	
  6020                           ;timer0.c: 23: INTEDG = 1;
  6021  15CF  1683               	bsf	status, 5	;RP0=1, select bank1
  6022  15D0  1303               	bcf	status, 6	;RP1=0, select bank1
  6023  15D1  1701               	bsf	(1038/8)^080h,(1038)&7
  6024                           	line	26
  6025                           	
  6026  15D2                     l13531:	
  6027                           ;timer0.c: 26: T0IE = 1;
  6028  15D2  168B               	bsf	(93/8),(93)&7
  6029                           	line	27
  6030                           	
  6031  15D3                     l13533:	
  6032                           ;timer0.c: 27: PEIE = 1;
  6033  15D3  170B               	bsf	(94/8),(94)&7
  6034                           	line	28
  6035                           	
  6036  15D4                     l13535:	
  6037                           ;timer0.c: 28: GlobalInterrupt_ENABLE();
  6038  15D4  120A  158A  2000   	fcall	_GlobalInterrupt_ENABLE
              160A  118A         
  6039                           	line	29
  6040                           	
  6041  15D9                     l9057:	
  6042  15D9  0008               	return
  6043                           	opt stack 0
  6044                           GLOBAL	__end_of_initialise_timer0
  6045  15DA                     	__end_of_initialise_timer0:
  6046 ;; =============== function _initialise_timer0 ends ============
  6047                           
  6048                           	signat	_initialise_timer0,88
  6049                           	global	_isItFirstTime
  6050                           psect	text1659,local,class=CODE,delta=2
  6051                           global __ptext1659
  6052  00FF                     __ptext1659:
  6053                           
  6054 ;; *************** function _isItFirstTime *****************
  6055 ;; Defined at:
  6056 ;;		line 102 in file "MainCode.c"
  6057 ;; Parameters:    Size  Location     Type
  6058 ;;		None
  6059 ;; Auto vars:     Size  Location     Type
  6060 ;;  Config          1   18[BANK0 ] unsigned char 
  6061 ;; Return value:  Size  Location     Type
  6062 ;;		None               void
  6063 ;; Registers used:
  6064 ;;		wreg, status,2, status,0
  6065 ;; Tracked objects:
  6066 ;;		On entry : 0/0
  6067 ;;		On exit  : 0/0
  6068 ;;		Unchanged: 0/0
  6069 ;; Data sizes:     COMMON   BANK0   BANK1   BANK3   BANK2
  6070 ;;      Params:         0       0       0       0       0
  6071 ;;      Locals:         0       1       0       0       0
  6072 ;;      Temps:          0       3       0       0       0
  6073 ;;      Totals:         0       4       0       0       0
  6074 ;;Total ram usage:        4 bytes
  6075 ;; Hardware stack levels used:    1
  6076 ;; Hardware stack levels required when called:    6
  6077 ;; This function calls:
  6078 ;;		Nothing
  6079 ;; This function is called by:
  6080 ;;		_main
  6081 ;; This function uses a non-reentrant model
  6082 ;;
  6083                           psect	text1659
  6084                           	file	"MainCode.c"
  6085                           	line	102
  6086                           	global	__size_of_isItFirstTime
  6087  0295                     	__size_of_isItFirstTime	equ	__end_of_isItFirstTime-_isItFirstTime
  6088                           	
  6089  00FF                     _isItFirstTime:	
  6090                           	opt	stack 7
  6091                           ; Regs used in _isItFirstTime: [wreg+status,2+status,0]
  6092                           	line	105
  6093                           	
  6094  00FF                     l13289:	
  6095                           ;MainCode.c: 103: UByte Config;
  6096                           ;MainCode.c: 105: Config = ((EEADR=(0x05)),(EECON1&=0x3F),(RD=1),EEDATA);
  6097  00FF  3005               	movlw	(05h)
  6098  0100  1283               	bcf	status, 5	;RP0=0, select bank2
  6099  0101  1703               	bsf	status, 6	;RP1=1, select bank2
  6100  0102  008D               	movwf	(269)^0100h	;volatile
  6101                           	
  6102  0103                     l13291:	
  6103  0103  303F               	movlw	(03Fh)
  6104  0104  1283               	bcf	status, 5	;RP0=0, select bank0
  6105  0105  1303               	bcf	status, 6	;RP1=0, select bank0
  6106  0106  00AF               	movwf	(??_isItFirstTime+0)+0
  6107  0107  082F               	movf	(??_isItFirstTime+0)+0,w
  6108  0108  1683               	bsf	status, 5	;RP0=1, select bank3
  6109  0109  1703               	bsf	status, 6	;RP1=1, select bank3
  6110  010A  058C               	andwf	(396)^0180h,f	;volatile
  6111                           	
  6112  010B                     l13293:	
  6113  010B  140C               	bsf	(3168/8)^0180h,(3168)&7
  6114                           	
  6115  010C                     l13295:	
  6116  010C  1283               	bcf	status, 5	;RP0=0, select bank2
  6117  010D  1703               	bsf	status, 6	;RP1=1, select bank2
  6118  010E  080C               	movf	(268)^0100h,w	;volatile
  6119  010F  1283               	bcf	status, 5	;RP0=0, select bank0
  6120  0110  1303               	bcf	status, 6	;RP1=0, select bank0
  6121  0111  00AF               	movwf	(??_isItFirstTime+0)+0
  6122  0112  082F               	movf	(??_isItFirstTime+0)+0,w
  6123  0113  00B2               	movwf	(isItFirstTime@Config)
  6124                           	line	106
  6125                           	
  6126  0114                     l13297:	
  6127                           ;MainCode.c: 106: if (0x01 != Config) {
  6128  0114  0832               	movf	(isItFirstTime@Config),w
  6129  0115  3A01               	xorlw	01h
  6130  0116  1903               	skipnz
  6131  0117  2919               	goto	u4841
  6132  0118  291A               	goto	u4840
  6133  0119                     u4841:
  6134  0119  2B37               	goto	l4529
  6135  011A                     u4840:
  6136                           	line	109
  6137                           ;MainCode.c: 109: do{ while(WR)continue;EEADR=(0x10);EEDATA=(0x10); EECON1&=0x3F;CARRY=0
                                 ;if(GIE)CARRY=1;GIE=0; WREN=1;EECON2=0x55;EECON2=0xAA;WR=1;WREN=0; if(CARRY)GIE=1; }whil
                                 e(0);
  6138                           	
  6139  011A                     l4530:	
  6140  011A  291B               	goto	l4531
  6141                           	
  6142  011B                     l4532:	
  6143                           	
  6144  011B                     l4531:	
  6145  011B  1683               	bsf	status, 5	;RP0=1, select bank3
  6146  011C  1703               	bsf	status, 6	;RP1=1, select bank3
  6147  011D  188C               	btfsc	(3169/8)^0180h,(3169)&7
  6148  011E  2920               	goto	u4851
  6149  011F  2921               	goto	u4850
  6150  0120                     u4851:
  6151  0120  291B               	goto	l4532
  6152  0121                     u4850:
  6153                           	
  6154  0121                     l4533:	
  6155                           	
  6156  0121                     l13299:	
  6157  0121  3010               	movlw	(010h)
  6158  0122  1283               	bcf	status, 5	;RP0=0, select bank2
  6159  0123  1703               	bsf	status, 6	;RP1=1, select bank2
  6160  0124  008D               	movwf	(269)^0100h	;volatile
  6161  0125  3010               	movlw	(010h)
  6162  0126  008C               	movwf	(268)^0100h	;volatile
  6163                           	
  6164  0127                     l13301:	
  6165  0127  303F               	movlw	(03Fh)
  6166  0128  1283               	bcf	status, 5	;RP0=0, select bank0
  6167  0129  1303               	bcf	status, 6	;RP1=0, select bank0
  6168  012A  00AF               	movwf	(??_isItFirstTime+0)+0
  6169  012B  082F               	movf	(??_isItFirstTime+0)+0,w
  6170  012C  1683               	bsf	status, 5	;RP0=1, select bank3
  6171  012D  1703               	bsf	status, 6	;RP1=1, select bank3
  6172  012E  058C               	andwf	(396)^0180h,f	;volatile
  6173                           	
  6174  012F                     l13303:	
  6175  012F  1283               	bcf	status, 5	;RP0=0, select bank0
  6176  0130  1303               	bcf	status, 6	;RP1=0, select bank0
  6177  0131  1003               	bcf	(24/8),(24)&7
  6178                           	
  6179  0132                     l13305:	
  6180  0132  1F8B               	btfss	(95/8),(95)&7
  6181  0133  2935               	goto	u4861
  6182  0134  2936               	goto	u4860
  6183  0135                     u4861:
  6184  0135  2937               	goto	l4534
  6185  0136                     u4860:
  6186                           	
  6187  0136                     l13307:	
  6188  0136  1403               	bsf	(24/8),(24)&7
  6189                           	
  6190  0137                     l4534:	
  6191  0137  138B               	bcf	(95/8),(95)&7
  6192  0138  1683               	bsf	status, 5	;RP0=1, select bank3
  6193  0139  1703               	bsf	status, 6	;RP1=1, select bank3
  6194  013A  150C               	bsf	(3170/8)^0180h,(3170)&7
  6195                           	
  6196  013B                     l13309:	
  6197  013B  3055               	movlw	(055h)
  6198  013C  008D               	movwf	(397)^0180h	;volatile
  6199  013D  30AA               	movlw	(0AAh)
  6200  013E  008D               	movwf	(397)^0180h	;volatile
  6201                           	
  6202  013F                     l13311:	
  6203  013F  148C               	bsf	(3169/8)^0180h,(3169)&7
  6204                           	
  6205  0140                     l13313:	
  6206  0140  110C               	bcf	(3170/8)^0180h,(3170)&7
  6207                           	
  6208  0141                     l13315:	
  6209  0141  1283               	bcf	status, 5	;RP0=0, select bank0
  6210  0142  1303               	bcf	status, 6	;RP1=0, select bank0
  6211  0143  1C03               	btfss	(24/8),(24)&7
  6212  0144  2946               	goto	u4871
  6213  0145  2947               	goto	u4870
  6214  0146                     u4871:
  6215  0146  2948               	goto	l4535
  6216  0147                     u4870:
  6217                           	
  6218  0147                     l13317:	
  6219  0147  178B               	bsf	(95/8),(95)&7
  6220                           	
  6221  0148                     l4535:	
  6222                           	
  6223  0148                     l4536:	
  6224                           	line	110
  6225                           	
  6226  0148                     l13319:	
  6227                           ;MainCode.c: 110: _delay((unsigned long)((100)*(20000000/4000.0)));
  6228                           	opt asmopt_off
  6229  0148  3003               movlw  3
  6230  0149  00B1               movwf	((??_isItFirstTime+0)+0+2),f
  6231  014A  3088               movlw	136
  6232  014B  00B0               movwf	((??_isItFirstTime+0)+0+1),f
  6233  014C  3056               	movlw	86
  6234  014D  00AF               movwf	((??_isItFirstTime+0)+0),f
  6235  014E                     u7107:
  6236  014E  0BAF               	decfsz	((??_isItFirstTime+0)+0),f
  6237  014F  294E               	goto	u7107
  6238  0150  0BB0               	decfsz	((??_isItFirstTime+0)+0+1),f
  6239  0151  294E               	goto	u7107
  6240  0152  0BB1               	decfsz	((??_isItFirstTime+0)+0+2),f
  6241  0153  294E               	goto	u7107
  6242                           opt asmopt_on
  6243                           
  6244                           	line	111
  6245                           ;MainCode.c: 111: do{ while(WR)continue;EEADR=(0x12);EEDATA=(0x10); EECON1&=0x3F;CARRY=0
                                 ;if(GIE)CARRY=1;GIE=0; WREN=1;EECON2=0x55;EECON2=0xAA;WR=1;WREN=0; if(CARRY)GIE=1; }whil
                                 e(0);
  6246                           	
  6247  0154                     l4537:	
  6248  0154  2955               	goto	l4538
  6249                           	
  6250  0155                     l4539:	
  6251                           	
  6252  0155                     l4538:	
  6253  0155  1683               	bsf	status, 5	;RP0=1, select bank3
  6254  0156  1703               	bsf	status, 6	;RP1=1, select bank3
  6255  0157  188C               	btfsc	(3169/8)^0180h,(3169)&7
  6256  0158  295A               	goto	u4881
  6257  0159  295B               	goto	u4880
  6258  015A                     u4881:
  6259  015A  2955               	goto	l4539
  6260  015B                     u4880:
  6261                           	
  6262  015B                     l4540:	
  6263                           	
  6264  015B                     l13321:	
  6265  015B  3012               	movlw	(012h)
  6266  015C  1283               	bcf	status, 5	;RP0=0, select bank2
  6267  015D  1703               	bsf	status, 6	;RP1=1, select bank2
  6268  015E  008D               	movwf	(269)^0100h	;volatile
  6269  015F  3010               	movlw	(010h)
  6270  0160  008C               	movwf	(268)^0100h	;volatile
  6271                           	
  6272  0161                     l13323:	
  6273  0161  303F               	movlw	(03Fh)
  6274  0162  1283               	bcf	status, 5	;RP0=0, select bank0
  6275  0163  1303               	bcf	status, 6	;RP1=0, select bank0
  6276  0164  00AF               	movwf	(??_isItFirstTime+0)+0
  6277  0165  082F               	movf	(??_isItFirstTime+0)+0,w
  6278  0166  1683               	bsf	status, 5	;RP0=1, select bank3
  6279  0167  1703               	bsf	status, 6	;RP1=1, select bank3
  6280  0168  058C               	andwf	(396)^0180h,f	;volatile
  6281                           	
  6282  0169                     l13325:	
  6283  0169  1283               	bcf	status, 5	;RP0=0, select bank0
  6284  016A  1303               	bcf	status, 6	;RP1=0, select bank0
  6285  016B  1003               	bcf	(24/8),(24)&7
  6286                           	
  6287  016C                     l13327:	
  6288  016C  1F8B               	btfss	(95/8),(95)&7
  6289  016D  296F               	goto	u4891
  6290  016E  2970               	goto	u4890
  6291  016F                     u4891:
  6292  016F  2971               	goto	l4541
  6293  0170                     u4890:
  6294                           	
  6295  0170                     l13329:	
  6296  0170  1403               	bsf	(24/8),(24)&7
  6297                           	
  6298  0171                     l4541:	
  6299  0171  138B               	bcf	(95/8),(95)&7
  6300  0172  1683               	bsf	status, 5	;RP0=1, select bank3
  6301  0173  1703               	bsf	status, 6	;RP1=1, select bank3
  6302  0174  150C               	bsf	(3170/8)^0180h,(3170)&7
  6303                           	
  6304  0175                     l13331:	
  6305  0175  3055               	movlw	(055h)
  6306  0176  008D               	movwf	(397)^0180h	;volatile
  6307  0177  30AA               	movlw	(0AAh)
  6308  0178  008D               	movwf	(397)^0180h	;volatile
  6309                           	
  6310  0179                     l13333:	
  6311  0179  148C               	bsf	(3169/8)^0180h,(3169)&7
  6312                           	
  6313  017A                     l13335:	
  6314  017A  110C               	bcf	(3170/8)^0180h,(3170)&7
  6315                           	
  6316  017B                     l13337:	
  6317  017B  1283               	bcf	status, 5	;RP0=0, select bank0
  6318  017C  1303               	bcf	status, 6	;RP1=0, select bank0
  6319  017D  1C03               	btfss	(24/8),(24)&7
  6320  017E  2980               	goto	u4901
  6321  017F  2981               	goto	u4900
  6322  0180                     u4901:
  6323  0180  2982               	goto	l4542
  6324  0181                     u4900:
  6325                           	
  6326  0181                     l13339:	
  6327  0181  178B               	bsf	(95/8),(95)&7
  6328                           	
  6329  0182                     l4542:	
  6330                           	
  6331  0182                     l4543:	
  6332                           	line	112
  6333                           	
  6334  0182                     l13341:	
  6335                           ;MainCode.c: 112: _delay((unsigned long)((100)*(20000000/4000.0)));
  6336                           	opt asmopt_off
  6337  0182  3003               movlw  3
  6338  0183  00B1               movwf	((??_isItFirstTime+0)+0+2),f
  6339  0184  3088               movlw	136
  6340  0185  00B0               movwf	((??_isItFirstTime+0)+0+1),f
  6341  0186  3056               	movlw	86
  6342  0187  00AF               movwf	((??_isItFirstTime+0)+0),f
  6343  0188                     u7117:
  6344  0188  0BAF               	decfsz	((??_isItFirstTime+0)+0),f
  6345  0189  2988               	goto	u7117
  6346  018A  0BB0               	decfsz	((??_isItFirstTime+0)+0+1),f
  6347  018B  2988               	goto	u7117
  6348  018C  0BB1               	decfsz	((??_isItFirstTime+0)+0+2),f
  6349  018D  2988               	goto	u7117
  6350                           opt asmopt_on
  6351                           
  6352                           	line	113
  6353                           ;MainCode.c: 113: do{ while(WR)continue;EEADR=(0x14);EEDATA=(0x10); EECON1&=0x3F;CARRY=0
                                 ;if(GIE)CARRY=1;GIE=0; WREN=1;EECON2=0x55;EECON2=0xAA;WR=1;WREN=0; if(CARRY)GIE=1; }whil
                                 e(0);
  6354                           	
  6355  018E                     l4544:	
  6356  018E  298F               	goto	l4545
  6357                           	
  6358  018F                     l4546:	
  6359                           	
  6360  018F                     l4545:	
  6361  018F  1683               	bsf	status, 5	;RP0=1, select bank3
  6362  0190  1703               	bsf	status, 6	;RP1=1, select bank3
  6363  0191  188C               	btfsc	(3169/8)^0180h,(3169)&7
  6364  0192  2994               	goto	u4911
  6365  0193  2995               	goto	u4910
  6366  0194                     u4911:
  6367  0194  298F               	goto	l4546
  6368  0195                     u4910:
  6369                           	
  6370  0195                     l4547:	
  6371                           	
  6372  0195                     l13343:	
  6373  0195  3014               	movlw	(014h)
  6374  0196  1283               	bcf	status, 5	;RP0=0, select bank2
  6375  0197  1703               	bsf	status, 6	;RP1=1, select bank2
  6376  0198  008D               	movwf	(269)^0100h	;volatile
  6377  0199  3010               	movlw	(010h)
  6378  019A  008C               	movwf	(268)^0100h	;volatile
  6379                           	
  6380  019B                     l13345:	
  6381  019B  303F               	movlw	(03Fh)
  6382  019C  1283               	bcf	status, 5	;RP0=0, select bank0
  6383  019D  1303               	bcf	status, 6	;RP1=0, select bank0
  6384  019E  00AF               	movwf	(??_isItFirstTime+0)+0
  6385  019F  082F               	movf	(??_isItFirstTime+0)+0,w
  6386  01A0  1683               	bsf	status, 5	;RP0=1, select bank3
  6387  01A1  1703               	bsf	status, 6	;RP1=1, select bank3
  6388  01A2  058C               	andwf	(396)^0180h,f	;volatile
  6389                           	
  6390  01A3                     l13347:	
  6391  01A3  1283               	bcf	status, 5	;RP0=0, select bank0
  6392  01A4  1303               	bcf	status, 6	;RP1=0, select bank0
  6393  01A5  1003               	bcf	(24/8),(24)&7
  6394                           	
  6395  01A6                     l13349:	
  6396  01A6  1F8B               	btfss	(95/8),(95)&7
  6397  01A7  29A9               	goto	u4921
  6398  01A8  29AA               	goto	u4920
  6399  01A9                     u4921:
  6400  01A9  29AB               	goto	l4548
  6401  01AA                     u4920:
  6402                           	
  6403  01AA                     l13351:	
  6404  01AA  1403               	bsf	(24/8),(24)&7
  6405                           	
  6406  01AB                     l4548:	
  6407  01AB  138B               	bcf	(95/8),(95)&7
  6408  01AC  1683               	bsf	status, 5	;RP0=1, select bank3
  6409  01AD  1703               	bsf	status, 6	;RP1=1, select bank3
  6410  01AE  150C               	bsf	(3170/8)^0180h,(3170)&7
  6411                           	
  6412  01AF                     l13353:	
  6413  01AF  3055               	movlw	(055h)
  6414  01B0  008D               	movwf	(397)^0180h	;volatile
  6415  01B1  30AA               	movlw	(0AAh)
  6416  01B2  008D               	movwf	(397)^0180h	;volatile
  6417                           	
  6418  01B3                     l13355:	
  6419  01B3  148C               	bsf	(3169/8)^0180h,(3169)&7
  6420                           	
  6421  01B4                     l13357:	
  6422  01B4  110C               	bcf	(3170/8)^0180h,(3170)&7
  6423                           	
  6424  01B5                     l13359:	
  6425  01B5  1283               	bcf	status, 5	;RP0=0, select bank0
  6426  01B6  1303               	bcf	status, 6	;RP1=0, select bank0
  6427  01B7  1C03               	btfss	(24/8),(24)&7
  6428  01B8  29BA               	goto	u4931
  6429  01B9  29BB               	goto	u4930
  6430  01BA                     u4931:
  6431  01BA  29BC               	goto	l4549
  6432  01BB                     u4930:
  6433                           	
  6434  01BB                     l13361:	
  6435  01BB  178B               	bsf	(95/8),(95)&7
  6436                           	
  6437  01BC                     l4549:	
  6438                           	
  6439  01BC                     l4550:	
  6440                           	line	114
  6441                           	
  6442  01BC                     l13363:	
  6443                           ;MainCode.c: 114: _delay((unsigned long)((100)*(20000000/4000.0)));
  6444                           	opt asmopt_off
  6445  01BC  3003               movlw  3
  6446  01BD  00B1               movwf	((??_isItFirstTime+0)+0+2),f
  6447  01BE  3088               movlw	136
  6448  01BF  00B0               movwf	((??_isItFirstTime+0)+0+1),f
  6449  01C0  3056               	movlw	86
  6450  01C1  00AF               movwf	((??_isItFirstTime+0)+0),f
  6451  01C2                     u7127:
  6452  01C2  0BAF               	decfsz	((??_isItFirstTime+0)+0),f
  6453  01C3  29C2               	goto	u7127
  6454  01C4  0BB0               	decfsz	((??_isItFirstTime+0)+0+1),f
  6455  01C5  29C2               	goto	u7127
  6456  01C6  0BB1               	decfsz	((??_isItFirstTime+0)+0+2),f
  6457  01C7  29C2               	goto	u7127
  6458                           opt asmopt_on
  6459                           
  6460                           	line	115
  6461                           ;MainCode.c: 115: do{ while(WR)continue;EEADR=(0x16);EEDATA=(0x10); EECON1&=0x3F;CARRY=0
                                 ;if(GIE)CARRY=1;GIE=0; WREN=1;EECON2=0x55;EECON2=0xAA;WR=1;WREN=0; if(CARRY)GIE=1; }whil
                                 e(0);
  6462                           	
  6463  01C8                     l4551:	
  6464  01C8  29C9               	goto	l4552
  6465                           	
  6466  01C9                     l4553:	
  6467                           	
  6468  01C9                     l4552:	
  6469  01C9  1683               	bsf	status, 5	;RP0=1, select bank3
  6470  01CA  1703               	bsf	status, 6	;RP1=1, select bank3
  6471  01CB  188C               	btfsc	(3169/8)^0180h,(3169)&7
  6472  01CC  29CE               	goto	u4941
  6473  01CD  29CF               	goto	u4940
  6474  01CE                     u4941:
  6475  01CE  29C9               	goto	l4553
  6476  01CF                     u4940:
  6477                           	
  6478  01CF                     l4554:	
  6479                           	
  6480  01CF                     l13365:	
  6481  01CF  3016               	movlw	(016h)
  6482  01D0  1283               	bcf	status, 5	;RP0=0, select bank2
  6483  01D1  1703               	bsf	status, 6	;RP1=1, select bank2
  6484  01D2  008D               	movwf	(269)^0100h	;volatile
  6485  01D3  3010               	movlw	(010h)
  6486  01D4  008C               	movwf	(268)^0100h	;volatile
  6487                           	
  6488  01D5                     l13367:	
  6489  01D5  303F               	movlw	(03Fh)
  6490  01D6  1283               	bcf	status, 5	;RP0=0, select bank0
  6491  01D7  1303               	bcf	status, 6	;RP1=0, select bank0
  6492  01D8  00AF               	movwf	(??_isItFirstTime+0)+0
  6493  01D9  082F               	movf	(??_isItFirstTime+0)+0,w
  6494  01DA  1683               	bsf	status, 5	;RP0=1, select bank3
  6495  01DB  1703               	bsf	status, 6	;RP1=1, select bank3
  6496  01DC  058C               	andwf	(396)^0180h,f	;volatile
  6497                           	
  6498  01DD                     l13369:	
  6499  01DD  1283               	bcf	status, 5	;RP0=0, select bank0
  6500  01DE  1303               	bcf	status, 6	;RP1=0, select bank0
  6501  01DF  1003               	bcf	(24/8),(24)&7
  6502                           	
  6503  01E0                     l13371:	
  6504  01E0  1F8B               	btfss	(95/8),(95)&7
  6505  01E1  29E3               	goto	u4951
  6506  01E2  29E4               	goto	u4950
  6507  01E3                     u4951:
  6508  01E3  29E5               	goto	l4555
  6509  01E4                     u4950:
  6510                           	
  6511  01E4                     l13373:	
  6512  01E4  1403               	bsf	(24/8),(24)&7
  6513                           	
  6514  01E5                     l4555:	
  6515  01E5  138B               	bcf	(95/8),(95)&7
  6516  01E6  1683               	bsf	status, 5	;RP0=1, select bank3
  6517  01E7  1703               	bsf	status, 6	;RP1=1, select bank3
  6518  01E8  150C               	bsf	(3170/8)^0180h,(3170)&7
  6519                           	
  6520  01E9                     l13375:	
  6521  01E9  3055               	movlw	(055h)
  6522  01EA  008D               	movwf	(397)^0180h	;volatile
  6523  01EB  30AA               	movlw	(0AAh)
  6524  01EC  008D               	movwf	(397)^0180h	;volatile
  6525                           	
  6526  01ED                     l13377:	
  6527  01ED  148C               	bsf	(3169/8)^0180h,(3169)&7
  6528                           	
  6529  01EE                     l13379:	
  6530  01EE  110C               	bcf	(3170/8)^0180h,(3170)&7
  6531                           	
  6532  01EF                     l13381:	
  6533  01EF  1283               	bcf	status, 5	;RP0=0, select bank0
  6534  01F0  1303               	bcf	status, 6	;RP1=0, select bank0
  6535  01F1  1C03               	btfss	(24/8),(24)&7
  6536  01F2  29F4               	goto	u4961
  6537  01F3  29F5               	goto	u4960
  6538  01F4                     u4961:
  6539  01F4  29F6               	goto	l4556
  6540  01F5                     u4960:
  6541                           	
  6542  01F5                     l13383:	
  6543  01F5  178B               	bsf	(95/8),(95)&7
  6544                           	
  6545  01F6                     l4556:	
  6546                           	
  6547  01F6                     l4557:	
  6548                           	line	116
  6549                           	
  6550  01F6                     l13385:	
  6551                           ;MainCode.c: 116: _delay((unsigned long)((100)*(20000000/4000.0)));
  6552                           	opt asmopt_off
  6553  01F6  3003               movlw  3
  6554  01F7  00B1               movwf	((??_isItFirstTime+0)+0+2),f
  6555  01F8  3088               movlw	136
  6556  01F9  00B0               movwf	((??_isItFirstTime+0)+0+1),f
  6557  01FA  3056               	movlw	86
  6558  01FB  00AF               movwf	((??_isItFirstTime+0)+0),f
  6559  01FC                     u7137:
  6560  01FC  0BAF               	decfsz	((??_isItFirstTime+0)+0),f
  6561  01FD  29FC               	goto	u7137
  6562  01FE  0BB0               	decfsz	((??_isItFirstTime+0)+0+1),f
  6563  01FF  29FC               	goto	u7137
  6564  0200  0BB1               	decfsz	((??_isItFirstTime+0)+0+2),f
  6565  0201  29FC               	goto	u7137
  6566                           opt asmopt_on
  6567                           
  6568                           	line	117
  6569                           ;MainCode.c: 117: do{ while(WR)continue;EEADR=(0x20);EEDATA=(0x10); EECON1&=0x3F;CARRY=0
                                 ;if(GIE)CARRY=1;GIE=0; WREN=1;EECON2=0x55;EECON2=0xAA;WR=1;WREN=0; if(CARRY)GIE=1; }whil
                                 e(0);
  6570                           	
  6571  0202                     l4558:	
  6572  0202  2A03               	goto	l4559
  6573                           	
  6574  0203                     l4560:	
  6575                           	
  6576  0203                     l4559:	
  6577  0203  1683               	bsf	status, 5	;RP0=1, select bank3
  6578  0204  1703               	bsf	status, 6	;RP1=1, select bank3
  6579  0205  188C               	btfsc	(3169/8)^0180h,(3169)&7
  6580  0206  2A08               	goto	u4971
  6581  0207  2A09               	goto	u4970
  6582  0208                     u4971:
  6583  0208  2A03               	goto	l4560
  6584  0209                     u4970:
  6585                           	
  6586  0209                     l4561:	
  6587                           	
  6588  0209                     l13387:	
  6589  0209  3020               	movlw	(020h)
  6590  020A  1283               	bcf	status, 5	;RP0=0, select bank2
  6591  020B  1703               	bsf	status, 6	;RP1=1, select bank2
  6592  020C  008D               	movwf	(269)^0100h	;volatile
  6593  020D  3010               	movlw	(010h)
  6594  020E  008C               	movwf	(268)^0100h	;volatile
  6595                           	
  6596  020F                     l13389:	
  6597  020F  303F               	movlw	(03Fh)
  6598  0210  1283               	bcf	status, 5	;RP0=0, select bank0
  6599  0211  1303               	bcf	status, 6	;RP1=0, select bank0
  6600  0212  00AF               	movwf	(??_isItFirstTime+0)+0
  6601  0213  082F               	movf	(??_isItFirstTime+0)+0,w
  6602  0214  1683               	bsf	status, 5	;RP0=1, select bank3
  6603  0215  1703               	bsf	status, 6	;RP1=1, select bank3
  6604  0216  058C               	andwf	(396)^0180h,f	;volatile
  6605                           	
  6606  0217                     l13391:	
  6607  0217  1283               	bcf	status, 5	;RP0=0, select bank0
  6608  0218  1303               	bcf	status, 6	;RP1=0, select bank0
  6609  0219  1003               	bcf	(24/8),(24)&7
  6610                           	
  6611  021A                     l13393:	
  6612  021A  1F8B               	btfss	(95/8),(95)&7
  6613  021B  2A1D               	goto	u4981
  6614  021C  2A1E               	goto	u4980
  6615  021D                     u4981:
  6616  021D  2A1F               	goto	l4562
  6617  021E                     u4980:
  6618                           	
  6619  021E                     l13395:	
  6620  021E  1403               	bsf	(24/8),(24)&7
  6621                           	
  6622  021F                     l4562:	
  6623  021F  138B               	bcf	(95/8),(95)&7
  6624  0220  1683               	bsf	status, 5	;RP0=1, select bank3
  6625  0221  1703               	bsf	status, 6	;RP1=1, select bank3
  6626  0222  150C               	bsf	(3170/8)^0180h,(3170)&7
  6627                           	
  6628  0223                     l13397:	
  6629  0223  3055               	movlw	(055h)
  6630  0224  008D               	movwf	(397)^0180h	;volatile
  6631  0225  30AA               	movlw	(0AAh)
  6632  0226  008D               	movwf	(397)^0180h	;volatile
  6633                           	
  6634  0227                     l13399:	
  6635  0227  148C               	bsf	(3169/8)^0180h,(3169)&7
  6636                           	
  6637  0228                     l13401:	
  6638  0228  110C               	bcf	(3170/8)^0180h,(3170)&7
  6639                           	
  6640  0229                     l13403:	
  6641  0229  1283               	bcf	status, 5	;RP0=0, select bank0
  6642  022A  1303               	bcf	status, 6	;RP1=0, select bank0
  6643  022B  1C03               	btfss	(24/8),(24)&7
  6644  022C  2A2E               	goto	u4991
  6645  022D  2A2F               	goto	u4990
  6646  022E                     u4991:
  6647  022E  2A30               	goto	l4563
  6648  022F                     u4990:
  6649                           	
  6650  022F                     l13405:	
  6651  022F  178B               	bsf	(95/8),(95)&7
  6652                           	
  6653  0230                     l4563:	
  6654                           	
  6655  0230                     l4564:	
  6656                           	line	118
  6657                           	
  6658  0230                     l13407:	
  6659                           ;MainCode.c: 118: _delay((unsigned long)((100)*(20000000/4000.0)));
  6660                           	opt asmopt_off
  6661  0230  3003               movlw  3
  6662  0231  00B1               movwf	((??_isItFirstTime+0)+0+2),f
  6663  0232  3088               movlw	136
  6664  0233  00B0               movwf	((??_isItFirstTime+0)+0+1),f
  6665  0234  3056               	movlw	86
  6666  0235  00AF               movwf	((??_isItFirstTime+0)+0),f
  6667  0236                     u7147:
  6668  0236  0BAF               	decfsz	((??_isItFirstTime+0)+0),f
  6669  0237  2A36               	goto	u7147
  6670  0238  0BB0               	decfsz	((??_isItFirstTime+0)+0+1),f
  6671  0239  2A36               	goto	u7147
  6672  023A  0BB1               	decfsz	((??_isItFirstTime+0)+0+2),f
  6673  023B  2A36               	goto	u7147
  6674                           opt asmopt_on
  6675                           
  6676                           	line	119
  6677                           ;MainCode.c: 119: do{ while(WR)continue;EEADR=(0x22);EEDATA=(0x10); EECON1&=0x3F;CARRY=0
                                 ;if(GIE)CARRY=1;GIE=0; WREN=1;EECON2=0x55;EECON2=0xAA;WR=1;WREN=0; if(CARRY)GIE=1; }whil
                                 e(0);
  6678                           	
  6679  023C                     l4565:	
  6680  023C  2A3D               	goto	l4566
  6681                           	
  6682  023D                     l4567:	
  6683                           	
  6684  023D                     l4566:	
  6685  023D  1683               	bsf	status, 5	;RP0=1, select bank3
  6686  023E  1703               	bsf	status, 6	;RP1=1, select bank3
  6687  023F  188C               	btfsc	(3169/8)^0180h,(3169)&7
  6688  0240  2A42               	goto	u5001
  6689  0241  2A43               	goto	u5000
  6690  0242                     u5001:
  6691  0242  2A3D               	goto	l4567
  6692  0243                     u5000:
  6693                           	
  6694  0243                     l4568:	
  6695                           	
  6696  0243                     l13409:	
  6697  0243  3022               	movlw	(022h)
  6698  0244  1283               	bcf	status, 5	;RP0=0, select bank2
  6699  0245  1703               	bsf	status, 6	;RP1=1, select bank2
  6700  0246  008D               	movwf	(269)^0100h	;volatile
  6701  0247  3010               	movlw	(010h)
  6702  0248  008C               	movwf	(268)^0100h	;volatile
  6703                           	
  6704  0249                     l13411:	
  6705  0249  303F               	movlw	(03Fh)
  6706  024A  1283               	bcf	status, 5	;RP0=0, select bank0
  6707  024B  1303               	bcf	status, 6	;RP1=0, select bank0
  6708  024C  00AF               	movwf	(??_isItFirstTime+0)+0
  6709  024D  082F               	movf	(??_isItFirstTime+0)+0,w
  6710  024E  1683               	bsf	status, 5	;RP0=1, select bank3
  6711  024F  1703               	bsf	status, 6	;RP1=1, select bank3
  6712  0250  058C               	andwf	(396)^0180h,f	;volatile
  6713                           	
  6714  0251                     l13413:	
  6715  0251  1283               	bcf	status, 5	;RP0=0, select bank0
  6716  0252  1303               	bcf	status, 6	;RP1=0, select bank0
  6717  0253  1003               	bcf	(24/8),(24)&7
  6718                           	
  6719  0254                     l13415:	
  6720  0254  1F8B               	btfss	(95/8),(95)&7
  6721  0255  2A57               	goto	u5011
  6722  0256  2A58               	goto	u5010
  6723  0257                     u5011:
  6724  0257  2A59               	goto	l4569
  6725  0258                     u5010:
  6726                           	
  6727  0258                     l13417:	
  6728  0258  1403               	bsf	(24/8),(24)&7
  6729                           	
  6730  0259                     l4569:	
  6731  0259  138B               	bcf	(95/8),(95)&7
  6732  025A  1683               	bsf	status, 5	;RP0=1, select bank3
  6733  025B  1703               	bsf	status, 6	;RP1=1, select bank3
  6734  025C  150C               	bsf	(3170/8)^0180h,(3170)&7
  6735                           	
  6736  025D                     l13419:	
  6737  025D  3055               	movlw	(055h)
  6738  025E  008D               	movwf	(397)^0180h	;volatile
  6739  025F  30AA               	movlw	(0AAh)
  6740  0260  008D               	movwf	(397)^0180h	;volatile
  6741                           	
  6742  0261                     l13421:	
  6743  0261  148C               	bsf	(3169/8)^0180h,(3169)&7
  6744                           	
  6745  0262                     l13423:	
  6746  0262  110C               	bcf	(3170/8)^0180h,(3170)&7
  6747                           	
  6748  0263                     l13425:	
  6749  0263  1283               	bcf	status, 5	;RP0=0, select bank0
  6750  0264  1303               	bcf	status, 6	;RP1=0, select bank0
  6751  0265  1C03               	btfss	(24/8),(24)&7
  6752  0266  2A68               	goto	u5021
  6753  0267  2A69               	goto	u5020
  6754  0268                     u5021:
  6755  0268  2A6A               	goto	l4570
  6756  0269                     u5020:
  6757                           	
  6758  0269                     l13427:	
  6759  0269  178B               	bsf	(95/8),(95)&7
  6760                           	
  6761  026A                     l4570:	
  6762                           	
  6763  026A                     l4571:	
  6764                           	line	120
  6765                           	
  6766  026A                     l13429:	
  6767                           ;MainCode.c: 120: _delay((unsigned long)((100)*(20000000/4000.0)));
  6768                           	opt asmopt_off
  6769  026A  3003               movlw  3
  6770  026B  00B1               movwf	((??_isItFirstTime+0)+0+2),f
  6771  026C  3088               movlw	136
  6772  026D  00B0               movwf	((??_isItFirstTime+0)+0+1),f
  6773  026E  3056               	movlw	86
  6774  026F  00AF               movwf	((??_isItFirstTime+0)+0),f
  6775  0270                     u7157:
  6776  0270  0BAF               	decfsz	((??_isItFirstTime+0)+0),f
  6777  0271  2A70               	goto	u7157
  6778  0272  0BB0               	decfsz	((??_isItFirstTime+0)+0+1),f
  6779  0273  2A70               	goto	u7157
  6780  0274  0BB1               	decfsz	((??_isItFirstTime+0)+0+2),f
  6781  0275  2A70               	goto	u7157
  6782                           opt asmopt_on
  6783                           
  6784                           	line	121
  6785                           ;MainCode.c: 121: do{ while(WR)continue;EEADR=(0x24);EEDATA=(0x10); EECON1&=0x3F;CARRY=0
                                 ;if(GIE)CARRY=1;GIE=0; WREN=1;EECON2=0x55;EECON2=0xAA;WR=1;WREN=0; if(CARRY)GIE=1; }whil
                                 e(0);
  6786                           	
  6787  0276                     l4572:	
  6788  0276  2A77               	goto	l4573
  6789                           	
  6790  0277                     l4574:	
  6791                           	
  6792  0277                     l4573:	
  6793  0277  1683               	bsf	status, 5	;RP0=1, select bank3
  6794  0278  1703               	bsf	status, 6	;RP1=1, select bank3
  6795  0279  188C               	btfsc	(3169/8)^0180h,(3169)&7
  6796  027A  2A7C               	goto	u5031
  6797  027B  2A7D               	goto	u5030
  6798  027C                     u5031:
  6799  027C  2A77               	goto	l4574
  6800  027D                     u5030:
  6801                           	
  6802  027D                     l4575:	
  6803                           	
  6804  027D                     l13431:	
  6805  027D  3024               	movlw	(024h)
  6806  027E  1283               	bcf	status, 5	;RP0=0, select bank2
  6807  027F  1703               	bsf	status, 6	;RP1=1, select bank2
  6808  0280  008D               	movwf	(269)^0100h	;volatile
  6809  0281  3010               	movlw	(010h)
  6810  0282  008C               	movwf	(268)^0100h	;volatile
  6811                           	
  6812  0283                     l13433:	
  6813  0283  303F               	movlw	(03Fh)
  6814  0284  1283               	bcf	status, 5	;RP0=0, select bank0
  6815  0285  1303               	bcf	status, 6	;RP1=0, select bank0
  6816  0286  00AF               	movwf	(??_isItFirstTime+0)+0
  6817  0287  082F               	movf	(??_isItFirstTime+0)+0,w
  6818  0288  1683               	bsf	status, 5	;RP0=1, select bank3
  6819  0289  1703               	bsf	status, 6	;RP1=1, select bank3
  6820  028A  058C               	andwf	(396)^0180h,f	;volatile
  6821                           	
  6822  028B                     l13435:	
  6823  028B  1283               	bcf	status, 5	;RP0=0, select bank0
  6824  028C  1303               	bcf	status, 6	;RP1=0, select bank0
  6825  028D  1003               	bcf	(24/8),(24)&7
  6826                           	
  6827  028E                     l13437:	
  6828  028E  1F8B               	btfss	(95/8),(95)&7
  6829  028F  2A91               	goto	u5041
  6830  0290  2A92               	goto	u5040
  6831  0291                     u5041:
  6832  0291  2A93               	goto	l4576
  6833  0292                     u5040:
  6834                           	
  6835  0292                     l13439:	
  6836  0292  1403               	bsf	(24/8),(24)&7
  6837                           	
  6838  0293                     l4576:	
  6839  0293  138B               	bcf	(95/8),(95)&7
  6840  0294  1683               	bsf	status, 5	;RP0=1, select bank3
  6841  0295  1703               	bsf	status, 6	;RP1=1, select bank3
  6842  0296  150C               	bsf	(3170/8)^0180h,(3170)&7
  6843                           	
  6844  0297                     l13441:	
  6845  0297  3055               	movlw	(055h)
  6846  0298  008D               	movwf	(397)^0180h	;volatile
  6847  0299  30AA               	movlw	(0AAh)
  6848  029A  008D               	movwf	(397)^0180h	;volatile
  6849                           	
  6850  029B                     l13443:	
  6851  029B  148C               	bsf	(3169/8)^0180h,(3169)&7
  6852                           	
  6853  029C                     l13445:	
  6854  029C  110C               	bcf	(3170/8)^0180h,(3170)&7
  6855                           	
  6856  029D                     l13447:	
  6857  029D  1283               	bcf	status, 5	;RP0=0, select bank0
  6858  029E  1303               	bcf	status, 6	;RP1=0, select bank0
  6859  029F  1C03               	btfss	(24/8),(24)&7
  6860  02A0  2AA2               	goto	u5051
  6861  02A1  2AA3               	goto	u5050
  6862  02A2                     u5051:
  6863  02A2  2AA4               	goto	l4577
  6864  02A3                     u5050:
  6865                           	
  6866  02A3                     l13449:	
  6867  02A3  178B               	bsf	(95/8),(95)&7
  6868                           	
  6869  02A4                     l4577:	
  6870                           	
  6871  02A4                     l4578:	
  6872                           	line	122
  6873                           	
  6874  02A4                     l13451:	
  6875                           ;MainCode.c: 122: _delay((unsigned long)((100)*(20000000/4000.0)));
  6876                           	opt asmopt_off
  6877  02A4  3003               movlw  3
  6878  02A5  00B1               movwf	((??_isItFirstTime+0)+0+2),f
  6879  02A6  3088               movlw	136
  6880  02A7  00B0               movwf	((??_isItFirstTime+0)+0+1),f
  6881  02A8  3056               	movlw	86
  6882  02A9  00AF               movwf	((??_isItFirstTime+0)+0),f
  6883  02AA                     u7167:
  6884  02AA  0BAF               	decfsz	((??_isItFirstTime+0)+0),f
  6885  02AB  2AAA               	goto	u7167
  6886  02AC  0BB0               	decfsz	((??_isItFirstTime+0)+0+1),f
  6887  02AD  2AAA               	goto	u7167
  6888  02AE  0BB1               	decfsz	((??_isItFirstTime+0)+0+2),f
  6889  02AF  2AAA               	goto	u7167
  6890                           opt asmopt_on
  6891                           
  6892                           	line	123
  6893                           ;MainCode.c: 123: do{ while(WR)continue;EEADR=(0x26);EEDATA=(0x10); EECON1&=0x3F;CARRY=0
                                 ;if(GIE)CARRY=1;GIE=0; WREN=1;EECON2=0x55;EECON2=0xAA;WR=1;WREN=0; if(CARRY)GIE=1; }whil
                                 e(0);
  6894                           	
  6895  02B0                     l4579:	
  6896  02B0  2AB1               	goto	l4580
  6897                           	
  6898  02B1                     l4581:	
  6899                           	
  6900  02B1                     l4580:	
  6901  02B1  1683               	bsf	status, 5	;RP0=1, select bank3
  6902  02B2  1703               	bsf	status, 6	;RP1=1, select bank3
  6903  02B3  188C               	btfsc	(3169/8)^0180h,(3169)&7
  6904  02B4  2AB6               	goto	u5061
  6905  02B5  2AB7               	goto	u5060
  6906  02B6                     u5061:
  6907  02B6  2AB1               	goto	l4581
  6908  02B7                     u5060:
  6909                           	
  6910  02B7                     l4582:	
  6911                           	
  6912  02B7                     l13453:	
  6913  02B7  3026               	movlw	(026h)
  6914  02B8  1283               	bcf	status, 5	;RP0=0, select bank2
  6915  02B9  1703               	bsf	status, 6	;RP1=1, select bank2
  6916  02BA  008D               	movwf	(269)^0100h	;volatile
  6917  02BB  3010               	movlw	(010h)
  6918  02BC  008C               	movwf	(268)^0100h	;volatile
  6919                           	
  6920  02BD                     l13455:	
  6921  02BD  303F               	movlw	(03Fh)
  6922  02BE  1283               	bcf	status, 5	;RP0=0, select bank0
  6923  02BF  1303               	bcf	status, 6	;RP1=0, select bank0
  6924  02C0  00AF               	movwf	(??_isItFirstTime+0)+0
  6925  02C1  082F               	movf	(??_isItFirstTime+0)+0,w
  6926  02C2  1683               	bsf	status, 5	;RP0=1, select bank3
  6927  02C3  1703               	bsf	status, 6	;RP1=1, select bank3
  6928  02C4  058C               	andwf	(396)^0180h,f	;volatile
  6929                           	
  6930  02C5                     l13457:	
  6931  02C5  1283               	bcf	status, 5	;RP0=0, select bank0
  6932  02C6  1303               	bcf	status, 6	;RP1=0, select bank0
  6933  02C7  1003               	bcf	(24/8),(24)&7
  6934                           	
  6935  02C8                     l13459:	
  6936  02C8  1F8B               	btfss	(95/8),(95)&7
  6937  02C9  2ACB               	goto	u5071
  6938  02CA  2ACC               	goto	u5070
  6939  02CB                     u5071:
  6940  02CB  2ACD               	goto	l4583
  6941  02CC                     u5070:
  6942                           	
  6943  02CC                     l13461:	
  6944  02CC  1403               	bsf	(24/8),(24)&7
  6945                           	
  6946  02CD                     l4583:	
  6947  02CD  138B               	bcf	(95/8),(95)&7
  6948  02CE  1683               	bsf	status, 5	;RP0=1, select bank3
  6949  02CF  1703               	bsf	status, 6	;RP1=1, select bank3
  6950  02D0  150C               	bsf	(3170/8)^0180h,(3170)&7
  6951                           	
  6952  02D1                     l13463:	
  6953  02D1  3055               	movlw	(055h)
  6954  02D2  008D               	movwf	(397)^0180h	;volatile
  6955  02D3  30AA               	movlw	(0AAh)
  6956  02D4  008D               	movwf	(397)^0180h	;volatile
  6957                           	
  6958  02D5                     l13465:	
  6959  02D5  148C               	bsf	(3169/8)^0180h,(3169)&7
  6960                           	
  6961  02D6                     l13467:	
  6962  02D6  110C               	bcf	(3170/8)^0180h,(3170)&7
  6963                           	
  6964  02D7                     l13469:	
  6965  02D7  1283               	bcf	status, 5	;RP0=0, select bank0
  6966  02D8  1303               	bcf	status, 6	;RP1=0, select bank0
  6967  02D9  1C03               	btfss	(24/8),(24)&7
  6968  02DA  2ADC               	goto	u5081
  6969  02DB  2ADD               	goto	u5080
  6970  02DC                     u5081:
  6971  02DC  2ADE               	goto	l4584
  6972  02DD                     u5080:
  6973                           	
  6974  02DD                     l13471:	
  6975  02DD  178B               	bsf	(95/8),(95)&7
  6976                           	
  6977  02DE                     l4584:	
  6978                           	
  6979  02DE                     l4585:	
  6980                           	line	124
  6981                           	
  6982  02DE                     l13473:	
  6983                           ;MainCode.c: 124: _delay((unsigned long)((100)*(20000000/4000.0)));
  6984                           	opt asmopt_off
  6985  02DE  3003               movlw  3
  6986  02DF  00B1               movwf	((??_isItFirstTime+0)+0+2),f
  6987  02E0  3088               movlw	136
  6988  02E1  00B0               movwf	((??_isItFirstTime+0)+0+1),f
  6989  02E2  3056               	movlw	86
  6990  02E3  00AF               movwf	((??_isItFirstTime+0)+0),f
  6991  02E4                     u7177:
  6992  02E4  0BAF               	decfsz	((??_isItFirstTime+0)+0),f
  6993  02E5  2AE4               	goto	u7177
  6994  02E6  0BB0               	decfsz	((??_isItFirstTime+0)+0+1),f
  6995  02E7  2AE4               	goto	u7177
  6996  02E8  0BB1               	decfsz	((??_isItFirstTime+0)+0+2),f
  6997  02E9  2AE4               	goto	u7177
  6998                           opt asmopt_on
  6999                           
  7000                           	line	127
  7001                           ;MainCode.c: 127: CurrentCoffeeQuantity = 0x10;
  7002  02EA  3010               	movlw	(010h)
  7003  02EB  1283               	bcf	status, 5	;RP0=0, select bank0
  7004  02EC  1303               	bcf	status, 6	;RP1=0, select bank0
  7005  02ED  00AF               	movwf	(??_isItFirstTime+0)+0
  7006  02EE  082F               	movf	(??_isItFirstTime+0)+0,w
  7007  02EF  00C0               	movwf	(_CurrentCoffeeQuantity)
  7008                           	line	128
  7009                           ;MainCode.c: 128: CurrentWaterQuantity_forCoffee = 0x10;
  7010  02F0  3010               	movlw	(010h)
  7011  02F1  00AF               	movwf	(??_isItFirstTime+0)+0
  7012  02F2  082F               	movf	(??_isItFirstTime+0)+0,w
  7013  02F3  00C2               	movwf	(_CurrentWaterQuantity_forCoffee)
  7014                           	line	129
  7015                           ;MainCode.c: 129: CurrentTeaQuantity = 0x10;
  7016  02F4  3010               	movlw	(010h)
  7017  02F5  00AF               	movwf	(??_isItFirstTime+0)+0
  7018  02F6  082F               	movf	(??_isItFirstTime+0)+0,w
  7019  02F7  00C1               	movwf	(_CurrentTeaQuantity)
  7020                           	line	130
  7021                           ;MainCode.c: 130: CurrentWaterQuantity_forTea = 0x10;
  7022  02F8  3010               	movlw	(010h)
  7023  02F9  00AF               	movwf	(??_isItFirstTime+0)+0
  7024  02FA  082F               	movf	(??_isItFirstTime+0)+0,w
  7025  02FB  00C3               	movwf	(_CurrentWaterQuantity_forTea)
  7026                           	line	132
  7027                           ;MainCode.c: 132: do{ while(WR)continue;EEADR=(0x05);EEDATA=(0x01); EECON1&=0x3F;CARRY=0
                                 ;if(GIE)CARRY=1;GIE=0; WREN=1;EECON2=0x55;EECON2=0xAA;WR=1;WREN=0; if(CARRY)GIE=1; }whil
                                 e(0);
  7028                           	
  7029  02FC                     l4586:	
  7030  02FC  2AFD               	goto	l4587
  7031                           	
  7032  02FD                     l4588:	
  7033                           	
  7034  02FD                     l4587:	
  7035  02FD  1683               	bsf	status, 5	;RP0=1, select bank3
  7036  02FE  1703               	bsf	status, 6	;RP1=1, select bank3
  7037  02FF  188C               	btfsc	(3169/8)^0180h,(3169)&7
  7038  0300  2B02               	goto	u5091
  7039  0301  2B03               	goto	u5090
  7040  0302                     u5091:
  7041  0302  2AFD               	goto	l4588
  7042  0303                     u5090:
  7043                           	
  7044  0303                     l4589:	
  7045                           	
  7046  0303                     l13475:	
  7047  0303  3005               	movlw	(05h)
  7048  0304  1283               	bcf	status, 5	;RP0=0, select bank2
  7049  0305  1703               	bsf	status, 6	;RP1=1, select bank2
  7050  0306  008D               	movwf	(269)^0100h	;volatile
  7051  0307  3001               	movlw	(01h)
  7052  0308  008C               	movwf	(268)^0100h	;volatile
  7053                           	
  7054  0309                     l13477:	
  7055  0309  303F               	movlw	(03Fh)
  7056  030A  1283               	bcf	status, 5	;RP0=0, select bank0
  7057  030B  1303               	bcf	status, 6	;RP1=0, select bank0
  7058  030C  00AF               	movwf	(??_isItFirstTime+0)+0
  7059  030D  082F               	movf	(??_isItFirstTime+0)+0,w
  7060  030E  1683               	bsf	status, 5	;RP0=1, select bank3
  7061  030F  1703               	bsf	status, 6	;RP1=1, select bank3
  7062  0310  058C               	andwf	(396)^0180h,f	;volatile
  7063                           	
  7064  0311                     l13479:	
  7065  0311  1283               	bcf	status, 5	;RP0=0, select bank0
  7066  0312  1303               	bcf	status, 6	;RP1=0, select bank0
  7067  0313  1003               	bcf	(24/8),(24)&7
  7068                           	
  7069  0314                     l13481:	
  7070  0314  1F8B               	btfss	(95/8),(95)&7
  7071  0315  2B17               	goto	u5101
  7072  0316  2B18               	goto	u5100
  7073  0317                     u5101:
  7074  0317  2B19               	goto	l4590
  7075  0318                     u5100:
  7076                           	
  7077  0318                     l13483:	
  7078  0318  1403               	bsf	(24/8),(24)&7
  7079                           	
  7080  0319                     l4590:	
  7081  0319  138B               	bcf	(95/8),(95)&7
  7082  031A  1683               	bsf	status, 5	;RP0=1, select bank3
  7083  031B  1703               	bsf	status, 6	;RP1=1, select bank3
  7084  031C  150C               	bsf	(3170/8)^0180h,(3170)&7
  7085                           	
  7086  031D                     l13485:	
  7087  031D  3055               	movlw	(055h)
  7088  031E  008D               	movwf	(397)^0180h	;volatile
  7089  031F  30AA               	movlw	(0AAh)
  7090  0320  008D               	movwf	(397)^0180h	;volatile
  7091                           	
  7092  0321                     l13487:	
  7093  0321  148C               	bsf	(3169/8)^0180h,(3169)&7
  7094                           	
  7095  0322                     l13489:	
  7096  0322  110C               	bcf	(3170/8)^0180h,(3170)&7
  7097                           	
  7098  0323                     l13491:	
  7099  0323  1283               	bcf	status, 5	;RP0=0, select bank0
  7100  0324  1303               	bcf	status, 6	;RP1=0, select bank0
  7101  0325  1C03               	btfss	(24/8),(24)&7
  7102  0326  2B28               	goto	u5111
  7103  0327  2B29               	goto	u5110
  7104  0328                     u5111:
  7105  0328  2B2A               	goto	l4591
  7106  0329                     u5110:
  7107                           	
  7108  0329                     l13493:	
  7109  0329  178B               	bsf	(95/8),(95)&7
  7110                           	
  7111  032A                     l4591:	
  7112                           	
  7113  032A                     l4592:	
  7114                           	line	135
  7115                           	
  7116  032A                     l13495:	
  7117                           ;MainCode.c: 135: _delay((unsigned long)((100)*(20000000/4000.0)));
  7118                           	opt asmopt_off
  7119  032A  3003               movlw  3
  7120  032B  00B1               movwf	((??_isItFirstTime+0)+0+2),f
  7121  032C  3088               movlw	136
  7122  032D  00B0               movwf	((??_isItFirstTime+0)+0+1),f
  7123  032E  3056               	movlw	86
  7124  032F  00AF               movwf	((??_isItFirstTime+0)+0),f
  7125  0330                     u7187:
  7126  0330  0BAF               	decfsz	((??_isItFirstTime+0)+0),f
  7127  0331  2B30               	goto	u7187
  7128  0332  0BB0               	decfsz	((??_isItFirstTime+0)+0+1),f
  7129  0333  2B30               	goto	u7187
  7130  0334  0BB1               	decfsz	((??_isItFirstTime+0)+0+2),f
  7131  0335  2B30               	goto	u7187
  7132                           opt asmopt_on
  7133                           
  7134                           	line	136
  7135                           ;MainCode.c: 136: } else if (0x01 == Config) {
  7136  0336  2B93               	goto	l4593
  7137                           	
  7138  0337                     l4529:	
  7139                           	
  7140  0337                     l13497:	
  7141  0337  1283               	bcf	status, 5	;RP0=0, select bank0
  7142  0338  1303               	bcf	status, 6	;RP1=0, select bank0
  7143  0339  0832               	movf	(isItFirstTime@Config),w
  7144  033A  3A01               	xorlw	01h
  7145  033B  1D03               	skipz
  7146  033C  2B3E               	goto	u5121
  7147  033D  2B3F               	goto	u5120
  7148  033E                     u5121:
  7149  033E  2B93               	goto	l4594
  7150  033F                     u5120:
  7151                           	line	139
  7152                           	
  7153  033F                     l13499:	
  7154                           ;MainCode.c: 139: CurrentCoffeeQuantity = ((EEADR=(0x20)),(EECON1&=0x3F),(RD=1),EEDATA);
  7155  033F  3020               	movlw	(020h)
  7156  0340  1283               	bcf	status, 5	;RP0=0, select bank2
  7157  0341  1703               	bsf	status, 6	;RP1=1, select bank2
  7158  0342  008D               	movwf	(269)^0100h	;volatile
  7159                           	
  7160  0343                     l13501:	
  7161  0343  303F               	movlw	(03Fh)
  7162  0344  1283               	bcf	status, 5	;RP0=0, select bank0
  7163  0345  1303               	bcf	status, 6	;RP1=0, select bank0
  7164  0346  00AF               	movwf	(??_isItFirstTime+0)+0
  7165  0347  082F               	movf	(??_isItFirstTime+0)+0,w
  7166  0348  1683               	bsf	status, 5	;RP0=1, select bank3
  7167  0349  1703               	bsf	status, 6	;RP1=1, select bank3
  7168  034A  058C               	andwf	(396)^0180h,f	;volatile
  7169                           	
  7170  034B                     l13503:	
  7171  034B  140C               	bsf	(3168/8)^0180h,(3168)&7
  7172                           	
  7173  034C                     l13505:	
  7174  034C  1283               	bcf	status, 5	;RP0=0, select bank2
  7175  034D  1703               	bsf	status, 6	;RP1=1, select bank2
  7176  034E  080C               	movf	(268)^0100h,w	;volatile
  7177  034F  1283               	bcf	status, 5	;RP0=0, select bank0
  7178  0350  1303               	bcf	status, 6	;RP1=0, select bank0
  7179  0351  00AF               	movwf	(??_isItFirstTime+0)+0
  7180  0352  082F               	movf	(??_isItFirstTime+0)+0,w
  7181  0353  00C0               	movwf	(_CurrentCoffeeQuantity)
  7182                           	line	140
  7183                           	
  7184  0354                     l13507:	
  7185                           ;MainCode.c: 140: CurrentWaterQuantity_forCoffee = ((EEADR=(0x22)),(EECON1&=0x3F),(RD=1)
                                 ,EEDATA);
  7186  0354  3022               	movlw	(022h)
  7187  0355  1283               	bcf	status, 5	;RP0=0, select bank2
  7188  0356  1703               	bsf	status, 6	;RP1=1, select bank2
  7189  0357  008D               	movwf	(269)^0100h	;volatile
  7190                           	
  7191  0358                     l13509:	
  7192  0358  303F               	movlw	(03Fh)
  7193  0359  1283               	bcf	status, 5	;RP0=0, select bank0
  7194  035A  1303               	bcf	status, 6	;RP1=0, select bank0
  7195  035B  00AF               	movwf	(??_isItFirstTime+0)+0
  7196  035C  082F               	movf	(??_isItFirstTime+0)+0,w
  7197  035D  1683               	bsf	status, 5	;RP0=1, select bank3
  7198  035E  1703               	bsf	status, 6	;RP1=1, select bank3
  7199  035F  058C               	andwf	(396)^0180h,f	;volatile
  7200                           	
  7201  0360                     l13511:	
  7202  0360  140C               	bsf	(3168/8)^0180h,(3168)&7
  7203  0361  1283               	bcf	status, 5	;RP0=0, select bank2
  7204  0362  1703               	bsf	status, 6	;RP1=1, select bank2
  7205  0363  080C               	movf	(268)^0100h,w	;volatile
  7206  0364  1283               	bcf	status, 5	;RP0=0, select bank0
  7207  0365  1303               	bcf	status, 6	;RP1=0, select bank0
  7208  0366  00AF               	movwf	(??_isItFirstTime+0)+0
  7209  0367  082F               	movf	(??_isItFirstTime+0)+0,w
  7210  0368  00C2               	movwf	(_CurrentWaterQuantity_forCoffee)
  7211                           	line	141
  7212                           ;MainCode.c: 141: CurrentTeaQuantity = ((EEADR=(0x24)),(EECON1&=0x3F),(RD=1),EEDATA);
  7213  0369  3024               	movlw	(024h)
  7214  036A  1283               	bcf	status, 5	;RP0=0, select bank2
  7215  036B  1703               	bsf	status, 6	;RP1=1, select bank2
  7216  036C  008D               	movwf	(269)^0100h	;volatile
  7217                           	
  7218  036D                     l13513:	
  7219  036D  303F               	movlw	(03Fh)
  7220  036E  1283               	bcf	status, 5	;RP0=0, select bank0
  7221  036F  1303               	bcf	status, 6	;RP1=0, select bank0
  7222  0370  00AF               	movwf	(??_isItFirstTime+0)+0
  7223  0371  082F               	movf	(??_isItFirstTime+0)+0,w
  7224  0372  1683               	bsf	status, 5	;RP0=1, select bank3
  7225  0373  1703               	bsf	status, 6	;RP1=1, select bank3
  7226  0374  058C               	andwf	(396)^0180h,f	;volatile
  7227                           	
  7228  0375                     l13515:	
  7229  0375  140C               	bsf	(3168/8)^0180h,(3168)&7
  7230                           	
  7231  0376                     l13517:	
  7232  0376  1283               	bcf	status, 5	;RP0=0, select bank2
  7233  0377  1703               	bsf	status, 6	;RP1=1, select bank2
  7234  0378  080C               	movf	(268)^0100h,w	;volatile
  7235  0379  1283               	bcf	status, 5	;RP0=0, select bank0
  7236  037A  1303               	bcf	status, 6	;RP1=0, select bank0
  7237  037B  00AF               	movwf	(??_isItFirstTime+0)+0
  7238  037C  082F               	movf	(??_isItFirstTime+0)+0,w
  7239  037D  00C1               	movwf	(_CurrentTeaQuantity)
  7240                           	line	142
  7241                           	
  7242  037E                     l13519:	
  7243                           ;MainCode.c: 142: CurrentWaterQuantity_forTea = ((EEADR=(0x26)),(EECON1&=0x3F),(RD=1),EE
                                 DATA);
  7244  037E  3026               	movlw	(026h)
  7245  037F  1283               	bcf	status, 5	;RP0=0, select bank2
  7246  0380  1703               	bsf	status, 6	;RP1=1, select bank2
  7247  0381  008D               	movwf	(269)^0100h	;volatile
  7248                           	
  7249  0382                     l13521:	
  7250  0382  303F               	movlw	(03Fh)
  7251  0383  1283               	bcf	status, 5	;RP0=0, select bank0
  7252  0384  1303               	bcf	status, 6	;RP1=0, select bank0
  7253  0385  00AF               	movwf	(??_isItFirstTime+0)+0
  7254  0386  082F               	movf	(??_isItFirstTime+0)+0,w
  7255  0387  1683               	bsf	status, 5	;RP0=1, select bank3
  7256  0388  1703               	bsf	status, 6	;RP1=1, select bank3
  7257  0389  058C               	andwf	(396)^0180h,f	;volatile
  7258                           	
  7259  038A                     l13523:	
  7260  038A  140C               	bsf	(3168/8)^0180h,(3168)&7
  7261  038B  1283               	bcf	status, 5	;RP0=0, select bank2
  7262  038C  1703               	bsf	status, 6	;RP1=1, select bank2
  7263  038D  080C               	movf	(268)^0100h,w	;volatile
  7264  038E  1283               	bcf	status, 5	;RP0=0, select bank0
  7265  038F  1303               	bcf	status, 6	;RP1=0, select bank0
  7266  0390  00AF               	movwf	(??_isItFirstTime+0)+0
  7267  0391  082F               	movf	(??_isItFirstTime+0)+0,w
  7268  0392  00C3               	movwf	(_CurrentWaterQuantity_forTea)
  7269                           	line	145
  7270                           	
  7271  0393                     l4594:	
  7272                           	line	147
  7273                           	
  7274  0393                     l4593:	
  7275                           	
  7276  0393                     l4595:	
  7277  0393  0008               	return
  7278                           	opt stack 0
  7279                           GLOBAL	__end_of_isItFirstTime
  7280  0394                     	__end_of_isItFirstTime:
  7281 ;; =============== function _isItFirstTime ends ============
  7282                           
  7283                           	signat	_isItFirstTime,88
  7284                           	global	___awmod
  7285                           psect	text1660,local,class=CODE,delta=2
  7286                           global __ptext1660
  7287  0A4E                     __ptext1660:
  7288                           
  7289 ;; *************** function ___awmod *****************
  7290 ;; Defined at:
  7291 ;;		line 5 in file "C:\Program Files (x86)\HI-TECH Software\PICC\9.71a\sources\awmod.c"
  7292 ;; Parameters:    Size  Location     Type
  7293 ;;  divisor         2   15[BANK0 ] int 
  7294 ;;  dividend        2   17[BANK0 ] int 
  7295 ;; Auto vars:     Size  Location     Type
  7296 ;;  sign            1   21[BANK0 ] unsigned char 
  7297 ;;  counter         1   20[BANK0 ] unsigned char 
  7298 ;; Return value:  Size  Location     Type
  7299 ;;                  2   15[BANK0 ] int 
  7300 ;; Registers used:
  7301 ;;		wreg, status,2, status,0
  7302 ;; Tracked objects:
  7303 ;;		On entry : 0/0
  7304 ;;		On exit  : 0/0
  7305 ;;		Unchanged: 0/0
  7306 ;; Data sizes:     COMMON   BANK0   BANK1   BANK3   BANK2
  7307 ;;      Params:         0       4       0       0       0
  7308 ;;      Locals:         0       2       0       0       0
  7309 ;;      Temps:          0       1       0       0       0
  7310 ;;      Totals:         0       7       0       0       0
  7311 ;;Total ram usage:        7 bytes
  7312 ;; Hardware stack levels used:    1
  7313 ;; Hardware stack levels required when called:    6
  7314 ;; This function calls:
  7315 ;;		Nothing
  7316 ;; This function is called by:
  7317 ;;		_lcd_writeThisDigit
  7318 ;; This function uses a non-reentrant model
  7319 ;;
  7320                           psect	text1660
  7321                           	file	"C:\Program Files (x86)\HI-TECH Software\PICC\9.71a\sources\awmod.c"
  7322                           	line	5
  7323                           	global	__size_of___awmod
  7324  0062                     	__size_of___awmod	equ	__end_of___awmod-___awmod
  7325                           	
  7326  0A4E                     ___awmod:	
  7327                           	opt	stack 2
  7328                           ; Regs used in ___awmod: [wreg+status,2+status,0]
  7329                           	line	8
  7330                           	
  7331  0A4E                     l14139:	
  7332  0A4E  1003               	clrc
  7333  0A4F  3000               	movlw	0
  7334  0A50  1803               	btfsc	status,0
  7335  0A51  3001               	movlw	1
  7336  0A52  1283               	bcf	status, 5	;RP0=0, select bank0
  7337  0A53  1303               	bcf	status, 6	;RP1=0, select bank0
  7338  0A54  00B5               	movwf	(___awmod@sign)
  7339                           	line	9
  7340                           	
  7341  0A55                     l14141:	
  7342  0A55  1FB2               	btfss	(___awmod@dividend+1),7
  7343  0A56  2A58               	goto	u6041
  7344  0A57  2A59               	goto	u6040
  7345  0A58                     u6041:
  7346  0A58  2A61               	goto	l10157
  7347  0A59                     u6040:
  7348                           	line	10
  7349                           	
  7350  0A59                     l14143:	
  7351  0A59  09B1               	comf	(___awmod@dividend),f
  7352  0A5A  09B2               	comf	(___awmod@dividend+1),f
  7353  0A5B  0AB1               	incf	(___awmod@dividend),f
  7354  0A5C  1903               	skipnz
  7355  0A5D  0AB2               	incf	(___awmod@dividend+1),f
  7356                           	line	11
  7357  0A5E  01B5               	clrf	(___awmod@sign)
  7358  0A5F  1403               	bsf	status,0
  7359  0A60  0DB5               	rlf	(___awmod@sign),f
  7360                           	line	12
  7361                           	
  7362  0A61                     l10157:	
  7363                           	line	13
  7364                           	
  7365  0A61                     l14145:	
  7366  0A61  1FB0               	btfss	(___awmod@divisor+1),7
  7367  0A62  2A64               	goto	u6051
  7368  0A63  2A65               	goto	u6050
  7369  0A64                     u6051:
  7370  0A64  2A6A               	goto	l10158
  7371  0A65                     u6050:
  7372                           	line	14
  7373                           	
  7374  0A65                     l14147:	
  7375  0A65  09AF               	comf	(___awmod@divisor),f
  7376  0A66  09B0               	comf	(___awmod@divisor+1),f
  7377  0A67  0AAF               	incf	(___awmod@divisor),f
  7378  0A68  1903               	skipnz
  7379  0A69  0AB0               	incf	(___awmod@divisor+1),f
  7380                           	
  7381  0A6A                     l10158:	
  7382                           	line	15
  7383                           	
  7384  0A6A                     l14149:	
  7385  0A6A  0830               	movf	(___awmod@divisor+1),w
  7386  0A6B  042F               	iorwf	(___awmod@divisor),w
  7387  0A6C  1903               	skipnz
  7388  0A6D  2A6F               	goto	u6061
  7389  0A6E  2A70               	goto	u6060
  7390  0A6F                     u6061:
  7391  0A6F  2AA0               	goto	l10159
  7392  0A70                     u6060:
  7393                           	line	16
  7394                           	
  7395  0A70                     l14151:	
  7396  0A70  01B4               	clrf	(___awmod@counter)
  7397  0A71  1403               	bsf	status,0
  7398  0A72  0DB4               	rlf	(___awmod@counter),f
  7399                           	line	17
  7400  0A73  2A7F               	goto	l10160
  7401                           	
  7402  0A74                     l10161:	
  7403                           	line	18
  7404                           	
  7405  0A74                     l14153:	
  7406  0A74  3001               	movlw	01h
  7407                           	
  7408  0A75                     u6075:
  7409  0A75  1003               	clrc
  7410  0A76  0DAF               	rlf	(___awmod@divisor),f
  7411  0A77  0DB0               	rlf	(___awmod@divisor+1),f
  7412  0A78  3EFF               	addlw	-1
  7413  0A79  1D03               	skipz
  7414  0A7A  2A75               	goto	u6075
  7415                           	line	19
  7416                           	
  7417  0A7B                     l14155:	
  7418  0A7B  3001               	movlw	(01h)
  7419  0A7C  00B3               	movwf	(??___awmod+0)+0
  7420  0A7D  0833               	movf	(??___awmod+0)+0,w
  7421  0A7E  07B4               	addwf	(___awmod@counter),f
  7422                           	line	20
  7423                           	
  7424  0A7F                     l10160:	
  7425                           	line	17
  7426                           	
  7427  0A7F                     l14157:	
  7428  0A7F  1FB0               	btfss	(___awmod@divisor+1),(15)&7
  7429  0A80  2A82               	goto	u6081
  7430  0A81  2A83               	goto	u6080
  7431  0A82                     u6081:
  7432  0A82  2A74               	goto	l10161
  7433  0A83                     u6080:
  7434                           	
  7435  0A83                     l10162:	
  7436                           	line	21
  7437                           	
  7438  0A83                     l10163:	
  7439                           	line	22
  7440                           	
  7441  0A83                     l14159:	
  7442  0A83  0830               	movf	(___awmod@divisor+1),w
  7443  0A84  0232               	subwf	(___awmod@dividend+1),w
  7444  0A85  1D03               	skipz
  7445  0A86  2A89               	goto	u6095
  7446  0A87  082F               	movf	(___awmod@divisor),w
  7447  0A88  0231               	subwf	(___awmod@dividend),w
  7448  0A89                     u6095:
  7449  0A89  1C03               	skipc
  7450  0A8A  2A8C               	goto	u6091
  7451  0A8B  2A8D               	goto	u6090
  7452  0A8C                     u6091:
  7453  0A8C  2A93               	goto	l10164
  7454  0A8D                     u6090:
  7455                           	line	23
  7456                           	
  7457  0A8D                     l14161:	
  7458  0A8D  082F               	movf	(___awmod@divisor),w
  7459  0A8E  02B1               	subwf	(___awmod@dividend),f
  7460  0A8F  0830               	movf	(___awmod@divisor+1),w
  7461  0A90  1C03               	skipc
  7462  0A91  03B2               	decf	(___awmod@dividend+1),f
  7463  0A92  02B2               	subwf	(___awmod@dividend+1),f
  7464                           	
  7465  0A93                     l10164:	
  7466                           	line	24
  7467                           	
  7468  0A93                     l14163:	
  7469  0A93  3001               	movlw	01h
  7470                           	
  7471  0A94                     u6105:
  7472  0A94  1003               	clrc
  7473  0A95  0CB0               	rrf	(___awmod@divisor+1),f
  7474  0A96  0CAF               	rrf	(___awmod@divisor),f
  7475  0A97  3EFF               	addlw	-1
  7476  0A98  1D03               	skipz
  7477  0A99  2A94               	goto	u6105
  7478                           	line	25
  7479                           	
  7480  0A9A                     l14165:	
  7481  0A9A  3001               	movlw	low(01h)
  7482  0A9B  02B4               	subwf	(___awmod@counter),f
  7483  0A9C  1D03               	btfss	status,2
  7484  0A9D  2A9F               	goto	u6111
  7485  0A9E  2AA0               	goto	u6110
  7486  0A9F                     u6111:
  7487  0A9F  2A83               	goto	l10163
  7488  0AA0                     u6110:
  7489                           	
  7490  0AA0                     l10165:	
  7491                           	line	26
  7492                           	
  7493  0AA0                     l10159:	
  7494                           	line	27
  7495                           	
  7496  0AA0                     l14167:	
  7497  0AA0  0835               	movf	(___awmod@sign),w
  7498  0AA1  1D03               	skipz
  7499  0AA2  2AA4               	goto	u6120
  7500  0AA3  2AA9               	goto	l10166
  7501  0AA4                     u6120:
  7502                           	line	28
  7503                           	
  7504  0AA4                     l14169:	
  7505  0AA4  09B1               	comf	(___awmod@dividend),f
  7506  0AA5  09B2               	comf	(___awmod@dividend+1),f
  7507  0AA6  0AB1               	incf	(___awmod@dividend),f
  7508  0AA7  1903               	skipnz
  7509  0AA8  0AB2               	incf	(___awmod@dividend+1),f
  7510                           	
  7511  0AA9                     l10166:	
  7512                           	line	29
  7513                           	
  7514  0AA9                     l14171:	
  7515  0AA9  0832               	movf	(___awmod@dividend+1),w
  7516  0AAA  01B0               	clrf	(?___awmod+1)
  7517  0AAB  07B0               	addwf	(?___awmod+1)
  7518  0AAC  0831               	movf	(___awmod@dividend),w
  7519  0AAD  01AF               	clrf	(?___awmod)
  7520  0AAE  07AF               	addwf	(?___awmod)
  7521                           
  7522                           	
  7523  0AAF                     l14173:	
  7524                           	line	30
  7525                           	
  7526  0AAF                     l10167:	
  7527  0AAF  0008               	return
  7528                           	opt stack 0
  7529                           GLOBAL	__end_of___awmod
  7530  0AB0                     	__end_of___awmod:
  7531 ;; =============== function ___awmod ends ============
  7532                           
  7533                           	signat	___awmod,8314
  7534                           	global	___awdiv
  7535                           psect	text1661,local,class=CODE,delta=2
  7536                           global __ptext1661
  7537  0B20                     __ptext1661:
  7538                           
  7539 ;; *************** function ___awdiv *****************
  7540 ;; Defined at:
  7541 ;;		line 5 in file "C:\Program Files (x86)\HI-TECH Software\PICC\9.71a\sources\awdiv.c"
  7542 ;; Parameters:    Size  Location     Type
  7543 ;;  divisor         2   15[BANK0 ] int 
  7544 ;;  dividend        2   17[BANK0 ] int 
  7545 ;; Auto vars:     Size  Location     Type
  7546 ;;  quotient        2   22[BANK0 ] int 
  7547 ;;  sign            1   21[BANK0 ] unsigned char 
  7548 ;;  counter         1   20[BANK0 ] unsigned char 
  7549 ;; Return value:  Size  Location     Type
  7550 ;;                  2   15[BANK0 ] int 
  7551 ;; Registers used:
  7552 ;;		wreg, status,2, status,0
  7553 ;; Tracked objects:
  7554 ;;		On entry : 0/0
  7555 ;;		On exit  : 0/0
  7556 ;;		Unchanged: 0/0
  7557 ;; Data sizes:     COMMON   BANK0   BANK1   BANK3   BANK2
  7558 ;;      Params:         0       4       0       0       0
  7559 ;;      Locals:         0       4       0       0       0
  7560 ;;      Temps:          0       1       0       0       0
  7561 ;;      Totals:         0       9       0       0       0
  7562 ;;Total ram usage:        9 bytes
  7563 ;; Hardware stack levels used:    1
  7564 ;; Hardware stack levels required when called:    6
  7565 ;; This function calls:
  7566 ;;		Nothing
  7567 ;; This function is called by:
  7568 ;;		_lcd_writeThisDigit
  7569 ;; This function uses a non-reentrant model
  7570 ;;
  7571                           psect	text1661
  7572                           	file	"C:\Program Files (x86)\HI-TECH Software\PICC\9.71a\sources\awdiv.c"
  7573                           	line	5
  7574                           	global	__size_of___awdiv
  7575  0072                     	__size_of___awdiv	equ	__end_of___awdiv-___awdiv
  7576                           	
  7577  0B20                     ___awdiv:	
  7578                           	opt	stack 2
  7579                           ; Regs used in ___awdiv: [wreg+status,2+status,0]
  7580                           	line	9
  7581                           	
  7582  0B20                     l14101:	
  7583  0B20  1003               	clrc
  7584  0B21  3000               	movlw	0
  7585  0B22  1803               	btfsc	status,0
  7586  0B23  3001               	movlw	1
  7587  0B24  1283               	bcf	status, 5	;RP0=0, select bank0
  7588  0B25  1303               	bcf	status, 6	;RP1=0, select bank0
  7589  0B26  00B5               	movwf	(___awdiv@sign)
  7590                           	line	10
  7591                           	
  7592  0B27                     l14103:	
  7593  0B27  1FB0               	btfss	(___awdiv@divisor+1),7
  7594  0B28  2B2A               	goto	u5941
  7595  0B29  2B2B               	goto	u5940
  7596  0B2A                     u5941:
  7597  0B2A  2B33               	goto	l10089
  7598  0B2B                     u5940:
  7599                           	line	11
  7600                           	
  7601  0B2B                     l14105:	
  7602  0B2B  09AF               	comf	(___awdiv@divisor),f
  7603  0B2C  09B0               	comf	(___awdiv@divisor+1),f
  7604  0B2D  0AAF               	incf	(___awdiv@divisor),f
  7605  0B2E  1903               	skipnz
  7606  0B2F  0AB0               	incf	(___awdiv@divisor+1),f
  7607                           	line	12
  7608  0B30  01B5               	clrf	(___awdiv@sign)
  7609  0B31  1403               	bsf	status,0
  7610  0B32  0DB5               	rlf	(___awdiv@sign),f
  7611                           	line	13
  7612                           	
  7613  0B33                     l10089:	
  7614                           	line	14
  7615                           	
  7616  0B33                     l14107:	
  7617  0B33  1FB2               	btfss	(___awdiv@dividend+1),7
  7618  0B34  2B36               	goto	u5951
  7619  0B35  2B37               	goto	u5950
  7620  0B36                     u5951:
  7621  0B36  2B40               	goto	l10090
  7622  0B37                     u5950:
  7623                           	line	15
  7624                           	
  7625  0B37                     l14109:	
  7626  0B37  09B1               	comf	(___awdiv@dividend),f
  7627  0B38  09B2               	comf	(___awdiv@dividend+1),f
  7628  0B39  0AB1               	incf	(___awdiv@dividend),f
  7629  0B3A  1903               	skipnz
  7630  0B3B  0AB2               	incf	(___awdiv@dividend+1),f
  7631                           	line	16
  7632                           	
  7633  0B3C                     l14111:	
  7634  0B3C  3001               	movlw	(01h)
  7635  0B3D  00B3               	movwf	(??___awdiv+0)+0
  7636  0B3E  0833               	movf	(??___awdiv+0)+0,w
  7637  0B3F  06B5               	xorwf	(___awdiv@sign),f
  7638                           	line	17
  7639                           	
  7640  0B40                     l10090:	
  7641                           	line	18
  7642  0B40  3000               	movlw	low(0)
  7643  0B41  00B6               	movwf	(___awdiv@quotient)
  7644  0B42  3000               	movlw	high(0)
  7645  0B43  00B7               	movwf	((___awdiv@quotient))+1
  7646                           	line	19
  7647  0B44  0830               	movf	(___awdiv@divisor+1),w
  7648  0B45  042F               	iorwf	(___awdiv@divisor),w
  7649  0B46  1903               	skipnz
  7650  0B47  2B49               	goto	u5961
  7651  0B48  2B4A               	goto	u5960
  7652  0B49                     u5961:
  7653  0B49  2B82               	goto	l10091
  7654  0B4A                     u5960:
  7655                           	line	20
  7656                           	
  7657  0B4A                     l14113:	
  7658  0B4A  01B4               	clrf	(___awdiv@counter)
  7659  0B4B  1403               	bsf	status,0
  7660  0B4C  0DB4               	rlf	(___awdiv@counter),f
  7661                           	line	21
  7662  0B4D  2B59               	goto	l10092
  7663                           	
  7664  0B4E                     l10093:	
  7665                           	line	22
  7666                           	
  7667  0B4E                     l14115:	
  7668  0B4E  3001               	movlw	01h
  7669                           	
  7670  0B4F                     u5975:
  7671  0B4F  1003               	clrc
  7672  0B50  0DAF               	rlf	(___awdiv@divisor),f
  7673  0B51  0DB0               	rlf	(___awdiv@divisor+1),f
  7674  0B52  3EFF               	addlw	-1
  7675  0B53  1D03               	skipz
  7676  0B54  2B4F               	goto	u5975
  7677                           	line	23
  7678                           	
  7679  0B55                     l14117:	
  7680  0B55  3001               	movlw	(01h)
  7681  0B56  00B3               	movwf	(??___awdiv+0)+0
  7682  0B57  0833               	movf	(??___awdiv+0)+0,w
  7683  0B58  07B4               	addwf	(___awdiv@counter),f
  7684                           	line	24
  7685                           	
  7686  0B59                     l10092:	
  7687                           	line	21
  7688                           	
  7689  0B59                     l14119:	
  7690  0B59  1FB0               	btfss	(___awdiv@divisor+1),(15)&7
  7691  0B5A  2B5C               	goto	u5981
  7692  0B5B  2B5D               	goto	u5980
  7693  0B5C                     u5981:
  7694  0B5C  2B4E               	goto	l10093
  7695  0B5D                     u5980:
  7696                           	
  7697  0B5D                     l10094:	
  7698                           	line	25
  7699                           	
  7700  0B5D                     l10095:	
  7701                           	line	26
  7702                           	
  7703  0B5D                     l14121:	
  7704  0B5D  3001               	movlw	01h
  7705                           	
  7706  0B5E                     u5995:
  7707  0B5E  1003               	clrc
  7708  0B5F  0DB6               	rlf	(___awdiv@quotient),f
  7709  0B60  0DB7               	rlf	(___awdiv@quotient+1),f
  7710  0B61  3EFF               	addlw	-1
  7711  0B62  1D03               	skipz
  7712  0B63  2B5E               	goto	u5995
  7713                           	line	27
  7714  0B64  0830               	movf	(___awdiv@divisor+1),w
  7715  0B65  0232               	subwf	(___awdiv@dividend+1),w
  7716  0B66  1D03               	skipz
  7717  0B67  2B6A               	goto	u6005
  7718  0B68  082F               	movf	(___awdiv@divisor),w
  7719  0B69  0231               	subwf	(___awdiv@dividend),w
  7720  0B6A                     u6005:
  7721  0B6A  1C03               	skipc
  7722  0B6B  2B6D               	goto	u6001
  7723  0B6C  2B6E               	goto	u6000
  7724  0B6D                     u6001:
  7725  0B6D  2B75               	goto	l10096
  7726  0B6E                     u6000:
  7727                           	line	28
  7728                           	
  7729  0B6E                     l14123:	
  7730  0B6E  082F               	movf	(___awdiv@divisor),w
  7731  0B6F  02B1               	subwf	(___awdiv@dividend),f
  7732  0B70  0830               	movf	(___awdiv@divisor+1),w
  7733  0B71  1C03               	skipc
  7734  0B72  03B2               	decf	(___awdiv@dividend+1),f
  7735  0B73  02B2               	subwf	(___awdiv@dividend+1),f
  7736                           	line	29
  7737                           	
  7738  0B74                     l14125:	
  7739  0B74  1436               	bsf	(___awdiv@quotient)+(0/8),(0)&7
  7740                           	line	30
  7741                           	
  7742  0B75                     l10096:	
  7743                           	line	31
  7744                           	
  7745  0B75                     l14127:	
  7746  0B75  3001               	movlw	01h
  7747                           	
  7748  0B76                     u6015:
  7749  0B76  1003               	clrc
  7750  0B77  0CB0               	rrf	(___awdiv@divisor+1),f
  7751  0B78  0CAF               	rrf	(___awdiv@divisor),f
  7752  0B79  3EFF               	addlw	-1
  7753  0B7A  1D03               	skipz
  7754  0B7B  2B76               	goto	u6015
  7755                           	line	32
  7756                           	
  7757  0B7C                     l14129:	
  7758  0B7C  3001               	movlw	low(01h)
  7759  0B7D  02B4               	subwf	(___awdiv@counter),f
  7760  0B7E  1D03               	btfss	status,2
  7761  0B7F  2B81               	goto	u6021
  7762  0B80  2B82               	goto	u6020
  7763  0B81                     u6021:
  7764  0B81  2B5D               	goto	l10095
  7765  0B82                     u6020:
  7766                           	
  7767  0B82                     l10097:	
  7768                           	line	33
  7769                           	
  7770  0B82                     l10091:	
  7771                           	line	34
  7772                           	
  7773  0B82                     l14131:	
  7774  0B82  0835               	movf	(___awdiv@sign),w
  7775  0B83  1D03               	skipz
  7776  0B84  2B86               	goto	u6030
  7777  0B85  2B8B               	goto	l10098
  7778  0B86                     u6030:
  7779                           	line	35
  7780                           	
  7781  0B86                     l14133:	
  7782  0B86  09B6               	comf	(___awdiv@quotient),f
  7783  0B87  09B7               	comf	(___awdiv@quotient+1),f
  7784  0B88  0AB6               	incf	(___awdiv@quotient),f
  7785  0B89  1903               	skipnz
  7786  0B8A  0AB7               	incf	(___awdiv@quotient+1),f
  7787                           	
  7788  0B8B                     l10098:	
  7789                           	line	36
  7790                           	
  7791  0B8B                     l14135:	
  7792  0B8B  0837               	movf	(___awdiv@quotient+1),w
  7793  0B8C  01B0               	clrf	(?___awdiv+1)
  7794  0B8D  07B0               	addwf	(?___awdiv+1)
  7795  0B8E  0836               	movf	(___awdiv@quotient),w
  7796  0B8F  01AF               	clrf	(?___awdiv)
  7797  0B90  07AF               	addwf	(?___awdiv)
  7798                           
  7799                           	
  7800  0B91                     l14137:	
  7801                           	line	37
  7802                           	
  7803  0B91                     l10099:	
  7804  0B91  0008               	return
  7805                           	opt stack 0
  7806                           GLOBAL	__end_of___awdiv
  7807  0B92                     	__end_of___awdiv:
  7808 ;; =============== function ___awdiv ends ============
  7809                           
  7810                           	signat	___awdiv,8314
  7811                           	global	_initialisePortB
  7812                           psect	text1662,local,class=CODE,delta=2
  7813                           global __ptext1662
  7814  155C                     __ptext1662:
  7815                           
  7816 ;; *************** function _initialisePortB *****************
  7817 ;; Defined at:
  7818 ;;		line 4 in file "PORTB_Config.c"
  7819 ;; Parameters:    Size  Location     Type
  7820 ;;		None
  7821 ;; Auto vars:     Size  Location     Type
  7822 ;;		None
  7823 ;; Return value:  Size  Location     Type
  7824 ;;		None               void
  7825 ;; Registers used:
  7826 ;;		wreg
  7827 ;; Tracked objects:
  7828 ;;		On entry : 0/0
  7829 ;;		On exit  : 0/0
  7830 ;;		Unchanged: 0/0
  7831 ;; Data sizes:     COMMON   BANK0   BANK1   BANK3   BANK2
  7832 ;;      Params:         0       0       0       0       0
  7833 ;;      Locals:         0       0       0       0       0
  7834 ;;      Temps:          0       0       0       0       0
  7835 ;;      Totals:         0       0       0       0       0
  7836 ;;Total ram usage:        0 bytes
  7837 ;; Hardware stack levels used:    1
  7838 ;; Hardware stack levels required when called:    6
  7839 ;; This function calls:
  7840 ;;		Nothing
  7841 ;; This function is called by:
  7842 ;;		_peripheral_initialsation
  7843 ;; This function uses a non-reentrant model
  7844 ;;
  7845                           psect	text1662
  7846                           	file	"PORTB_Config.c"
  7847                           	line	4
  7848                           	global	__size_of_initialisePortB
  7849  0006                     	__size_of_initialisePortB	equ	__end_of_initialisePortB-_initialisePortB
  7850                           	
  7851  155C                     _initialisePortB:	
  7852                           	opt	stack 6
  7853                           ; Regs used in _initialisePortB: [wreg]
  7854                           	line	5
  7855                           	
  7856  155C                     l13019:	
  7857                           ;PORTB_Config.c: 5: TRISB = 0b11110001;
  7858  155C  30F1               	movlw	(0F1h)
  7859  155D  1683               	bsf	status, 5	;RP0=1, select bank1
  7860  155E  1303               	bcf	status, 6	;RP1=0, select bank1
  7861  155F  0086               	movwf	(134)^080h	;volatile
  7862                           	line	6
  7863                           	
  7864  1560                     l13021:	
  7865                           ;PORTB_Config.c: 6: RBPU = 1;
  7866  1560  1781               	bsf	(1039/8)^080h,(1039)&7
  7867                           	line	8
  7868                           	
  7869  1561                     l5430:	
  7870  1561  0008               	return
  7871                           	opt stack 0
  7872                           GLOBAL	__end_of_initialisePortB
  7873  1562                     	__end_of_initialisePortB:
  7874 ;; =============== function _initialisePortB ends ============
  7875                           
  7876                           	signat	_initialisePortB,88
  7877                           	global	_default_initialisations
  7878                           psect	text1663,local,class=CODE,delta=2
  7879                           global __ptext1663
  7880  15B0                     __ptext1663:
  7881                           
  7882 ;; *************** function _default_initialisations *****************
  7883 ;; Defined at:
  7884 ;;		line 81 in file "MainCode.c"
  7885 ;; Parameters:    Size  Location     Type
  7886 ;;		None
  7887 ;; Auto vars:     Size  Location     Type
  7888 ;;		None
  7889 ;; Return value:  Size  Location     Type
  7890 ;;		None               void
  7891 ;; Registers used:
  7892 ;;		wreg, status,2, status,0
  7893 ;; Tracked objects:
  7894 ;;		On entry : 0/0
  7895 ;;		On exit  : 0/0
  7896 ;;		Unchanged: 0/0
  7897 ;; Data sizes:     COMMON   BANK0   BANK1   BANK3   BANK2
  7898 ;;      Params:         0       0       0       0       0
  7899 ;;      Locals:         0       0       0       0       0
  7900 ;;      Temps:          0       0       0       0       0
  7901 ;;      Totals:         0       0       0       0       0
  7902 ;;Total ram usage:        0 bytes
  7903 ;; Hardware stack levels used:    1
  7904 ;; Hardware stack levels required when called:    6
  7905 ;; This function calls:
  7906 ;;		Nothing
  7907 ;; This function is called by:
  7908 ;;		_main
  7909 ;; This function uses a non-reentrant model
  7910 ;;
  7911                           psect	text1663
  7912                           	file	"MainCode.c"
  7913                           	line	81
  7914                           	global	__size_of_default_initialisations
  7915  0014                     	__size_of_default_initialisations	equ	__end_of_default_initialisations-_default_initial
                                 isations
  7916                           	
  7917  15B0                     _default_initialisations:	
  7918                           	opt	stack 7
  7919                           ; Regs used in _default_initialisations: [wreg+status,2+status,0]
  7920                           	line	83
  7921                           	
  7922  15B0                     l13007:	
  7923                           ;MainCode.c: 83: ANSEL = 0x01;
  7924  15B0  3001               	movlw	(01h)
  7925  15B1  1683               	bsf	status, 5	;RP0=1, select bank3
  7926  15B2  1703               	bsf	status, 6	;RP1=1, select bank3
  7927  15B3  0088               	movwf	(392)^0180h	;volatile
  7928                           	line	84
  7929                           	
  7930  15B4                     l13009:	
  7931                           ;MainCode.c: 84: ANSELH = 0x00;
  7932  15B4  0189               	clrf	(393)^0180h	;volatile
  7933                           	line	86
  7934                           	
  7935  15B5                     l13011:	
  7936                           ;MainCode.c: 86: ADCON1 = 0x80;
  7937  15B5  3080               	movlw	(080h)
  7938  15B6  1683               	bsf	status, 5	;RP0=1, select bank1
  7939  15B7  1303               	bcf	status, 6	;RP1=0, select bank1
  7940  15B8  009F               	movwf	(159)^080h	;volatile
  7941                           	line	88
  7942                           ;MainCode.c: 88: TRISE = 0x00;
  7943  15B9  0189               	clrf	(137)^080h	;volatile
  7944                           	line	89
  7945                           ;MainCode.c: 89: TRISD = 0x00;
  7946  15BA  0188               	clrf	(136)^080h	;volatile
  7947                           	line	90
  7948                           ;MainCode.c: 90: TRISC = 0x00;
  7949  15BB  0187               	clrf	(135)^080h	;volatile
  7950                           	line	91
  7951                           	
  7952  15BC                     l13013:	
  7953                           ;MainCode.c: 91: TRISB = 0xF1;
  7954  15BC  30F1               	movlw	(0F1h)
  7955  15BD  0086               	movwf	(134)^080h	;volatile
  7956                           	line	92
  7957                           	
  7958  15BE                     l13015:	
  7959                           ;MainCode.c: 92: TRISA = 0x01;
  7960  15BE  3001               	movlw	(01h)
  7961  15BF  0085               	movwf	(133)^080h	;volatile
  7962                           	line	94
  7963                           	
  7964  15C0                     l13017:	
  7965                           ;MainCode.c: 94: modeOfWorking = 1;
  7966  15C0  01FD               	clrf	(_modeOfWorking)
  7967  15C1  1403               	bsf	status,0
  7968  15C2  0DFD               	rlf	(_modeOfWorking),f
  7969                           	line	95
  7970                           	
  7971  15C3                     l4523:	
  7972  15C3  0008               	return
  7973                           	opt stack 0
  7974                           GLOBAL	__end_of_default_initialisations
  7975  15C4                     	__end_of_default_initialisations:
  7976 ;; =============== function _default_initialisations ends ============
  7977                           
  7978                           	signat	_default_initialisations,88
  7979                           	global	_start_timer0
  7980                           psect	text1664,local,class=CODE,delta=2
  7981                           global __ptext1664
  7982  1557                     __ptext1664:
  7983                           
  7984 ;; *************** function _start_timer0 *****************
  7985 ;; Defined at:
  7986 ;;		line 32 in file "timer0.c"
  7987 ;; Parameters:    Size  Location     Type
  7988 ;;		None
  7989 ;; Auto vars:     Size  Location     Type
  7990 ;;		None
  7991 ;; Return value:  Size  Location     Type
  7992 ;;		None               void
  7993 ;; Registers used:
  7994 ;;		wreg
  7995 ;; Tracked objects:
  7996 ;;		On entry : 0/0
  7997 ;;		On exit  : 0/0
  7998 ;;		Unchanged: 0/0
  7999 ;; Data sizes:     COMMON   BANK0   BANK1   BANK3   BANK2
  8000 ;;      Params:         0       0       0       0       0
  8001 ;;      Locals:         0       0       0       0       0
  8002 ;;      Temps:          0       0       0       0       0
  8003 ;;      Totals:         0       0       0       0       0
  8004 ;;Total ram usage:        0 bytes
  8005 ;; Hardware stack levels used:    1
  8006 ;; Hardware stack levels required when called:    6
  8007 ;; This function calls:
  8008 ;;		Nothing
  8009 ;; This function is called by:
  8010 ;;		_main
  8011 ;; This function uses a non-reentrant model
  8012 ;;
  8013                           psect	text1664
  8014                           	file	"timer0.c"
  8015                           	line	32
  8016                           	global	__size_of_start_timer0
  8017  0005                     	__size_of_start_timer0	equ	__end_of_start_timer0-_start_timer0
  8018                           	
  8019  1557                     _start_timer0:	
  8020                           	opt	stack 7
  8021                           ; Regs used in _start_timer0: [wreg]
  8022                           	line	33
  8023                           	
  8024  1557                     l13001:	
  8025                           ;timer0.c: 33: TMR0 = 1;
  8026  1557  3001               	movlw	(01h)
  8027  1558  1283               	bcf	status, 5	;RP0=0, select bank0
  8028  1559  1303               	bcf	status, 6	;RP1=0, select bank0
  8029  155A  0081               	movwf	(1)	;volatile
  8030                           	line	34
  8031                           	
  8032  155B                     l9060:	
  8033  155B  0008               	return
  8034                           	opt stack 0
  8035                           GLOBAL	__end_of_start_timer0
  8036  155C                     	__end_of_start_timer0:
  8037 ;; =============== function _start_timer0 ends ============
  8038                           
  8039                           	signat	_start_timer0,88
  8040                           	global	_enableInterrupt_RB0
  8041                           psect	text1665,local,class=CODE,delta=2
  8042                           global __ptext1665
  8043  1552                     __ptext1665:
  8044                           
  8045 ;; *************** function _enableInterrupt_RB0 *****************
  8046 ;; Defined at:
  8047 ;;		line 11 in file "PORTB_Config.c"
  8048 ;; Parameters:    Size  Location     Type
  8049 ;;		None
  8050 ;; Auto vars:     Size  Location     Type
  8051 ;;		None
  8052 ;; Return value:  Size  Location     Type
  8053 ;;		None               void
  8054 ;; Registers used:
  8055 ;;		None
  8056 ;; Tracked objects:
  8057 ;;		On entry : 0/0
  8058 ;;		On exit  : 0/0
  8059 ;;		Unchanged: 0/0
  8060 ;; Data sizes:     COMMON   BANK0   BANK1   BANK3   BANK2
  8061 ;;      Params:         0       0       0       0       0
  8062 ;;      Locals:         0       0       0       0       0
  8063 ;;      Temps:          0       0       0       0       0
  8064 ;;      Totals:         0       0       0       0       0
  8065 ;;Total ram usage:        0 bytes
  8066 ;; Hardware stack levels used:    1
  8067 ;; Hardware stack levels required when called:    6
  8068 ;; This function calls:
  8069 ;;		Nothing
  8070 ;; This function is called by:
  8071 ;;		_peripheral_initialsation
  8072 ;; This function uses a non-reentrant model
  8073 ;;
  8074                           psect	text1665
  8075                           	file	"PORTB_Config.c"
  8076                           	line	11
  8077                           	global	__size_of_enableInterrupt_RB0
  8078  0005                     	__size_of_enableInterrupt_RB0	equ	__end_of_enableInterrupt_RB0-_enableInterrupt_RB0
  8079                           	
  8080  1552                     _enableInterrupt_RB0:	
  8081                           	opt	stack 6
  8082                           ; Regs used in _enableInterrupt_RB0: []
  8083                           	line	12
  8084                           	
  8085  1552                     l12999:	
  8086                           ;PORTB_Config.c: 12: INTEDG = 0;
  8087  1552  1683               	bsf	status, 5	;RP0=1, select bank1
  8088  1553  1303               	bcf	status, 6	;RP1=0, select bank1
  8089  1554  1301               	bcf	(1038/8)^080h,(1038)&7
  8090                           	line	13
  8091                           ;PORTB_Config.c: 13: INTE = 1;
  8092  1555  160B               	bsf	(92/8),(92)&7
  8093                           	line	14
  8094                           	
  8095  1556                     l5433:	
  8096  1556  0008               	return
  8097                           	opt stack 0
  8098                           GLOBAL	__end_of_enableInterrupt_RB0
  8099  1557                     	__end_of_enableInterrupt_RB0:
  8100 ;; =============== function _enableInterrupt_RB0 ends ============
  8101                           
  8102                           	signat	_enableInterrupt_RB0,88
  8103                           	global	_GlobalInterrupt_ENABLE
  8104                           psect	text1666,local,class=CODE,delta=2
  8105                           global __ptext1666
  8106  0800                     __ptext1666:
  8107                           
  8108 ;; *************** function _GlobalInterrupt_ENABLE *****************
  8109 ;; Defined at:
  8110 ;;		line 14 in file "CommonDeclarations.c"
  8111 ;; Parameters:    Size  Location     Type
  8112 ;;		None
  8113 ;; Auto vars:     Size  Location     Type
  8114 ;;		None
  8115 ;; Return value:  Size  Location     Type
  8116 ;;		None               void
  8117 ;; Registers used:
  8118 ;;		None
  8119 ;; Tracked objects:
  8120 ;;		On entry : 0/0
  8121 ;;		On exit  : 0/0
  8122 ;;		Unchanged: 0/0
  8123 ;; Data sizes:     COMMON   BANK0   BANK1   BANK3   BANK2
  8124 ;;      Params:         0       0       0       0       0
  8125 ;;      Locals:         0       0       0       0       0
  8126 ;;      Temps:          0       0       0       0       0
  8127 ;;      Totals:         0       0       0       0       0
  8128 ;;Total ram usage:        0 bytes
  8129 ;; Hardware stack levels used:    1
  8130 ;; Hardware stack levels required when called:    6
  8131 ;; This function calls:
  8132 ;;		Nothing
  8133 ;; This function is called by:
  8134 ;;		_peripheral_initialsation
  8135 ;;		_initialise_timer0
  8136 ;; This function uses a non-reentrant model
  8137 ;;
  8138                           psect	text1666
  8139                           	file	"CommonDeclarations.c"
  8140                           	global	__size_of_GlobalInterrupt_ENABLE
  8141  0002                     	__size_of_GlobalInterrupt_ENABLE	equ	__end_of_GlobalInterrupt_ENABLE-_GlobalInterrupt_E
                                 NABLE
  8142                           	
  8143  0800                     _GlobalInterrupt_ENABLE:	
  8144                           	opt	stack 5
  8145                           ; Regs used in _GlobalInterrupt_ENABLE: []
  8146                           	line	15
  8147                           	
  8148  0800                     l12821:	
  8149                           ;CommonDeclarations.c: 15: GIE = 1;
  8150  0800  178B               	bsf	(95/8),(95)&7
  8151                           	line	16
  8152                           	
  8153  0801                     l1782:	
  8154  0801  0008               	return
  8155                           	opt stack 0
  8156                           GLOBAL	__end_of_GlobalInterrupt_ENABLE
  8157  0802                     	__end_of_GlobalInterrupt_ENABLE:
  8158 ;; =============== function _GlobalInterrupt_ENABLE ends ============
  8159                           
  8160                           	signat	_GlobalInterrupt_ENABLE,88
  8161                           	global	_adc_initialise
  8162                           psect	text1667,local,class=CODE,delta=2
  8163                           global __ptext1667
  8164  1570                     __ptext1667:
  8165                           
  8166 ;; *************** function _adc_initialise *****************
  8167 ;; Defined at:
  8168 ;;		line 7 in file "ADC.c"
  8169 ;; Parameters:    Size  Location     Type
  8170 ;;		None
  8171 ;; Auto vars:     Size  Location     Type
  8172 ;;		None
  8173 ;; Return value:  Size  Location     Type
  8174 ;;		None               void
  8175 ;; Registers used:
  8176 ;;		wreg, status,2
  8177 ;; Tracked objects:
  8178 ;;		On entry : 0/0
  8179 ;;		On exit  : 0/0
  8180 ;;		Unchanged: 0/0
  8181 ;; Data sizes:     COMMON   BANK0   BANK1   BANK3   BANK2
  8182 ;;      Params:         0       0       0       0       0
  8183 ;;      Locals:         0       0       0       0       0
  8184 ;;      Temps:          0       0       0       0       0
  8185 ;;      Totals:         0       0       0       0       0
  8186 ;;Total ram usage:        0 bytes
  8187 ;; Hardware stack levels used:    1
  8188 ;; Hardware stack levels required when called:    6
  8189 ;; This function calls:
  8190 ;;		Nothing
  8191 ;; This function is called by:
  8192 ;;		_peripheral_initialsation
  8193 ;; This function uses a non-reentrant model
  8194 ;;
  8195                           psect	text1667
  8196                           	file	"ADC.c"
  8197                           	line	7
  8198                           	global	__size_of_adc_initialise
  8199  0008                     	__size_of_adc_initialise	equ	__end_of_adc_initialise-_adc_initialise
  8200                           	
  8201  1570                     _adc_initialise:	
  8202                           	opt	stack 6
  8203                           ; Regs used in _adc_initialise: [wreg+status,2]
  8204                           	line	8
  8205                           	
  8206  1570                     l12777:	
  8207                           ;ADC.c: 8: ADCON0 = 0x00;
  8208  1570  1283               	bcf	status, 5	;RP0=0, select bank0
  8209  1571  1303               	bcf	status, 6	;RP1=0, select bank0
  8210  1572  019F               	clrf	(31)	;volatile
  8211                           	line	9
  8212                           	
  8213  1573                     l12779:	
  8214                           ;ADC.c: 9: ADCON1 = 0x80;
  8215  1573  3080               	movlw	(080h)
  8216  1574  1683               	bsf	status, 5	;RP0=1, select bank1
  8217  1575  1303               	bcf	status, 6	;RP1=0, select bank1
  8218  1576  009F               	movwf	(159)^080h	;volatile
  8219                           	line	11
  8220                           	
  8221  1577                     l875:	
  8222  1577  0008               	return
  8223                           	opt stack 0
  8224                           GLOBAL	__end_of_adc_initialise
  8225  1578                     	__end_of_adc_initialise:
  8226 ;; =============== function _adc_initialise ends ============
  8227                           
  8228                           	signat	_adc_initialise,88
  8229                           	global	_ISR
  8230                           psect	text1668,local,class=CODE,delta=2
  8231                           global __ptext1668
  8232  0394                     __ptext1668:
  8233                           
  8234 ;; *************** function _ISR *****************
  8235 ;; Defined at:
  8236 ;;		line 31 in file "CommonDeclarations.c"
  8237 ;; Parameters:    Size  Location     Type
  8238 ;;		None
  8239 ;; Auto vars:     Size  Location     Type
  8240 ;;		None
  8241 ;; Return value:  Size  Location     Type
  8242 ;;		None               void
  8243 ;; Registers used:
  8244 ;;		wreg, fsr0l, fsr0h, status,2, status,0, btemp+0, btemp+1, pclath, cstack
  8245 ;; Tracked objects:
  8246 ;;		On entry : 0/0
  8247 ;;		On exit  : 0/0
  8248 ;;		Unchanged: 0/0
  8249 ;; Data sizes:     COMMON   BANK0   BANK1   BANK3   BANK2
  8250 ;;      Params:         0       0       0       0       0
  8251 ;;      Locals:         0       0       0       0       0
  8252 ;;      Temps:          0       7       0       0       0
  8253 ;;      Totals:         0       7       0       0       0
  8254 ;;Total ram usage:        7 bytes
  8255 ;; Hardware stack levels used:    1
  8256 ;; Hardware stack levels required when called:    5
  8257 ;; This function calls:
  8258 ;;		_adc_getValue
  8259 ;;		_print_ADCValue
  8260 ;;		_disableInterrupt_RB0
  8261 ;;		_stop_timer0
  8262 ;;		i1_lcd_clear
  8263 ;;		i1_lcd_writeThisStringAt
  8264 ;;		_InitialiseSettingMode
  8265 ;;		_updateConfiguration
  8266 ;;		i1_enableInterrupt_RB0
  8267 ;;		i1_start_timer0
  8268 ;; This function is called by:
  8269 ;;		Interrupt level 1
  8270 ;; This function uses a non-reentrant model
  8271 ;;
  8272                           psect	text1668
  8273                           	file	"CommonDeclarations.c"
  8274                           	line	31
  8275                           	global	__size_of_ISR
  8276  0148                     	__size_of_ISR	equ	__end_of_ISR-_ISR
  8277                           	
  8278  0394                     _ISR:	
  8279                           	opt	stack 0
  8280                           ; Regs used in _ISR: [wreg-fsr0h+status,2-btemp+1+pclath+cstack]
  8281                           psect	intentry,class=CODE,delta=2
  8282                           global __pintentry
  8283  0004                     __pintentry:
  8284                           global interrupt_function
  8285  0004                     interrupt_function:
  8286                           	global saved_w
  8287  007E                     	saved_w	set	btemp+0
  8288  0004  00FE               	movwf	saved_w
  8289  0005  0803               	movf	status,w
  8290  0006  1283               	bcf	status, 5	;RP0=0, select bank0
  8291  0007  1303               	bcf	status, 6	;RP1=0, select bank0
  8292  0008  00AB               	movwf	(??_ISR+3)
  8293  0009  0804               	movf	fsr0,w
  8294  000A  00AC               	movwf	(??_ISR+4)
  8295  000B  080A               	movf	pclath,w
  8296  000C  00AD               	movwf	(??_ISR+5)
  8297  000D  087F               	movf	btemp+1,w
  8298  000E  00AE               	movwf	(??_ISR+6)
  8299  000F  120A  118A  2B94   	ljmp	_ISR
  8300                           psect	text1668
  8301                           	line	32
  8302                           	
  8303  0394                     i1l14011:	
  8304                           ;CommonDeclarations.c: 32: if (T0IE && T0IF) {
  8305  0394  1E8B               	btfss	(93/8),(93)&7
  8306  0395  2B97               	goto	u582_21
  8307  0396  2B98               	goto	u582_20
  8308  0397                     u582_21:
  8309  0397  2BE8               	goto	i1l1794
  8310  0398                     u582_20:
  8311                           	
  8312  0398                     i1l14013:	
  8313  0398  1D0B               	btfss	(90/8),(90)&7
  8314  0399  2B9B               	goto	u583_21
  8315  039A  2B9C               	goto	u583_20
  8316  039B                     u583_21:
  8317  039B  2BE8               	goto	i1l1794
  8318  039C                     u583_20:
  8319                           	line	33
  8320                           	
  8321  039C                     i1l14015:	
  8322                           ;CommonDeclarations.c: 33: timer0_count++;
  8323  039C  3001               	movlw	(01h)
  8324  039D  00A8               	movwf	(??_ISR+0)+0
  8325  039E  0828               	movf	(??_ISR+0)+0,w
  8326  039F  07CE               	addwf	(_timer0_count),f
  8327                           	line	34
  8328                           	
  8329  03A0                     i1l14017:	
  8330                           ;CommonDeclarations.c: 34: if (timer0_count == 90) {
  8331  03A0  084E               	movf	(_timer0_count),w
  8332  03A1  3A5A               	xorlw	05Ah
  8333  03A2  1D03               	skipz
  8334  03A3  2BA5               	goto	u584_21
  8335  03A4  2BA6               	goto	u584_20
  8336  03A5                     u584_21:
  8337  03A5  2BB3               	goto	i1l1795
  8338  03A6                     u584_20:
  8339                           	line	35
  8340                           	
  8341  03A6                     i1l14019:	
  8342                           ;CommonDeclarations.c: 35: flag_T0_OneSecond = 1;
  8343  03A6  01C8               	clrf	(_flag_T0_OneSecond)
  8344  03A7  1403               	bsf	status,0
  8345  03A8  0DC8               	rlf	(_flag_T0_OneSecond),f
  8346                           	line	36
  8347                           	
  8348  03A9                     i1l14021:	
  8349                           ;CommonDeclarations.c: 36: timer0_count = 0;
  8350  03A9  1003               	clrc
  8351  03AA  3000               	movlw	0
  8352  03AB  1803               	btfsc	status,0
  8353  03AC  3001               	movlw	1
  8354  03AD  00CE               	movwf	(_timer0_count)
  8355                           	line	37
  8356                           	
  8357  03AE                     i1l14023:	
  8358                           ;CommonDeclarations.c: 37: timer0_count10++;
  8359  03AE  3001               	movlw	(01h)
  8360  03AF  00A8               	movwf	(??_ISR+0)+0
  8361  03B0  0828               	movf	(??_ISR+0)+0,w
  8362  03B1  07CF               	addwf	(_timer0_count10),f
  8363                           	line	38
  8364                           ;CommonDeclarations.c: 38: } else {
  8365  03B2  2BB8               	goto	i1l1796
  8366                           	
  8367  03B3                     i1l1795:	
  8368                           	line	39
  8369                           	
  8370  03B3                     i1l14025:	
  8371                           ;CommonDeclarations.c: 39: flag_T0_OneSecond = 0;
  8372  03B3  1003               	clrc
  8373  03B4  3000               	movlw	0
  8374  03B5  1803               	btfsc	status,0
  8375  03B6  3001               	movlw	1
  8376  03B7  00C8               	movwf	(_flag_T0_OneSecond)
  8377                           	line	40
  8378                           	
  8379  03B8                     i1l1796:	
  8380                           	line	42
  8381                           	
  8382  03B8                     i1l14027:	
  8383                           ;CommonDeclarations.c: 40: }
  8384                           ;CommonDeclarations.c: 42: if (timer0_count10 >= 10) {
  8385  03B8  300A               	movlw	(0Ah)
  8386  03B9  024F               	subwf	(_timer0_count10),w
  8387  03BA  1C03               	skipc
  8388  03BB  2BBD               	goto	u585_21
  8389  03BC  2BBE               	goto	u585_20
  8390  03BD                     u585_21:
  8391  03BD  2BE2               	goto	i1l1797
  8392  03BE                     u585_20:
  8393                           	line	43
  8394                           	
  8395  03BE                     i1l14029:	
  8396                           ;CommonDeclarations.c: 43: flag_T0_TenSecond = 1;
  8397  03BE  01C9               	clrf	(_flag_T0_TenSecond)
  8398  03BF  1403               	bsf	status,0
  8399  03C0  0DC9               	rlf	(_flag_T0_TenSecond),f
  8400                           	line	44
  8401                           ;CommonDeclarations.c: 44: flag_TenSecond_main = 1;
  8402  03C1  01CA               	clrf	(_flag_TenSecond_main)
  8403  03C2  1403               	bsf	status,0
  8404  03C3  0DCA               	rlf	(_flag_TenSecond_main),f
  8405                           	line	46
  8406                           	
  8407  03C4                     i1l14031:	
  8408                           ;CommonDeclarations.c: 46: if(modeOfWorking == 1)
  8409  03C4  087D               	movf	(_modeOfWorking),w
  8410  03C5  3A01               	xorlw	01h
  8411  03C6  1D03               	skipz
  8412  03C7  2BC9               	goto	u586_21
  8413  03C8  2BCA               	goto	u586_20
  8414  03C9                     u586_21:
  8415  03C9  2BDA               	goto	i1l1798
  8416  03CA                     u586_20:
  8417                           	line	48
  8418                           	
  8419  03CA                     i1l14033:	
  8420                           ;CommonDeclarations.c: 47: {
  8421                           ;CommonDeclarations.c: 48: print_ADCValue(adc_getValue());
  8422  03CA  160A  118A  2773   	fcall	_adc_getValue
              120A  118A         
  8423  03CF  0871               	movf	(1+(?_adc_getValue)),w
  8424  03D0  01FB               	clrf	(?_print_ADCValue+1)
  8425  03D1  07FB               	addwf	(?_print_ADCValue+1)
  8426  03D2  0870               	movf	(0+(?_adc_getValue)),w
  8427  03D3  01FA               	clrf	(?_print_ADCValue)
  8428  03D4  07FA               	addwf	(?_print_ADCValue)
  8429                           
  8430  03D5  120A  158A  258A   	fcall	_print_ADCValue
              120A  118A         
  8431                           	line	49
  8432                           	
  8433  03DA                     i1l1798:	
  8434                           	line	50
  8435                           	
  8436  03DA                     i1l14035:	
  8437                           ;CommonDeclarations.c: 49: }
  8438                           ;CommonDeclarations.c: 50: timer0_count10 = 0;
  8439  03DA  1003               	clrc
  8440  03DB  3000               	movlw	0
  8441  03DC  1803               	btfsc	status,0
  8442  03DD  3001               	movlw	1
  8443  03DE  1283               	bcf	status, 5	;RP0=0, select bank0
  8444  03DF  1303               	bcf	status, 6	;RP1=0, select bank0
  8445  03E0  00CF               	movwf	(_timer0_count10)
  8446                           	line	51
  8447                           ;CommonDeclarations.c: 51: } else {
  8448  03E1  2BE7               	goto	i1l1799
  8449                           	
  8450  03E2                     i1l1797:	
  8451                           	line	52
  8452                           	
  8453  03E2                     i1l14037:	
  8454                           ;CommonDeclarations.c: 52: flag_T0_TenSecond = 0;
  8455  03E2  1003               	clrc
  8456  03E3  3000               	movlw	0
  8457  03E4  1803               	btfsc	status,0
  8458  03E5  3001               	movlw	1
  8459  03E6  00C9               	movwf	(_flag_T0_TenSecond)
  8460                           	line	54
  8461                           	
  8462  03E7                     i1l1799:	
  8463                           	line	55
  8464                           	
  8465  03E7                     i1l14039:	
  8466                           ;CommonDeclarations.c: 54: }
  8467                           ;CommonDeclarations.c: 55: T0IF = 0;
  8468  03E7  110B               	bcf	(90/8),(90)&7
  8469                           	line	57
  8470                           	
  8471  03E8                     i1l1794:	
  8472                           	line	66
  8473                           	
  8474  03E8                     i1l14041:	
  8475                           ;CommonDeclarations.c: 57: }
  8476                           ;CommonDeclarations.c: 66: if (INTE && INTF) {
  8477  03E8  1E0B               	btfss	(92/8),(92)&7
  8478  03E9  2BEB               	goto	u587_21
  8479  03EA  2BEC               	goto	u587_20
  8480  03EB                     u587_21:
  8481  03EB  2CCF               	goto	i1l1800
  8482  03EC                     u587_20:
  8483                           	
  8484  03EC                     i1l14043:	
  8485  03EC  1C8B               	btfss	(89/8),(89)&7
  8486  03ED  2BEF               	goto	u588_21
  8487  03EE  2BF0               	goto	u588_20
  8488  03EF                     u588_21:
  8489  03EF  2CCF               	goto	i1l1800
  8490  03F0                     u588_20:
  8491                           	line	68
  8492                           	
  8493  03F0                     i1l14045:	
  8494                           ;CommonDeclarations.c: 68: disableInterrupt_RB0();
  8495  03F0  160A  118A  2542   	fcall	_disableInterrupt_RB0
              120A  118A         
  8496                           	line	69
  8497                           ;CommonDeclarations.c: 69: stop_timer0();
  8498  03F5  160A  118A  2544   	fcall	_stop_timer0
              120A  118A         
  8499                           	line	70
  8500                           	
  8501  03FA                     i1l14047:	
  8502                           ;CommonDeclarations.c: 70: INTF = 0;
  8503  03FA  108B               	bcf	(89/8),(89)&7
  8504                           	line	71
  8505                           	
  8506  03FB                     i1l14049:	
  8507                           ;CommonDeclarations.c: 71: buttonPressedCount = 0;
  8508  03FB  3000               	movlw	low(0)
  8509  03FC  1283               	bcf	status, 5	;RP0=0, select bank0
  8510  03FD  1303               	bcf	status, 6	;RP1=0, select bank0
  8511  03FE  00BE               	movwf	(_buttonPressedCount)
  8512  03FF  3000               	movlw	high(0)
  8513  0400  00BF               	movwf	((_buttonPressedCount))+1
  8514                           	line	73
  8515                           ;CommonDeclarations.c: 73: while (!RB0 && (buttonPressedCount <= 40)) {
  8516  0401  2C14               	goto	i1l1801
  8517                           	
  8518  0402                     i1l1802:	
  8519                           	line	74
  8520                           	
  8521  0402                     i1l14051:	
  8522                           ;CommonDeclarations.c: 74: buttonPressedCount++;
  8523  0402  3001               	movlw	low(01h)
  8524  0403  07BE               	addwf	(_buttonPressedCount),f
  8525  0404  1803               	skipnc
  8526  0405  0ABF               	incf	(_buttonPressedCount+1),f
  8527  0406  3000               	movlw	high(01h)
  8528  0407  07BF               	addwf	(_buttonPressedCount+1),f
  8529                           	line	75
  8530                           ;CommonDeclarations.c: 75: _delay((unsigned long)((100)*(20000000/4000.0)));
  8531                           	opt asmopt_off
  8532  0408  3003               movlw  3
  8533  0409  00AA               movwf	((??_ISR+0)+0+2),f
  8534  040A  3088               movlw	136
  8535  040B  00A9               movwf	((??_ISR+0)+0+1),f
  8536  040C  3056               	movlw	86
  8537  040D  00A8               movwf	((??_ISR+0)+0),f
  8538  040E                     u719_27:
  8539  040E  0BA8               	decfsz	((??_ISR+0)+0),f
  8540  040F  2C0E               	goto	u719_27
  8541  0410  0BA9               	decfsz	((??_ISR+0)+0+1),f
  8542  0411  2C0E               	goto	u719_27
  8543  0412  0BAA               	decfsz	((??_ISR+0)+0+2),f
  8544  0413  2C0E               	goto	u719_27
  8545                           opt asmopt_on
  8546                           
  8547                           	line	77
  8548                           	
  8549  0414                     i1l1801:	
  8550                           	line	73
  8551                           	
  8552  0414                     i1l14053:	
  8553  0414  1283               	bcf	status, 5	;RP0=0, select bank0
  8554  0415  1303               	bcf	status, 6	;RP1=0, select bank0
  8555  0416  1806               	btfsc	(48/8),(48)&7
  8556  0417  2C19               	goto	u589_21
  8557  0418  2C1A               	goto	u589_20
  8558  0419                     u589_21:
  8559  0419  2C27               	goto	i1l1804
  8560  041A                     u589_20:
  8561                           	
  8562  041A                     i1l14055:	
  8563  041A  083F               	movf	(_buttonPressedCount+1),w
  8564  041B  3A80               	xorlw	80h
  8565  041C  00FE               	movwf	btemp+0
  8566  041D  3080               	movlw	(high(029h))^80h
  8567  041E  027E               	subwf	btemp+0,w
  8568  041F  1D03               	skipz
  8569  0420  2C23               	goto	u590_25
  8570  0421  3029               	movlw	low(029h)
  8571  0422  023E               	subwf	(_buttonPressedCount),w
  8572  0423                     u590_25:
  8573                           
  8574  0423  1C03               	skipc
  8575  0424  2C26               	goto	u590_21
  8576  0425  2C27               	goto	u590_20
  8577  0426                     u590_21:
  8578  0426  2C02               	goto	i1l1802
  8579  0427                     u590_20:
  8580                           	
  8581  0427                     i1l1804:	
  8582                           	
  8583  0427                     i1l1805:	
  8584                           	line	78
  8585                           	
  8586  0427                     i1l14057:	
  8587                           ;CommonDeclarations.c: 77: }
  8588                           ;CommonDeclarations.c: 78: if (buttonPressedCount >= 40) {
  8589  0427  1283               	bcf	status, 5	;RP0=0, select bank0
  8590  0428  1303               	bcf	status, 6	;RP1=0, select bank0
  8591  0429  083F               	movf	(_buttonPressedCount+1),w
  8592  042A  3A80               	xorlw	80h
  8593  042B  00FE               	movwf	btemp+0
  8594  042C  3080               	movlw	(high(028h))^80h
  8595  042D  027E               	subwf	btemp+0,w
  8596  042E  1D03               	skipz
  8597  042F  2C32               	goto	u591_25
  8598  0430  3028               	movlw	low(028h)
  8599  0431  023E               	subwf	(_buttonPressedCount),w
  8600  0432                     u591_25:
  8601                           
  8602  0432  1C03               	skipc
  8603  0433  2C35               	goto	u591_21
  8604  0434  2C36               	goto	u591_20
  8605  0435                     u591_21:
  8606  0435  2CC5               	goto	i1l1806
  8607  0436                     u591_20:
  8608                           	line	79
  8609                           	
  8610  0436                     i1l14059:	
  8611                           ;CommonDeclarations.c: 79: lcd_clear();
  8612  0436  160A  118A  2562   	fcall	i1_lcd_clear
              120A  118A         
  8613                           	line	82
  8614                           	
  8615  043B                     i1l14061:	
  8616                           ;CommonDeclarations.c: 82: if (isFirstTime_Settings == 0) {
  8617  043B  1283               	bcf	status, 5	;RP0=0, select bank0
  8618  043C  1303               	bcf	status, 6	;RP1=0, select bank0
  8619  043D  08CB               	movf	(_isFirstTime_Settings),f
  8620  043E  1D03               	skipz
  8621  043F  2C41               	goto	u592_21
  8622  0440  2C42               	goto	u592_20
  8623  0441                     u592_21:
  8624  0441  2C7E               	goto	i1l1807
  8625  0442                     u592_20:
  8626                           	line	83
  8627                           	
  8628  0442                     i1l14063:	
  8629                           ;CommonDeclarations.c: 83: lcd_writeThisStringAt(0, 0, "SETTINGS");
  8630  0442  1003               	clrc
  8631  0443  3000               	movlw	0
  8632  0444  1803               	btfsc	status,0
  8633  0445  3001               	movlw	1
  8634  0446  00F5               	movwf	(?i1_lcd_writeThisStringAt)
  8635  0447  30A0               	movlw	low((STR_1-__stringbase))
  8636  0448  00F6               	movwf	0+(?i1_lcd_writeThisStringAt)+01h
  8637  0449  3080               	movlw	80h
  8638  044A  00F7               	movwf	1+(?i1_lcd_writeThisStringAt)+01h
  8639  044B  3000               	movlw	(0)
  8640  044C  160A  118A  25DA   	fcall	i1_lcd_writeThisStringAt
              120A  118A         
  8641                           	line	84
  8642                           	
  8643  0451                     i1l14065:	
  8644                           ;CommonDeclarations.c: 84: isFirstTime_Settings = 1;
  8645  0451  1283               	bcf	status, 5	;RP0=0, select bank0
  8646  0452  1303               	bcf	status, 6	;RP1=0, select bank0
  8647  0453  01CB               	clrf	(_isFirstTime_Settings)
  8648  0454  1403               	bsf	status,0
  8649  0455  0DCB               	rlf	(_isFirstTime_Settings),f
  8650                           	line	85
  8651                           	
  8652  0456                     i1l14067:	
  8653                           ;CommonDeclarations.c: 85: modeOfWorking = 0;
  8654  0456  1003               	clrc
  8655  0457  3000               	movlw	0
  8656  0458  1803               	btfsc	status,0
  8657  0459  3001               	movlw	1
  8658  045A  00FD               	movwf	(_modeOfWorking)
  8659                           	line	86
  8660                           	
  8661  045B                     i1l14069:	
  8662                           ;CommonDeclarations.c: 86: lcd_writeThisStringAt(0, 0, "SETTINGS_0N_I");
  8663  045B  1003               	clrc
  8664  045C  3000               	movlw	0
  8665  045D  1803               	btfsc	status,0
  8666  045E  3001               	movlw	1
  8667  045F  00F5               	movwf	(?i1_lcd_writeThisStringAt)
  8668  0460  308E               	movlw	low((STR_2-__stringbase))
  8669  0461  00F6               	movwf	0+(?i1_lcd_writeThisStringAt)+01h
  8670  0462  3080               	movlw	80h
  8671  0463  00F7               	movwf	1+(?i1_lcd_writeThisStringAt)+01h
  8672  0464  3000               	movlw	(0)
  8673  0465  160A  118A  25DA   	fcall	i1_lcd_writeThisStringAt
              120A  118A         
  8674                           	line	87
  8675                           ;CommonDeclarations.c: 87: _delay((unsigned long)((1000)*(20000000/4000.0)));
  8676                           	opt asmopt_off
  8677  046A  301A               movlw  26
  8678  046B  1283               	bcf	status, 5	;RP0=0, select bank0
  8679  046C  1303               	bcf	status, 6	;RP1=0, select bank0
  8680  046D  00AA               movwf	((??_ISR+0)+0+2),f
  8681  046E  3045               movlw	69
  8682  046F  00A9               movwf	((??_ISR+0)+0+1),f
  8683  0470  307E               	movlw	126
  8684  0471  00A8               movwf	((??_ISR+0)+0),f
  8685  0472                     u720_27:
  8686  0472  0BA8               	decfsz	((??_ISR+0)+0),f
  8687  0473  2C72               	goto	u720_27
  8688  0474  0BA9               	decfsz	((??_ISR+0)+0+1),f
  8689  0475  2C72               	goto	u720_27
  8690  0476  0BAA               	decfsz	((??_ISR+0)+0+2),f
  8691  0477  2C72               	goto	u720_27
  8692                           opt asmopt_on
  8693                           
  8694                           	line	88
  8695                           	
  8696  0478                     i1l14071:	
  8697                           ;CommonDeclarations.c: 88: InitialiseSettingMode();
  8698  0478  160A  118A  2580   	fcall	_InitialiseSettingMode
              120A  118A         
  8699                           	line	89
  8700                           ;CommonDeclarations.c: 89: } else if (isFirstTime_Settings == 1) {
  8701  047D  2CC5               	goto	i1l1808
  8702                           	
  8703  047E                     i1l1807:	
  8704                           	
  8705  047E                     i1l14073:	
  8706  047E  1283               	bcf	status, 5	;RP0=0, select bank0
  8707  047F  1303               	bcf	status, 6	;RP1=0, select bank0
  8708  0480  084B               	movf	(_isFirstTime_Settings),w
  8709  0481  3A01               	xorlw	01h
  8710  0482  1D03               	skipz
  8711  0483  2C85               	goto	u593_21
  8712  0484  2C86               	goto	u593_20
  8713  0485                     u593_21:
  8714  0485  2CC5               	goto	i1l1809
  8715  0486                     u593_20:
  8716                           	line	90
  8717                           	
  8718  0486                     i1l14075:	
  8719                           ;CommonDeclarations.c: 90: isFirstTime_Settings = 0;
  8720  0486  1003               	clrc
  8721  0487  3000               	movlw	0
  8722  0488  1803               	btfsc	status,0
  8723  0489  3001               	movlw	1
  8724  048A  00CB               	movwf	(_isFirstTime_Settings)
  8725                           	line	91
  8726                           	
  8727  048B                     i1l14077:	
  8728                           ;CommonDeclarations.c: 91: modeOfWorking = 1;
  8729  048B  01FD               	clrf	(_modeOfWorking)
  8730  048C  1403               	bsf	status,0
  8731  048D  0DFD               	rlf	(_modeOfWorking),f
  8732                           	line	92
  8733                           	
  8734  048E                     i1l14079:	
  8735                           ;CommonDeclarations.c: 92: lcd_writeThisStringAt(0, 0, "SETTINGS_0FF_I");
  8736  048E  1003               	clrc
  8737  048F  3000               	movlw	0
  8738  0490  1803               	btfsc	status,0
  8739  0491  3001               	movlw	1
  8740  0492  00F5               	movwf	(?i1_lcd_writeThisStringAt)
  8741  0493  3071               	movlw	low((STR_3-__stringbase))
  8742  0494  00F6               	movwf	0+(?i1_lcd_writeThisStringAt)+01h
  8743  0495  3080               	movlw	80h
  8744  0496  00F7               	movwf	1+(?i1_lcd_writeThisStringAt)+01h
  8745  0497  3000               	movlw	(0)
  8746  0498  160A  118A  25DA   	fcall	i1_lcd_writeThisStringAt
              120A  118A         
  8747                           	line	93
  8748                           	
  8749  049D                     i1l14081:	
  8750                           ;CommonDeclarations.c: 93: updateConfiguration();
  8751  049D  120A  118A  24DC   	fcall	_updateConfiguration
              120A  118A         
  8752                           	line	94
  8753                           	
  8754  04A2                     i1l14083:	
  8755                           ;CommonDeclarations.c: 94: _delay((unsigned long)((1000)*(20000000/4000.0)));
  8756                           	opt asmopt_off
  8757  04A2  301A               movlw  26
  8758  04A3  1283               	bcf	status, 5	;RP0=0, select bank0
  8759  04A4  1303               	bcf	status, 6	;RP1=0, select bank0
  8760  04A5  00AA               movwf	((??_ISR+0)+0+2),f
  8761  04A6  3045               movlw	69
  8762  04A7  00A9               movwf	((??_ISR+0)+0+1),f
  8763  04A8  307E               	movlw	126
  8764  04A9  00A8               movwf	((??_ISR+0)+0),f
  8765  04AA                     u721_27:
  8766  04AA  0BA8               	decfsz	((??_ISR+0)+0),f
  8767  04AB  2CAA               	goto	u721_27
  8768  04AC  0BA9               	decfsz	((??_ISR+0)+0+1),f
  8769  04AD  2CAA               	goto	u721_27
  8770  04AE  0BAA               	decfsz	((??_ISR+0)+0+2),f
  8771  04AF  2CAA               	goto	u721_27
  8772                           opt asmopt_on
  8773                           
  8774                           	line	95
  8775                           	
  8776  04B0                     i1l14085:	
  8777                           ;CommonDeclarations.c: 95: lcd_clear();
  8778  04B0  160A  118A  2562   	fcall	i1_lcd_clear
              120A  118A         
  8779                           	line	96
  8780                           ;CommonDeclarations.c: 96: lcd_writeThisStringAt(0, 4, "WELCOME");
  8781  04B5  3004               	movlw	(04h)
  8782  04B6  1283               	bcf	status, 5	;RP0=0, select bank0
  8783  04B7  1303               	bcf	status, 6	;RP1=0, select bank0
  8784  04B8  00A8               	movwf	(??_ISR+0)+0
  8785  04B9  0828               	movf	(??_ISR+0)+0,w
  8786  04BA  00F5               	movwf	(?i1_lcd_writeThisStringAt)
  8787  04BB  30C3               	movlw	low((STR_4-__stringbase))
  8788  04BC  00F6               	movwf	0+(?i1_lcd_writeThisStringAt)+01h
  8789  04BD  3080               	movlw	80h
  8790  04BE  00F7               	movwf	1+(?i1_lcd_writeThisStringAt)+01h
  8791  04BF  3000               	movlw	(0)
  8792  04C0  160A  118A  25DA   	fcall	i1_lcd_writeThisStringAt
              120A  118A         
  8793                           	line	97
  8794                           	
  8795  04C5                     i1l1809:	
  8796                           	line	99
  8797                           	
  8798  04C5                     i1l1808:	
  8799                           	
  8800  04C5                     i1l1806:	
  8801                           	line	100
  8802                           	
  8803  04C5                     i1l14087:	
  8804                           ;CommonDeclarations.c: 97: }
  8805                           ;CommonDeclarations.c: 99: }
  8806                           ;CommonDeclarations.c: 100: enableInterrupt_RB0();
  8807  04C5  160A  118A  2548   	fcall	i1_enableInterrupt_RB0
              120A  118A         
  8808                           	line	101
  8809                           	
  8810  04CA                     i1l14089:	
  8811                           ;CommonDeclarations.c: 101: start_timer0();
  8812  04CA  160A  118A  254D   	fcall	i1_start_timer0
              120A  118A         
  8813                           	line	102
  8814                           	
  8815  04CF                     i1l1800:	
  8816                           	line	104
  8817                           	
  8818  04CF                     i1l1810:	
  8819  04CF  1283               	bcf	status, 5	;RP0=0, select bank0
  8820  04D0  1303               	bcf	status, 6	;RP1=0, select bank0
  8821  04D1  082E               	movf	(??_ISR+6),w
  8822  04D2  00FF               	movwf	btemp+1
  8823  04D3  082D               	movf	(??_ISR+5),w
  8824  04D4  008A               	movwf	pclath
  8825  04D5  082C               	movf	(??_ISR+4),w
  8826  04D6  0084               	movwf	fsr0
  8827  04D7  082B               	movf	(??_ISR+3),w
  8828  04D8  0083               	movwf	status
  8829  04D9  0EFE               	swapf	saved_w,f
  8830  04DA  0E7E               	swapf	saved_w,w
  8831  04DB  0009               	retfie
  8832                           	opt stack 0
  8833                           GLOBAL	__end_of_ISR
  8834  04DC                     	__end_of_ISR:
  8835 ;; =============== function _ISR ends ============
  8836                           
  8837                           	signat	_ISR,88
  8838                           	global	_InitialiseSettingMode
  8839                           psect	text1669,local,class=CODE,delta=2
  8840                           global __ptext1669
  8841  1580                     __ptext1669:
  8842                           
  8843 ;; *************** function _InitialiseSettingMode *****************
  8844 ;; Defined at:
  8845 ;;		line 12 in file "SettingModeHandler.c"
  8846 ;; Parameters:    Size  Location     Type
  8847 ;;		None
  8848 ;; Auto vars:     Size  Location     Type
  8849 ;;		None
  8850 ;; Return value:  Size  Location     Type
  8851 ;;		None               void
  8852 ;; Registers used:
  8853 ;;		wreg, fsr0l, fsr0h, status,2, status,0, btemp+0, btemp+1, pclath, cstack
  8854 ;; Tracked objects:
  8855 ;;		On entry : 0/0
  8856 ;;		On exit  : 0/0
  8857 ;;		Unchanged: 0/0
  8858 ;; Data sizes:     COMMON   BANK0   BANK1   BANK3   BANK2
  8859 ;;      Params:         0       0       0       0       0
  8860 ;;      Locals:         0       0       0       0       0
  8861 ;;      Temps:          0       0       0       0       0
  8862 ;;      Totals:         0       0       0       0       0
  8863 ;;Total ram usage:        0 bytes
  8864 ;; Hardware stack levels used:    1
  8865 ;; Hardware stack levels required when called:    4
  8866 ;; This function calls:
  8867 ;;		i1_UpdateScreen
  8868 ;; This function is called by:
  8869 ;;		_ISR
  8870 ;; This function uses a non-reentrant model
  8871 ;;
  8872                           psect	text1669
  8873                           	file	"SettingModeHandler.c"
  8874                           	line	12
  8875                           	global	__size_of_InitialiseSettingMode
  8876  000E                     	__size_of_InitialiseSettingMode	equ	__end_of_InitialiseSettingMode-_InitialiseSettingMo
                                 de
  8877                           	
  8878  1580                     _InitialiseSettingMode:	
  8879 ;; hardware stack exceeded
  8880                           	opt	stack 0
  8881                           ; Regs used in _InitialiseSettingMode: [wreg-fsr0h+status,2-btemp+1+pclath+cstack]
  8882                           	line	13
  8883                           	
  8884  1580                     i1l14091:	
  8885                           ;SettingModeHandler.c: 13: ScreenIndex = 0;
  8886  1580  1003               	clrc
  8887  1581  3000               	movlw	0
  8888  1582  1803               	btfsc	status,0
  8889  1583  3001               	movlw	1
  8890  1584  1283               	bcf	status, 5	;RP0=0, select bank0
  8891  1585  1303               	bcf	status, 6	;RP1=0, select bank0
  8892  1586  00C5               	movwf	(_ScreenIndex)
  8893                           	line	14
  8894                           	
  8895  1587                     i1l14093:	
  8896                           ;SettingModeHandler.c: 14: UpdateScreen(0);
  8897  1587  3000               	movlw	(0)
  8898  1588  120A  118A  26BD   	fcall	i1_UpdateScreen
              160A  118A         
  8899                           	line	15
  8900                           	
  8901  158D                     i1l6317:	
  8902  158D  0008               	return
  8903                           	opt stack 0
  8904                           GLOBAL	__end_of_InitialiseSettingMode
  8905  158E                     	__end_of_InitialiseSettingMode:
  8906 ;; =============== function _InitialiseSettingMode ends ============
  8907                           
  8908                           	signat	_InitialiseSettingMode,88
  8909                           	global	i1_UpdateScreen
  8910                           psect	text1670,local,class=CODE,delta=2
  8911                           global __ptext1670
  8912  06BD                     __ptext1670:
  8913                           
  8914 ;; *************** function i1_UpdateScreen *****************
  8915 ;; Defined at:
  8916 ;;		line 125 in file "SettingModeHandler.c"
  8917 ;; Parameters:    Size  Location     Type
  8918 ;;  UpdateScreen    1    wreg     unsigned char 
  8919 ;; Auto vars:     Size  Location     Type
  8920 ;;  UpdateScreen    1 (no storage) unsigned char 
  8921 ;; Return value:  Size  Location     Type
  8922 ;;		None               void
  8923 ;; Registers used:
  8924 ;;		wreg, fsr0l, fsr0h, status,2, status,0, btemp+0, btemp+1, pclath, cstack
  8925 ;; Tracked objects:
  8926 ;;		On entry : 0/0
  8927 ;;		On exit  : 0/0
  8928 ;;		Unchanged: 0/0
  8929 ;; Data sizes:     COMMON   BANK0   BANK1   BANK3   BANK2
  8930 ;;      Params:         0       0       0       0       0
  8931 ;;      Locals:         0       0       0       0       0
  8932 ;;      Temps:          0       3       0       0       0
  8933 ;;      Totals:         0       3       0       0       0
  8934 ;;Total ram usage:        3 bytes
  8935 ;; Hardware stack levels used:    1
  8936 ;; Hardware stack levels required when called:    3
  8937 ;; This function calls:
  8938 ;;		i1_lcd_clear
  8939 ;;		i1_lcd_writeThisStringAt
  8940 ;;		i1_lcd_writeThisDigit
  8941 ;; This function is called by:
  8942 ;;		_InitialiseSettingMode
  8943 ;; This function uses a non-reentrant model
  8944 ;;
  8945                           psect	text1670
  8946                           	file	"SettingModeHandler.c"
  8947                           	line	125
  8948                           	global	__size_ofi1_UpdateScreen
  8949  00F0                     	__size_ofi1_UpdateScreen	equ	__end_ofi1_UpdateScreen-i1_UpdateScreen
  8950                           	
  8951  06BD                     i1_UpdateScreen:	
  8952 ;; hardware stack exceeded
  8953                           	opt	stack 0
  8954                           ; Regs used in i1_UpdateScreen: [wreg-fsr0h+status,2-btemp+1+pclath+cstack]
  8955                           	line	126
  8956                           	
  8957  06BD                     i1l14175:	
  8958                           ;SettingModeHandler.c: 126: lcd_clear();
  8959  06BD  160A  118A  2562   	fcall	i1_lcd_clear
              120A  118A         
  8960                           	line	127
  8961                           	
  8962  06C2                     i1l14177:	
  8963                           ;SettingModeHandler.c: 127: if (0 == ScreenIndex) {
  8964  06C2  1283               	bcf	status, 5	;RP0=0, select bank0
  8965  06C3  1303               	bcf	status, 6	;RP1=0, select bank0
  8966  06C4  08C5               	movf	(_ScreenIndex),f
  8967  06C5  1D03               	skipz
  8968  06C6  2EC8               	goto	u613_21
  8969  06C7  2EC9               	goto	u613_20
  8970  06C8                     u613_21:
  8971  06C8  2F12               	goto	i1l6380
  8972  06C9                     u613_20:
  8973                           	line	128
  8974                           	
  8975  06C9                     i1l14179:	
  8976                           ;SettingModeHandler.c: 128: lcd_writeThisStringAt(0, 2, "TEA SETTINGS");
  8977  06C9  3002               	movlw	(02h)
  8978  06CA  00A5               	movwf	(??i1_UpdateScreen+0)+0
  8979  06CB  0825               	movf	(??i1_UpdateScreen+0)+0,w
  8980  06CC  00F5               	movwf	(?i1_lcd_writeThisStringAt)
  8981  06CD  309C               	movlw	low((STR_11-__stringbase))
  8982  06CE  00F6               	movwf	0+(?i1_lcd_writeThisStringAt)+01h
  8983  06CF  3080               	movlw	80h
  8984  06D0  00F7               	movwf	1+(?i1_lcd_writeThisStringAt)+01h
  8985  06D1  3000               	movlw	(0)
  8986  06D2  160A  118A  25DA   	fcall	i1_lcd_writeThisStringAt
              120A  118A         
  8987                           	line	129
  8988                           	
  8989  06D7                     i1l14181:	
  8990                           ;SettingModeHandler.c: 129: if (0 == ParameterIndex) {
  8991  06D7  1283               	bcf	status, 5	;RP0=0, select bank0
  8992  06D8  1303               	bcf	status, 6	;RP1=0, select bank0
  8993  06D9  08C4               	movf	(_ParameterIndex),f
  8994  06DA  1D03               	skipz
  8995  06DB  2EDD               	goto	u614_21
  8996  06DC  2EDE               	goto	u614_20
  8997  06DD                     u614_21:
  8998  06DD  2EF4               	goto	i1l6381
  8999  06DE                     u614_20:
  9000                           	line	130
  9001                           	
  9002  06DE                     i1l14183:	
  9003                           ;SettingModeHandler.c: 130: lcd_writeThisStringAt(1, 1, "T:");
  9004  06DE  01F5               	clrf	(?i1_lcd_writeThisStringAt)
  9005  06DF  1403               	bsf	status,0
  9006  06E0  0DF5               	rlf	(?i1_lcd_writeThisStringAt),f
  9007  06E1  30D2               	movlw	low((STR_12-__stringbase))
  9008  06E2  00F6               	movwf	0+(?i1_lcd_writeThisStringAt)+01h
  9009  06E3  3080               	movlw	80h
  9010  06E4  00F7               	movwf	1+(?i1_lcd_writeThisStringAt)+01h
  9011  06E5  3001               	movlw	(01h)
  9012  06E6  160A  118A  25DA   	fcall	i1_lcd_writeThisStringAt
              120A  118A         
  9013                           	line	131
  9014                           ;SettingModeHandler.c: 131: lcd_writeThisDigit(CurrentTeaQuantity);
  9015  06EB  1283               	bcf	status, 5	;RP0=0, select bank0
  9016  06EC  1303               	bcf	status, 6	;RP1=0, select bank0
  9017  06ED  0841               	movf	(_CurrentTeaQuantity),w
  9018  06EE  120A  158A  2392   	fcall	i1_lcd_writeThisDigit
              120A  118A         
  9019                           	line	132
  9020                           ;SettingModeHandler.c: 132: } else if (1 == ParameterIndex) {
  9021  06F3  2F12               	goto	i1l6382
  9022                           	
  9023  06F4                     i1l6381:	
  9024                           	
  9025  06F4                     i1l14185:	
  9026  06F4  1283               	bcf	status, 5	;RP0=0, select bank0
  9027  06F5  1303               	bcf	status, 6	;RP1=0, select bank0
  9028  06F6  0844               	movf	(_ParameterIndex),w
  9029  06F7  3A01               	xorlw	01h
  9030  06F8  1D03               	skipz
  9031  06F9  2EFB               	goto	u615_21
  9032  06FA  2EFC               	goto	u615_20
  9033  06FB                     u615_21:
  9034  06FB  2F12               	goto	i1l6383
  9035  06FC                     u615_20:
  9036                           	line	133
  9037                           	
  9038  06FC                     i1l14187:	
  9039                           ;SettingModeHandler.c: 133: lcd_writeThisStringAt(1, 10, "W:");
  9040  06FC  300A               	movlw	(0Ah)
  9041  06FD  00A5               	movwf	(??i1_UpdateScreen+0)+0
  9042  06FE  0825               	movf	(??i1_UpdateScreen+0)+0,w
  9043  06FF  00F5               	movwf	(?i1_lcd_writeThisStringAt)
  9044  0700  30D5               	movlw	low((STR_13-__stringbase))
  9045  0701  00F6               	movwf	0+(?i1_lcd_writeThisStringAt)+01h
  9046  0702  3080               	movlw	80h
  9047  0703  00F7               	movwf	1+(?i1_lcd_writeThisStringAt)+01h
  9048  0704  3001               	movlw	(01h)
  9049  0705  160A  118A  25DA   	fcall	i1_lcd_writeThisStringAt
              120A  118A         
  9050                           	line	134
  9051                           ;SettingModeHandler.c: 134: lcd_writeThisDigit(CurrentWaterQuantity_forTea);
  9052  070A  1283               	bcf	status, 5	;RP0=0, select bank0
  9053  070B  1303               	bcf	status, 6	;RP1=0, select bank0
  9054  070C  0843               	movf	(_CurrentWaterQuantity_forTea),w
  9055  070D  120A  158A  2392   	fcall	i1_lcd_writeThisDigit
              120A  118A         
  9056                           	line	135
  9057                           	
  9058  0712                     i1l6383:	
  9059                           	line	136
  9060                           	
  9061  0712                     i1l6382:	
  9062                           	
  9063  0712                     i1l6380:	
  9064                           	line	137
  9065                           	
  9066  0712                     i1l14189:	
  9067                           ;SettingModeHandler.c: 135: }
  9068                           ;SettingModeHandler.c: 136: }
  9069                           ;SettingModeHandler.c: 137: if (1 == ScreenIndex) {
  9070  0712  1283               	bcf	status, 5	;RP0=0, select bank0
  9071  0713  1303               	bcf	status, 6	;RP1=0, select bank0
  9072  0714  0845               	movf	(_ScreenIndex),w
  9073  0715  3A01               	xorlw	01h
  9074  0716  1D03               	skipz
  9075  0717  2F19               	goto	u616_21
  9076  0718  2F1A               	goto	u616_20
  9077  0719                     u616_21:
  9078  0719  2F67               	goto	i1l6384
  9079  071A                     u616_20:
  9080                           	line	138
  9081                           	
  9082  071A                     i1l14191:	
  9083                           ;SettingModeHandler.c: 138: lcd_writeThisStringAt(0, 0, "COFFEE SETTINGS");
  9084  071A  1003               	clrc
  9085  071B  3000               	movlw	0
  9086  071C  1803               	btfsc	status,0
  9087  071D  3001               	movlw	1
  9088  071E  00F5               	movwf	(?i1_lcd_writeThisStringAt)
  9089  071F  3043               	movlw	low((STR_14-__stringbase))
  9090  0720  00F6               	movwf	0+(?i1_lcd_writeThisStringAt)+01h
  9091  0721  3080               	movlw	80h
  9092  0722  00F7               	movwf	1+(?i1_lcd_writeThisStringAt)+01h
  9093  0723  3000               	movlw	(0)
  9094  0724  160A  118A  25DA   	fcall	i1_lcd_writeThisStringAt
              120A  118A         
  9095                           	line	139
  9096                           	
  9097  0729                     i1l14193:	
  9098                           ;SettingModeHandler.c: 139: if (3 == ParameterIndex) {
  9099  0729  1283               	bcf	status, 5	;RP0=0, select bank0
  9100  072A  1303               	bcf	status, 6	;RP1=0, select bank0
  9101  072B  0844               	movf	(_ParameterIndex),w
  9102  072C  3A03               	xorlw	03h
  9103  072D  1D03               	skipz
  9104  072E  2F30               	goto	u617_21
  9105  072F  2F31               	goto	u617_20
  9106  0730                     u617_21:
  9107  0730  2F49               	goto	i1l6385
  9108  0731                     u617_20:
  9109                           	line	140
  9110                           	
  9111  0731                     i1l14195:	
  9112                           ;SettingModeHandler.c: 140: lcd_writeThisStringAt(1, 0, "C:");
  9113  0731  1003               	clrc
  9114  0732  3000               	movlw	0
  9115  0733  1803               	btfsc	status,0
  9116  0734  3001               	movlw	1
  9117  0735  00F5               	movwf	(?i1_lcd_writeThisStringAt)
  9118  0736  30CF               	movlw	low((STR_15-__stringbase))
  9119  0737  00F6               	movwf	0+(?i1_lcd_writeThisStringAt)+01h
  9120  0738  3080               	movlw	80h
  9121  0739  00F7               	movwf	1+(?i1_lcd_writeThisStringAt)+01h
  9122  073A  3001               	movlw	(01h)
  9123  073B  160A  118A  25DA   	fcall	i1_lcd_writeThisStringAt
              120A  118A         
  9124                           	line	141
  9125                           ;SettingModeHandler.c: 141: lcd_writeThisDigit(CurrentCoffeeQuantity);
  9126  0740  1283               	bcf	status, 5	;RP0=0, select bank0
  9127  0741  1303               	bcf	status, 6	;RP1=0, select bank0
  9128  0742  0840               	movf	(_CurrentCoffeeQuantity),w
  9129  0743  120A  158A  2392   	fcall	i1_lcd_writeThisDigit
              120A  118A         
  9130                           	line	143
  9131                           ;SettingModeHandler.c: 143: } else if (4 == ParameterIndex) {
  9132  0748  2F67               	goto	i1l6386
  9133                           	
  9134  0749                     i1l6385:	
  9135                           	
  9136  0749                     i1l14197:	
  9137  0749  1283               	bcf	status, 5	;RP0=0, select bank0
  9138  074A  1303               	bcf	status, 6	;RP1=0, select bank0
  9139  074B  0844               	movf	(_ParameterIndex),w
  9140  074C  3A04               	xorlw	04h
  9141  074D  1D03               	skipz
  9142  074E  2F50               	goto	u618_21
  9143  074F  2F51               	goto	u618_20
  9144  0750                     u618_21:
  9145  0750  2F67               	goto	i1l6387
  9146  0751                     u618_20:
  9147                           	line	144
  9148                           	
  9149  0751                     i1l14199:	
  9150                           ;SettingModeHandler.c: 144: lcd_writeThisStringAt(1, 10, "W:");
  9151  0751  300A               	movlw	(0Ah)
  9152  0752  00A5               	movwf	(??i1_UpdateScreen+0)+0
  9153  0753  0825               	movf	(??i1_UpdateScreen+0)+0,w
  9154  0754  00F5               	movwf	(?i1_lcd_writeThisStringAt)
  9155  0755  30D5               	movlw	low((STR_16-__stringbase))
  9156  0756  00F6               	movwf	0+(?i1_lcd_writeThisStringAt)+01h
  9157  0757  3080               	movlw	80h
  9158  0758  00F7               	movwf	1+(?i1_lcd_writeThisStringAt)+01h
  9159  0759  3001               	movlw	(01h)
  9160  075A  160A  118A  25DA   	fcall	i1_lcd_writeThisStringAt
              120A  118A         
  9161                           	line	145
  9162                           ;SettingModeHandler.c: 145: lcd_writeThisDigit(CurrentWaterQuantity_forCoffee);
  9163  075F  1283               	bcf	status, 5	;RP0=0, select bank0
  9164  0760  1303               	bcf	status, 6	;RP1=0, select bank0
  9165  0761  0842               	movf	(_CurrentWaterQuantity_forCoffee),w
  9166  0762  120A  158A  2392   	fcall	i1_lcd_writeThisDigit
              120A  118A         
  9167                           	line	146
  9168                           	
  9169  0767                     i1l6387:	
  9170                           	line	147
  9171                           	
  9172  0767                     i1l6386:	
  9173                           	
  9174  0767                     i1l6384:	
  9175                           	line	148
  9176                           	
  9177  0767                     i1l14201:	
  9178                           ;SettingModeHandler.c: 146: }
  9179                           ;SettingModeHandler.c: 147: }
  9180                           ;SettingModeHandler.c: 148: if (2 == ScreenIndex) {
  9181  0767  1283               	bcf	status, 5	;RP0=0, select bank0
  9182  0768  1303               	bcf	status, 6	;RP1=0, select bank0
  9183  0769  0845               	movf	(_ScreenIndex),w
  9184  076A  3A02               	xorlw	02h
  9185  076B  1D03               	skipz
  9186  076C  2F6E               	goto	u619_21
  9187  076D  2F6F               	goto	u619_20
  9188  076E                     u619_21:
  9189  076E  2F9D               	goto	i1l6388
  9190  076F                     u619_20:
  9191                           	line	149
  9192                           	
  9193  076F                     i1l14203:	
  9194                           ;SettingModeHandler.c: 149: lcd_writeThisStringAt(0, 2, "SET DEFAULTS");
  9195  076F  3002               	movlw	(02h)
  9196  0770  00A5               	movwf	(??i1_UpdateScreen+0)+0
  9197  0771  0825               	movf	(??i1_UpdateScreen+0)+0,w
  9198  0772  00F5               	movwf	(?i1_lcd_writeThisStringAt)
  9199  0773  30A9               	movlw	low((STR_17-__stringbase))
  9200  0774  00F6               	movwf	0+(?i1_lcd_writeThisStringAt)+01h
  9201  0775  3080               	movlw	80h
  9202  0776  00F7               	movwf	1+(?i1_lcd_writeThisStringAt)+01h
  9203  0777  3000               	movlw	(0)
  9204  0778  160A  118A  25DA   	fcall	i1_lcd_writeThisStringAt
              120A  118A         
  9205                           	line	150
  9206                           ;SettingModeHandler.c: 150: lcd_writeThisStringAt(1, 2, "YES");
  9207  077D  3002               	movlw	(02h)
  9208  077E  1283               	bcf	status, 5	;RP0=0, select bank0
  9209  077F  1303               	bcf	status, 6	;RP1=0, select bank0
  9210  0780  00A5               	movwf	(??i1_UpdateScreen+0)+0
  9211  0781  0825               	movf	(??i1_UpdateScreen+0)+0,w
  9212  0782  00F5               	movwf	(?i1_lcd_writeThisStringAt)
  9213  0783  30CB               	movlw	low((STR_18-__stringbase))
  9214  0784  00F6               	movwf	0+(?i1_lcd_writeThisStringAt)+01h
  9215  0785  3080               	movlw	80h
  9216  0786  00F7               	movwf	1+(?i1_lcd_writeThisStringAt)+01h
  9217  0787  3001               	movlw	(01h)
  9218  0788  160A  118A  25DA   	fcall	i1_lcd_writeThisStringAt
              120A  118A         
  9219                           	line	151
  9220                           ;SettingModeHandler.c: 151: lcd_writeThisStringAt(1, 10, "NO");
  9221  078D  300A               	movlw	(0Ah)
  9222  078E  1283               	bcf	status, 5	;RP0=0, select bank0
  9223  078F  1303               	bcf	status, 6	;RP1=0, select bank0
  9224  0790  00A5               	movwf	(??i1_UpdateScreen+0)+0
  9225  0791  0825               	movf	(??i1_UpdateScreen+0)+0,w
  9226  0792  00F5               	movwf	(?i1_lcd_writeThisStringAt)
  9227  0793  30D8               	movlw	low((STR_19-__stringbase))
  9228  0794  00F6               	movwf	0+(?i1_lcd_writeThisStringAt)+01h
  9229  0795  3080               	movlw	80h
  9230  0796  00F7               	movwf	1+(?i1_lcd_writeThisStringAt)+01h
  9231  0797  3001               	movlw	(01h)
  9232  0798  160A  118A  25DA   	fcall	i1_lcd_writeThisStringAt
              120A  118A         
  9233                           	line	152
  9234                           	
  9235  079D                     i1l6388:	
  9236                           	line	154
  9237                           	
  9238  079D                     i1l14205:	
  9239                           ;SettingModeHandler.c: 152: }
  9240                           ;SettingModeHandler.c: 154: _delay((unsigned long)((3000)*(20000000/4000.0)));
  9241                           	opt asmopt_off
  9242  079D  304C               movlw  76
  9243  079E  1283               	bcf	status, 5	;RP0=0, select bank0
  9244  079F  1303               	bcf	status, 6	;RP1=0, select bank0
  9245  07A0  00A7               movwf	((??i1_UpdateScreen+0)+0+2),f
  9246  07A1  30CE               movlw	206
  9247  07A2  00A6               movwf	((??i1_UpdateScreen+0)+0+1),f
  9248  07A3  3081               	movlw	129
  9249  07A4  00A5               movwf	((??i1_UpdateScreen+0)+0),f
  9250  07A5                     u722_27:
  9251  07A5  0BA5               	decfsz	((??i1_UpdateScreen+0)+0),f
  9252  07A6  2FA5               	goto	u722_27
  9253  07A7  0BA6               	decfsz	((??i1_UpdateScreen+0)+0+1),f
  9254  07A8  2FA5               	goto	u722_27
  9255  07A9  0BA7               	decfsz	((??i1_UpdateScreen+0)+0+2),f
  9256  07AA  2FA5               	goto	u722_27
  9257  07AB  0064               	clrwdt
  9258                           opt asmopt_on
  9259                           
  9260                           	line	155
  9261                           	
  9262  07AC                     i1l6389:	
  9263  07AC  0008               	return
  9264                           	opt stack 0
  9265                           GLOBAL	__end_ofi1_UpdateScreen
  9266  07AD                     	__end_ofi1_UpdateScreen:
  9267 ;; =============== function i1_UpdateScreen ends ============
  9268                           
  9269                           	signat	i1_UpdateScreen,88
  9270                           	global	_print_ADCValue
  9271                           psect	text1671,local,class=CODE,delta=2
  9272                           global __ptext1671
  9273  0D8A                     __ptext1671:
  9274                           
  9275 ;; *************** function _print_ADCValue *****************
  9276 ;; Defined at:
  9277 ;;		line 33 in file "ADC.c"
  9278 ;; Parameters:    Size  Location     Type
  9279 ;;  adcValue        2   10[COMMON] int 
  9280 ;; Auto vars:     Size  Location     Type
  9281 ;;  data            5    0[BANK0 ] unsigned char [5]
  9282 ;; Return value:  Size  Location     Type
  9283 ;;		None               void
  9284 ;; Registers used:
  9285 ;;		wreg, fsr0l, fsr0h, status,2, status,0, btemp+0, btemp+1, pclath, cstack
  9286 ;; Tracked objects:
  9287 ;;		On entry : 0/0
  9288 ;;		On exit  : 0/0
  9289 ;;		Unchanged: 0/0
  9290 ;; Data sizes:     COMMON   BANK0   BANK1   BANK3   BANK2
  9291 ;;      Params:         2       0       0       0       0
  9292 ;;      Locals:         0       5       0       0       0
  9293 ;;      Temps:          1       0       0       0       0
  9294 ;;      Totals:         3       5       0       0       0
  9295 ;;Total ram usage:        8 bytes
  9296 ;; Hardware stack levels used:    1
  9297 ;; Hardware stack levels required when called:    3
  9298 ;; This function calls:
  9299 ;;		i1___awmod
  9300 ;;		i1___awdiv
  9301 ;;		i1_lcd_writeThisStringAt
  9302 ;; This function is called by:
  9303 ;;		_ISR
  9304 ;;		_readADCvalue
  9305 ;; This function uses a non-reentrant model
  9306 ;;
  9307                           psect	text1671
  9308                           	file	"ADC.c"
  9309                           	line	33
  9310                           	global	__size_of_print_ADCValue
  9311  00CF                     	__size_of_print_ADCValue	equ	__end_of_print_ADCValue-_print_ADCValue
  9312                           	
  9313  0D8A                     _print_ADCValue:	
  9314 ;; hardware stack exceeded
  9315                           	opt	stack 0
  9316                           ; Regs used in _print_ADCValue: [wreg-fsr0h+status,2-btemp+1+pclath+cstack]
  9317                           	line	35
  9318                           	
  9319  0D8A                     i1l13985:	
  9320                           ;ADC.c: 35: UByte data[5] = {'0', '0', '0', '0', '\0'};
  9321  0D8A  3020               	movlw	(print_ADCValue@data)&0ffh
  9322  0D8B  0084               	movwf	fsr0
  9323  0D8C  1283               	bcf	status, 5	;RP0=0, select bank0
  9324  0D8D  1303               	bcf	status, 6	;RP1=0, select bank0
  9325  0D8E  0856               	movf	(print_ADCValue@F1018),w
  9326  0D8F  1383               	bcf	status, 7	;select IRP bank0
  9327  0D90  0080               	movwf	indf
  9328  0D91  0A84               	incf	fsr0,f
  9329  0D92  0857               	movf	(print_ADCValue@F1018)+1,w
  9330  0D93  0080               	movwf	indf
  9331  0D94  0A84               	incf	fsr0,f
  9332  0D95  0858               	movf	(print_ADCValue@F1018)+2,w
  9333  0D96  0080               	movwf	indf
  9334  0D97  0A84               	incf	fsr0,f
  9335  0D98  0859               	movf	(print_ADCValue@F1018)+3,w
  9336  0D99  0080               	movwf	indf
  9337  0D9A  0A84               	incf	fsr0,f
  9338  0D9B  085A               	movf	(print_ADCValue@F1018)+4,w
  9339  0D9C  0080               	movwf	indf
  9340                           	line	38
  9341                           	
  9342  0D9D                     i1l13987:	
  9343                           ;ADC.c: 38: data[3] = (adcValue % 10) + 0x30;
  9344  0D9D  300A               	movlw	low(0Ah)
  9345  0D9E  00F0               	movwf	(?i1___awmod)
  9346  0D9F  3000               	movlw	high(0Ah)
  9347  0DA0  00F1               	movwf	((?i1___awmod))+1
  9348  0DA1  087B               	movf	(print_ADCValue@adcValue+1),w
  9349  0DA2  01F3               	clrf	1+(?i1___awmod)+02h
  9350  0DA3  07F3               	addwf	1+(?i1___awmod)+02h
  9351  0DA4  087A               	movf	(print_ADCValue@adcValue),w
  9352  0DA5  01F2               	clrf	0+(?i1___awmod)+02h
  9353  0DA6  07F2               	addwf	0+(?i1___awmod)+02h
  9354                           
  9355  0DA7  120A  158A  21EE   	fcall	i1___awmod
              120A  158A         
  9356  0DAC  0870               	movf	(0+(?i1___awmod)),w
  9357  0DAD  3E30               	addlw	030h
  9358  0DAE  00FC               	movwf	(??_print_ADCValue+0)+0
  9359  0DAF  087C               	movf	(??_print_ADCValue+0)+0,w
  9360  0DB0  1283               	bcf	status, 5	;RP0=0, select bank0
  9361  0DB1  1303               	bcf	status, 6	;RP1=0, select bank0
  9362  0DB2  00A3               	movwf	0+(print_ADCValue@data)+03h
  9363                           	line	39
  9364                           	
  9365  0DB3                     i1l13989:	
  9366                           ;ADC.c: 39: adcValue = adcValue / 10;
  9367  0DB3  300A               	movlw	low(0Ah)
  9368  0DB4  00F0               	movwf	(?i1___awdiv)
  9369  0DB5  3000               	movlw	high(0Ah)
  9370  0DB6  00F1               	movwf	((?i1___awdiv))+1
  9371  0DB7  087B               	movf	(print_ADCValue@adcValue+1),w
  9372  0DB8  01F3               	clrf	1+(?i1___awdiv)+02h
  9373  0DB9  07F3               	addwf	1+(?i1___awdiv)+02h
  9374  0DBA  087A               	movf	(print_ADCValue@adcValue),w
  9375  0DBB  01F2               	clrf	0+(?i1___awdiv)+02h
  9376  0DBC  07F2               	addwf	0+(?i1___awdiv)+02h
  9377                           
  9378  0DBD  120A  158A  22B0   	fcall	i1___awdiv
              120A  158A         
  9379  0DC2  0871               	movf	(1+(?i1___awdiv)),w
  9380  0DC3  01FB               	clrf	(print_ADCValue@adcValue+1)
  9381  0DC4  07FB               	addwf	(print_ADCValue@adcValue+1)
  9382  0DC5  0870               	movf	(0+(?i1___awdiv)),w
  9383  0DC6  01FA               	clrf	(print_ADCValue@adcValue)
  9384  0DC7  07FA               	addwf	(print_ADCValue@adcValue)
  9385                           
  9386                           	line	41
  9387                           	
  9388  0DC8                     i1l13991:	
  9389                           ;ADC.c: 41: data[2] = (adcValue % 10) + 0x30;
  9390  0DC8  300A               	movlw	low(0Ah)
  9391  0DC9  00F0               	movwf	(?i1___awmod)
  9392  0DCA  3000               	movlw	high(0Ah)
  9393  0DCB  00F1               	movwf	((?i1___awmod))+1
  9394  0DCC  087B               	movf	(print_ADCValue@adcValue+1),w
  9395  0DCD  01F3               	clrf	1+(?i1___awmod)+02h
  9396  0DCE  07F3               	addwf	1+(?i1___awmod)+02h
  9397  0DCF  087A               	movf	(print_ADCValue@adcValue),w
  9398  0DD0  01F2               	clrf	0+(?i1___awmod)+02h
  9399  0DD1  07F2               	addwf	0+(?i1___awmod)+02h
  9400                           
  9401  0DD2  120A  158A  21EE   	fcall	i1___awmod
              120A  158A         
  9402  0DD7  0870               	movf	(0+(?i1___awmod)),w
  9403  0DD8  3E30               	addlw	030h
  9404  0DD9  00FC               	movwf	(??_print_ADCValue+0)+0
  9405  0DDA  087C               	movf	(??_print_ADCValue+0)+0,w
  9406  0DDB  1283               	bcf	status, 5	;RP0=0, select bank0
  9407  0DDC  1303               	bcf	status, 6	;RP1=0, select bank0
  9408  0DDD  00A2               	movwf	0+(print_ADCValue@data)+02h
  9409                           	line	42
  9410                           	
  9411  0DDE                     i1l13993:	
  9412                           ;ADC.c: 42: adcValue = adcValue / 10;
  9413  0DDE  300A               	movlw	low(0Ah)
  9414  0DDF  00F0               	movwf	(?i1___awdiv)
  9415  0DE0  3000               	movlw	high(0Ah)
  9416  0DE1  00F1               	movwf	((?i1___awdiv))+1
  9417  0DE2  087B               	movf	(print_ADCValue@adcValue+1),w
  9418  0DE3  01F3               	clrf	1+(?i1___awdiv)+02h
  9419  0DE4  07F3               	addwf	1+(?i1___awdiv)+02h
  9420  0DE5  087A               	movf	(print_ADCValue@adcValue),w
  9421  0DE6  01F2               	clrf	0+(?i1___awdiv)+02h
  9422  0DE7  07F2               	addwf	0+(?i1___awdiv)+02h
  9423                           
  9424  0DE8  120A  158A  22B0   	fcall	i1___awdiv
              120A  158A         
  9425  0DED  0871               	movf	(1+(?i1___awdiv)),w
  9426  0DEE  01FB               	clrf	(print_ADCValue@adcValue+1)
  9427  0DEF  07FB               	addwf	(print_ADCValue@adcValue+1)
  9428  0DF0  0870               	movf	(0+(?i1___awdiv)),w
  9429  0DF1  01FA               	clrf	(print_ADCValue@adcValue)
  9430  0DF2  07FA               	addwf	(print_ADCValue@adcValue)
  9431                           
  9432                           	line	44
  9433                           	
  9434  0DF3                     i1l13995:	
  9435                           ;ADC.c: 44: data[1] = (adcValue % 10) + 0x30;
  9436  0DF3  300A               	movlw	low(0Ah)
  9437  0DF4  00F0               	movwf	(?i1___awmod)
  9438  0DF5  3000               	movlw	high(0Ah)
  9439  0DF6  00F1               	movwf	((?i1___awmod))+1
  9440  0DF7  087B               	movf	(print_ADCValue@adcValue+1),w
  9441  0DF8  01F3               	clrf	1+(?i1___awmod)+02h
  9442  0DF9  07F3               	addwf	1+(?i1___awmod)+02h
  9443  0DFA  087A               	movf	(print_ADCValue@adcValue),w
  9444  0DFB  01F2               	clrf	0+(?i1___awmod)+02h
  9445  0DFC  07F2               	addwf	0+(?i1___awmod)+02h
  9446                           
  9447  0DFD  120A  158A  21EE   	fcall	i1___awmod
              120A  158A         
  9448  0E02  0870               	movf	(0+(?i1___awmod)),w
  9449  0E03  3E30               	addlw	030h
  9450  0E04  00FC               	movwf	(??_print_ADCValue+0)+0
  9451  0E05  087C               	movf	(??_print_ADCValue+0)+0,w
  9452  0E06  1283               	bcf	status, 5	;RP0=0, select bank0
  9453  0E07  1303               	bcf	status, 6	;RP1=0, select bank0
  9454  0E08  00A1               	movwf	0+(print_ADCValue@data)+01h
  9455                           	line	45
  9456                           	
  9457  0E09                     i1l13997:	
  9458                           ;ADC.c: 45: adcValue = adcValue / 10;
  9459  0E09  300A               	movlw	low(0Ah)
  9460  0E0A  00F0               	movwf	(?i1___awdiv)
  9461  0E0B  3000               	movlw	high(0Ah)
  9462  0E0C  00F1               	movwf	((?i1___awdiv))+1
  9463  0E0D  087B               	movf	(print_ADCValue@adcValue+1),w
  9464  0E0E  01F3               	clrf	1+(?i1___awdiv)+02h
  9465  0E0F  07F3               	addwf	1+(?i1___awdiv)+02h
  9466  0E10  087A               	movf	(print_ADCValue@adcValue),w
  9467  0E11  01F2               	clrf	0+(?i1___awdiv)+02h
  9468  0E12  07F2               	addwf	0+(?i1___awdiv)+02h
  9469                           
  9470  0E13  120A  158A  22B0   	fcall	i1___awdiv
              120A  158A         
  9471  0E18  0871               	movf	(1+(?i1___awdiv)),w
  9472  0E19  01FB               	clrf	(print_ADCValue@adcValue+1)
  9473  0E1A  07FB               	addwf	(print_ADCValue@adcValue+1)
  9474  0E1B  0870               	movf	(0+(?i1___awdiv)),w
  9475  0E1C  01FA               	clrf	(print_ADCValue@adcValue)
  9476  0E1D  07FA               	addwf	(print_ADCValue@adcValue)
  9477                           
  9478                           	line	47
  9479                           	
  9480  0E1E                     i1l13999:	
  9481                           ;ADC.c: 47: data[0] = (adcValue % 10) + 0x30;
  9482  0E1E  300A               	movlw	low(0Ah)
  9483  0E1F  00F0               	movwf	(?i1___awmod)
  9484  0E20  3000               	movlw	high(0Ah)
  9485  0E21  00F1               	movwf	((?i1___awmod))+1
  9486  0E22  087B               	movf	(print_ADCValue@adcValue+1),w
  9487  0E23  01F3               	clrf	1+(?i1___awmod)+02h
  9488  0E24  07F3               	addwf	1+(?i1___awmod)+02h
  9489  0E25  087A               	movf	(print_ADCValue@adcValue),w
  9490  0E26  01F2               	clrf	0+(?i1___awmod)+02h
  9491  0E27  07F2               	addwf	0+(?i1___awmod)+02h
  9492                           
  9493  0E28  120A  158A  21EE   	fcall	i1___awmod
              120A  158A         
  9494  0E2D  0870               	movf	(0+(?i1___awmod)),w
  9495  0E2E  3E30               	addlw	030h
  9496  0E2F  00FC               	movwf	(??_print_ADCValue+0)+0
  9497  0E30  087C               	movf	(??_print_ADCValue+0)+0,w
  9498  0E31  1283               	bcf	status, 5	;RP0=0, select bank0
  9499  0E32  1303               	bcf	status, 6	;RP1=0, select bank0
  9500  0E33  00A0               	movwf	(print_ADCValue@data)
  9501                           	line	48
  9502                           	
  9503  0E34                     i1l14001:	
  9504                           ;ADC.c: 48: adcValue = adcValue / 10;
  9505  0E34  300A               	movlw	low(0Ah)
  9506  0E35  00F0               	movwf	(?i1___awdiv)
  9507  0E36  3000               	movlw	high(0Ah)
  9508  0E37  00F1               	movwf	((?i1___awdiv))+1
  9509  0E38  087B               	movf	(print_ADCValue@adcValue+1),w
  9510  0E39  01F3               	clrf	1+(?i1___awdiv)+02h
  9511  0E3A  07F3               	addwf	1+(?i1___awdiv)+02h
  9512  0E3B  087A               	movf	(print_ADCValue@adcValue),w
  9513  0E3C  01F2               	clrf	0+(?i1___awdiv)+02h
  9514  0E3D  07F2               	addwf	0+(?i1___awdiv)+02h
  9515                           
  9516  0E3E  120A  158A  22B0   	fcall	i1___awdiv
              120A  158A         
  9517  0E43  0871               	movf	(1+(?i1___awdiv)),w
  9518  0E44  01FB               	clrf	(print_ADCValue@adcValue+1)
  9519  0E45  07FB               	addwf	(print_ADCValue@adcValue+1)
  9520  0E46  0870               	movf	(0+(?i1___awdiv)),w
  9521  0E47  01FA               	clrf	(print_ADCValue@adcValue)
  9522  0E48  07FA               	addwf	(print_ADCValue@adcValue)
  9523                           
  9524                           	line	50
  9525                           	
  9526  0E49                     i1l14003:	
  9527                           ;ADC.c: 50: lcd_writeThisStringAt(1,0,data);
  9528  0E49  1003               	clrc
  9529  0E4A  3000               	movlw	0
  9530  0E4B  1803               	btfsc	status,0
  9531  0E4C  3001               	movlw	1
  9532  0E4D  00F5               	movwf	(?i1_lcd_writeThisStringAt)
  9533  0E4E  3020               	movlw	(print_ADCValue@data&0ffh)
  9534  0E4F  00F6               	movwf	0+(?i1_lcd_writeThisStringAt)+01h
  9535  0E50  3000               	movlw	(0x0/2)
  9536  0E51  00F7               	movwf	1+(?i1_lcd_writeThisStringAt)+01h
  9537  0E52  3001               	movlw	(01h)
  9538  0E53  160A  118A  25DA   	fcall	i1_lcd_writeThisStringAt
              120A  158A         
  9539                           	line	52
  9540                           	
  9541  0E58                     i1l886:	
  9542  0E58  0008               	return
  9543                           	opt stack 0
  9544                           GLOBAL	__end_of_print_ADCValue
  9545  0E59                     	__end_of_print_ADCValue:
  9546 ;; =============== function _print_ADCValue ends ============
  9547                           
  9548                           	signat	_print_ADCValue,4216
  9549                           	global	i1_lcd_writeThisDigit
  9550                           psect	text1672,local,class=CODE,delta=2
  9551                           global __ptext1672
  9552  0B92                     __ptext1672:
  9553                           
  9554 ;; *************** function i1_lcd_writeThisDigit *****************
  9555 ;; Defined at:
  9556 ;;		line 125 in file "lcd.c"
  9557 ;; Parameters:    Size  Location     Type
  9558 ;;  lcd_writeThi    1    wreg     unsigned char 
  9559 ;; Auto vars:     Size  Location     Type
  9560 ;;  lcd_writeThi    1    4[BANK0 ] unsigned char 
  9561 ;;  lcd_writeThi    4    0[BANK0 ] unsigned char [4]
  9562 ;; Return value:  Size  Location     Type
  9563 ;;		None               void
  9564 ;; Registers used:
  9565 ;;		wreg, fsr0l, fsr0h, status,2, status,0, btemp+0, btemp+1, pclath, cstack
  9566 ;; Tracked objects:
  9567 ;;		On entry : 0/0
  9568 ;;		On exit  : 0/0
  9569 ;;		Unchanged: 0/0
  9570 ;; Data sizes:     COMMON   BANK0   BANK1   BANK3   BANK2
  9571 ;;      Params:         0       0       0       0       0
  9572 ;;      Locals:         0       5       0       0       0
  9573 ;;      Temps:          3       0       0       0       0
  9574 ;;      Totals:         3       5       0       0       0
  9575 ;;Total ram usage:        8 bytes
  9576 ;; Hardware stack levels used:    1
  9577 ;; Hardware stack levels required when called:    2
  9578 ;; This function calls:
  9579 ;;		i1___awmod
  9580 ;;		i1___awdiv
  9581 ;;		i1_lcd_puts
  9582 ;; This function is called by:
  9583 ;;		i1_UpdateScreen
  9584 ;; This function uses a non-reentrant model
  9585 ;;
  9586                           psect	text1672
  9587                           	file	"lcd.c"
  9588                           	line	125
  9589                           	global	__size_ofi1_lcd_writeThisDigit
  9590  0086                     	__size_ofi1_lcd_writeThisDigit	equ	__end_ofi1_lcd_writeThisDigit-i1_lcd_writeThisDigit
  9591                           	
  9592  0B92                     i1_lcd_writeThisDigit:	
  9593 ;; hardware stack exceeded
  9594                           	opt	stack 0
  9595                           ; Regs used in i1_lcd_writeThisDigit: [wreg-fsr0h+status,2-btemp+1+pclath+cstack]
  9596                           ;i1lcd_writeThisDigit@data stored from wreg
  9597  0B92  1283               	bcf	status, 5	;RP0=0, select bank0
  9598  0B93  1303               	bcf	status, 6	;RP1=0, select bank0
  9599  0B94  00A4               	movwf	(i1lcd_writeThisDigit@data)
  9600                           	line	126
  9601                           	
  9602  0B95                     i1l14241:	
  9603                           ;lcd.c: 126: UByte string[4]= {'0','0','0','\0'};
  9604  0B95  085E               	movf	(lcd_writeThisDigit@F912+3),w
  9605  0B96  00A3               	movwf	(i1lcd_writeThisDigit@string+3)
  9606  0B97  085D               	movf	(lcd_writeThisDigit@F912+2),w
  9607  0B98  00A2               	movwf	(i1lcd_writeThisDigit@string+2)
  9608  0B99  085C               	movf	(lcd_writeThisDigit@F912+1),w
  9609  0B9A  00A1               	movwf	(i1lcd_writeThisDigit@string+1)
  9610  0B9B  085B               	movf	(lcd_writeThisDigit@F912),w
  9611  0B9C  00A0               	movwf	(i1lcd_writeThisDigit@string)
  9612                           
  9613                           	line	128
  9614                           	
  9615  0B9D                     i1l14243:	
  9616                           ;lcd.c: 128: string[2] = data%10 + 0x30;
  9617  0B9D  300A               	movlw	low(0Ah)
  9618  0B9E  00F0               	movwf	(?i1___awmod)
  9619  0B9F  3000               	movlw	high(0Ah)
  9620  0BA0  00F1               	movwf	((?i1___awmod))+1
  9621  0BA1  0824               	movf	(i1lcd_writeThisDigit@data),w
  9622  0BA2  00F9               	movwf	(??i1_lcd_writeThisDigit+0)+0
  9623  0BA3  01FA               	clrf	(??i1_lcd_writeThisDigit+0)+0+1
  9624  0BA4  0879               	movf	0+(??i1_lcd_writeThisDigit+0)+0,w
  9625  0BA5  00F2               	movwf	0+(?i1___awmod)+02h
  9626  0BA6  087A               	movf	1+(??i1_lcd_writeThisDigit+0)+0,w
  9627  0BA7  00F3               	movwf	1+(?i1___awmod)+02h
  9628  0BA8  120A  158A  21EE   	fcall	i1___awmod
              120A  158A         
  9629  0BAD  0870               	movf	(0+(?i1___awmod)),w
  9630  0BAE  3E30               	addlw	030h
  9631  0BAF  00FB               	movwf	(??i1_lcd_writeThisDigit+2)+0
  9632  0BB0  087B               	movf	(??i1_lcd_writeThisDigit+2)+0,w
  9633  0BB1  1283               	bcf	status, 5	;RP0=0, select bank0
  9634  0BB2  1303               	bcf	status, 6	;RP1=0, select bank0
  9635  0BB3  00A2               	movwf	0+(i1lcd_writeThisDigit@string)+02h
  9636                           	line	129
  9637                           	
  9638  0BB4                     i1l14245:	
  9639                           ;lcd.c: 129: data=data/10;
  9640  0BB4  300A               	movlw	low(0Ah)
  9641  0BB5  00F0               	movwf	(?i1___awdiv)
  9642  0BB6  3000               	movlw	high(0Ah)
  9643  0BB7  00F1               	movwf	((?i1___awdiv))+1
  9644  0BB8  0824               	movf	(i1lcd_writeThisDigit@data),w
  9645  0BB9  00F9               	movwf	(??i1_lcd_writeThisDigit+0)+0
  9646  0BBA  01FA               	clrf	(??i1_lcd_writeThisDigit+0)+0+1
  9647  0BBB  0879               	movf	0+(??i1_lcd_writeThisDigit+0)+0,w
  9648  0BBC  00F2               	movwf	0+(?i1___awdiv)+02h
  9649  0BBD  087A               	movf	1+(??i1_lcd_writeThisDigit+0)+0,w
  9650  0BBE  00F3               	movwf	1+(?i1___awdiv)+02h
  9651  0BBF  120A  158A  22B0   	fcall	i1___awdiv
              120A  158A         
  9652  0BC4  0870               	movf	(0+(?i1___awdiv)),w
  9653  0BC5  00FB               	movwf	(??i1_lcd_writeThisDigit+2)+0
  9654  0BC6  087B               	movf	(??i1_lcd_writeThisDigit+2)+0,w
  9655  0BC7  1283               	bcf	status, 5	;RP0=0, select bank0
  9656  0BC8  1303               	bcf	status, 6	;RP1=0, select bank0
  9657  0BC9  00A4               	movwf	(i1lcd_writeThisDigit@data)
  9658                           	line	130
  9659                           	
  9660  0BCA                     i1l14247:	
  9661                           ;lcd.c: 130: string[1] = data%10 + 0x30;
  9662  0BCA  300A               	movlw	low(0Ah)
  9663  0BCB  00F0               	movwf	(?i1___awmod)
  9664  0BCC  3000               	movlw	high(0Ah)
  9665  0BCD  00F1               	movwf	((?i1___awmod))+1
  9666  0BCE  0824               	movf	(i1lcd_writeThisDigit@data),w
  9667  0BCF  00F9               	movwf	(??i1_lcd_writeThisDigit+0)+0
  9668  0BD0  01FA               	clrf	(??i1_lcd_writeThisDigit+0)+0+1
  9669  0BD1  0879               	movf	0+(??i1_lcd_writeThisDigit+0)+0,w
  9670  0BD2  00F2               	movwf	0+(?i1___awmod)+02h
  9671  0BD3  087A               	movf	1+(??i1_lcd_writeThisDigit+0)+0,w
  9672  0BD4  00F3               	movwf	1+(?i1___awmod)+02h
  9673  0BD5  120A  158A  21EE   	fcall	i1___awmod
              120A  158A         
  9674  0BDA  0870               	movf	(0+(?i1___awmod)),w
  9675  0BDB  3E30               	addlw	030h
  9676  0BDC  00FB               	movwf	(??i1_lcd_writeThisDigit+2)+0
  9677  0BDD  087B               	movf	(??i1_lcd_writeThisDigit+2)+0,w
  9678  0BDE  1283               	bcf	status, 5	;RP0=0, select bank0
  9679  0BDF  1303               	bcf	status, 6	;RP1=0, select bank0
  9680  0BE0  00A1               	movwf	0+(i1lcd_writeThisDigit@string)+01h
  9681                           	line	131
  9682                           	
  9683  0BE1                     i1l14249:	
  9684                           ;lcd.c: 131: data = data/10;
  9685  0BE1  300A               	movlw	low(0Ah)
  9686  0BE2  00F0               	movwf	(?i1___awdiv)
  9687  0BE3  3000               	movlw	high(0Ah)
  9688  0BE4  00F1               	movwf	((?i1___awdiv))+1
  9689  0BE5  0824               	movf	(i1lcd_writeThisDigit@data),w
  9690  0BE6  00F9               	movwf	(??i1_lcd_writeThisDigit+0)+0
  9691  0BE7  01FA               	clrf	(??i1_lcd_writeThisDigit+0)+0+1
  9692  0BE8  0879               	movf	0+(??i1_lcd_writeThisDigit+0)+0,w
  9693  0BE9  00F2               	movwf	0+(?i1___awdiv)+02h
  9694  0BEA  087A               	movf	1+(??i1_lcd_writeThisDigit+0)+0,w
  9695  0BEB  00F3               	movwf	1+(?i1___awdiv)+02h
  9696  0BEC  120A  158A  22B0   	fcall	i1___awdiv
              120A  158A         
  9697  0BF1  0870               	movf	(0+(?i1___awdiv)),w
  9698  0BF2  00FB               	movwf	(??i1_lcd_writeThisDigit+2)+0
  9699  0BF3  087B               	movf	(??i1_lcd_writeThisDigit+2)+0,w
  9700  0BF4  1283               	bcf	status, 5	;RP0=0, select bank0
  9701  0BF5  1303               	bcf	status, 6	;RP1=0, select bank0
  9702  0BF6  00A4               	movwf	(i1lcd_writeThisDigit@data)
  9703                           	line	132
  9704                           	
  9705  0BF7                     i1l14251:	
  9706                           ;lcd.c: 132: string[0] = data%10 + 0x30;
  9707  0BF7  300A               	movlw	low(0Ah)
  9708  0BF8  00F0               	movwf	(?i1___awmod)
  9709  0BF9  3000               	movlw	high(0Ah)
  9710  0BFA  00F1               	movwf	((?i1___awmod))+1
  9711  0BFB  0824               	movf	(i1lcd_writeThisDigit@data),w
  9712  0BFC  00F9               	movwf	(??i1_lcd_writeThisDigit+0)+0
  9713  0BFD  01FA               	clrf	(??i1_lcd_writeThisDigit+0)+0+1
  9714  0BFE  0879               	movf	0+(??i1_lcd_writeThisDigit+0)+0,w
  9715  0BFF  00F2               	movwf	0+(?i1___awmod)+02h
  9716  0C00  087A               	movf	1+(??i1_lcd_writeThisDigit+0)+0,w
  9717  0C01  00F3               	movwf	1+(?i1___awmod)+02h
  9718  0C02  120A  158A  21EE   	fcall	i1___awmod
              120A  158A         
  9719  0C07  0870               	movf	(0+(?i1___awmod)),w
  9720  0C08  3E30               	addlw	030h
  9721  0C09  00FB               	movwf	(??i1_lcd_writeThisDigit+2)+0
  9722  0C0A  087B               	movf	(??i1_lcd_writeThisDigit+2)+0,w
  9723  0C0B  1283               	bcf	status, 5	;RP0=0, select bank0
  9724  0C0C  1303               	bcf	status, 6	;RP1=0, select bank0
  9725  0C0D  00A0               	movwf	(i1lcd_writeThisDigit@string)
  9726                           	line	134
  9727                           	
  9728  0C0E                     i1l14253:	
  9729                           ;lcd.c: 134: lcd_puts(string);
  9730  0C0E  3020               	movlw	(i1lcd_writeThisDigit@string&0ffh)
  9731  0C0F  00F3               	movwf	(?i1_lcd_puts)
  9732  0C10  3000               	movlw	(0x0/2)
  9733  0C11  00F4               	movwf	(?i1_lcd_puts+1)
  9734  0C12  160A  118A  2668   	fcall	i1_lcd_puts
              120A  158A         
  9735                           	line	136
  9736                           	
  9737  0C17                     i1l7298:	
  9738  0C17  0008               	return
  9739                           	opt stack 0
  9740                           GLOBAL	__end_ofi1_lcd_writeThisDigit
  9741  0C18                     	__end_ofi1_lcd_writeThisDigit:
  9742 ;; =============== function i1_lcd_writeThisDigit ends ============
  9743                           
  9744                           	signat	i1_lcd_writeThisDigit,88
  9745                           	global	i1_lcd_writeThisStringAt
  9746                           psect	text1673,local,class=CODE,delta=2
  9747                           global __ptext1673
  9748  15DA                     __ptext1673:
  9749                           
  9750 ;; *************** function i1_lcd_writeThisStringAt *****************
  9751 ;; Defined at:
  9752 ;;		line 113 in file "lcd.c"
  9753 ;; Parameters:    Size  Location     Type
  9754 ;;  lcd_writeThi    1    wreg     unsigned char 
  9755 ;;  lcd_writeThi    1    5[COMMON] unsigned char 
  9756 ;;  lcd_writeThi    2    6[COMMON] PTR unsigned char 
  9757 ;;		 -> STR_19(3), STR_18(4), STR_17(13), STR_16(3), 
  9758 ;;		 -> STR_15(3), STR_14(16), STR_13(3), STR_12(3), 
  9759 ;;		 -> STR_11(13), STR_4(8), STR_3(15), STR_2(14), 
  9760 ;;		 -> STR_1(9), print_ADCValue@data(5), 
  9761 ;; Auto vars:     Size  Location     Type
  9762 ;;  lcd_writeThi    1    9[COMMON] unsigned char 
  9763 ;; Return value:  Size  Location     Type
  9764 ;;		None               void
  9765 ;; Registers used:
  9766 ;;		wreg, fsr0l, fsr0h, status,2, status,0, btemp+0, btemp+1, pclath, cstack
  9767 ;; Tracked objects:
  9768 ;;		On entry : 0/0
  9769 ;;		On exit  : 0/0
  9770 ;;		Unchanged: 0/0
  9771 ;; Data sizes:     COMMON   BANK0   BANK1   BANK3   BANK2
  9772 ;;      Params:         3       0       0       0       0
  9773 ;;      Locals:         1       0       0       0       0
  9774 ;;      Temps:          1       0       0       0       0
  9775 ;;      Totals:         5       0       0       0       0
  9776 ;;Total ram usage:        5 bytes
  9777 ;; Hardware stack levels used:    1
  9778 ;; Hardware stack levels required when called:    2
  9779 ;; This function calls:
  9780 ;;		i1_goto_XY
  9781 ;;		i1_lcd_puts
  9782 ;; This function is called by:
  9783 ;;		_print_ADCValue
  9784 ;;		_ISR
  9785 ;;		i1_UpdateScreen
  9786 ;; This function uses a non-reentrant model
  9787 ;;
  9788                           psect	text1673
  9789                           	file	"lcd.c"
  9790                           	line	113
  9791                           	global	__size_ofi1_lcd_writeThisStringAt
  9792  0017                     	__size_ofi1_lcd_writeThisStringAt	equ	__end_ofi1_lcd_writeThisStringAt-i1_lcd_writeThis
                                 StringAt
  9793                           	
  9794  15DA                     i1_lcd_writeThisStringAt:	
  9795 ;; hardware stack exceeded
  9796                           	opt	stack 0
  9797                           ; Regs used in i1_lcd_writeThisStringAt: [wreg-fsr0h+status,2-btemp+1+pclath+cstack]
  9798                           ;i1lcd_writeThisStringAt@row stored from wreg
  9799  15DA  00F9               	movwf	(i1lcd_writeThisStringAt@row)
  9800                           	line	114
  9801                           	
  9802  15DB                     i1l14237:	
  9803                           ;lcd.c: 114: goto_XY(row,column);
  9804  15DB  0875               	movf	(i1lcd_writeThisStringAt@column),w
  9805  15DC  00F8               	movwf	(??i1_lcd_writeThisStringAt+0)+0
  9806  15DD  0878               	movf	(??i1_lcd_writeThisStringAt+0)+0,w
  9807  15DE  00F3               	movwf	(?i1_goto_XY)
  9808  15DF  0879               	movf	(i1lcd_writeThisStringAt@row),w
  9809  15E0  160A  118A  260C   	fcall	i1_goto_XY
              160A  118A         
  9810                           	line	115
  9811                           	
  9812  15E5                     i1l14239:	
  9813                           ;lcd.c: 115: lcd_puts(ptr);
  9814  15E5  0877               	movf	(i1lcd_writeThisStringAt@ptr+1),w
  9815  15E6  01F4               	clrf	(?i1_lcd_puts+1)
  9816  15E7  07F4               	addwf	(?i1_lcd_puts+1)
  9817  15E8  0876               	movf	(i1lcd_writeThisStringAt@ptr),w
  9818  15E9  01F3               	clrf	(?i1_lcd_puts)
  9819  15EA  07F3               	addwf	(?i1_lcd_puts)
  9820                           
  9821  15EB  160A  118A  2668   	fcall	i1_lcd_puts
              160A  118A         
  9822                           	line	116
  9823                           	
  9824  15F0                     i1l7290:	
  9825  15F0  0008               	return
  9826                           	opt stack 0
  9827                           GLOBAL	__end_ofi1_lcd_writeThisStringAt
  9828  15F1                     	__end_ofi1_lcd_writeThisStringAt:
  9829 ;; =============== function i1_lcd_writeThisStringAt ends ============
  9830                           
  9831                           	signat	i1_lcd_writeThisStringAt,88
  9832                           	global	i1_lcd_clear
  9833                           psect	text1674,local,class=CODE,delta=2
  9834                           global __ptext1674
  9835  1562                     __ptext1674:
  9836                           
  9837 ;; *************** function i1_lcd_clear *****************
  9838 ;; Defined at:
  9839 ;;		line 101 in file "lcd.c"
  9840 ;; Parameters:    Size  Location     Type
  9841 ;;		None
  9842 ;; Auto vars:     Size  Location     Type
  9843 ;;		None
  9844 ;; Return value:  Size  Location     Type
  9845 ;;		None               void
  9846 ;; Registers used:
  9847 ;;		wreg, status,2, status,0, pclath, cstack
  9848 ;; Tracked objects:
  9849 ;;		On entry : 0/0
  9850 ;;		On exit  : 0/0
  9851 ;;		Unchanged: 0/0
  9852 ;; Data sizes:     COMMON   BANK0   BANK1   BANK3   BANK2
  9853 ;;      Params:         0       0       0       0       0
  9854 ;;      Locals:         0       0       0       0       0
  9855 ;;      Temps:          0       0       0       0       0
  9856 ;;      Totals:         0       0       0       0       0
  9857 ;;Total ram usage:        0 bytes
  9858 ;; Hardware stack levels used:    1
  9859 ;; Hardware stack levels required when called:    1
  9860 ;; This function calls:
  9861 ;;		i1_lcd_cmd
  9862 ;; This function is called by:
  9863 ;;		_ISR
  9864 ;;		i1_UpdateScreen
  9865 ;; This function uses a non-reentrant model
  9866 ;;
  9867                           psect	text1674
  9868                           	file	"lcd.c"
  9869                           	line	101
  9870                           	global	__size_ofi1_lcd_clear
  9871  0007                     	__size_ofi1_lcd_clear	equ	__end_ofi1_lcd_clear-i1_lcd_clear
  9872                           	
  9873  1562                     i1_lcd_clear:	
  9874 ;; hardware stack exceeded
  9875                           	opt	stack 0
  9876                           ; Regs used in i1_lcd_clear: [wreg+status,2+status,0+pclath+cstack]
  9877                           	line	102
  9878                           	
  9879  1562                     i1l13193:	
  9880                           ;lcd.c: 102: lcd_cmd(0x01);
  9881  1562  3001               	movlw	(01h)
  9882  1563  120A  158A  209B   	fcall	i1_lcd_cmd
              160A  118A         
  9883                           	line	103
  9884                           	
  9885  1568                     i1l7284:	
  9886  1568  0008               	return
  9887                           	opt stack 0
  9888                           GLOBAL	__end_ofi1_lcd_clear
  9889  1569                     	__end_ofi1_lcd_clear:
  9890 ;; =============== function i1_lcd_clear ends ============
  9891                           
  9892                           	signat	i1_lcd_clear,88
  9893                           	global	i1_goto_XY
  9894                           psect	text1675,local,class=CODE,delta=2
  9895                           global __ptext1675
  9896  160C                     __ptext1675:
  9897                           
  9898 ;; *************** function i1_goto_XY *****************
  9899 ;; Defined at:
  9900 ;;		line 89 in file "lcd.c"
  9901 ;; Parameters:    Size  Location     Type
  9902 ;;  goto_XY         1    wreg     unsigned char 
  9903 ;;  goto_XY         1    3[COMMON] unsigned char 
  9904 ;; Auto vars:     Size  Location     Type
  9905 ;;  goto_XY         1    4[COMMON] unsigned char 
  9906 ;; Return value:  Size  Location     Type
  9907 ;;		None               void
  9908 ;; Registers used:
  9909 ;;		wreg, status,2, status,0, pclath, cstack
  9910 ;; Tracked objects:
  9911 ;;		On entry : 0/0
  9912 ;;		On exit  : 0/0
  9913 ;;		Unchanged: 0/0
  9914 ;; Data sizes:     COMMON   BANK0   BANK1   BANK3   BANK2
  9915 ;;      Params:         1       0       0       0       0
  9916 ;;      Locals:         1       0       0       0       0
  9917 ;;      Temps:          0       0       0       0       0
  9918 ;;      Totals:         2       0       0       0       0
  9919 ;;Total ram usage:        2 bytes
  9920 ;; Hardware stack levels used:    1
  9921 ;; Hardware stack levels required when called:    1
  9922 ;; This function calls:
  9923 ;;		i1_lcd_cmd
  9924 ;; This function is called by:
  9925 ;;		i1_lcd_writeThisStringAt
  9926 ;; This function uses a non-reentrant model
  9927 ;;
  9928                           psect	text1675
  9929                           	file	"lcd.c"
  9930                           	line	89
  9931                           	global	__size_ofi1_goto_XY
  9932  001C                     	__size_ofi1_goto_XY	equ	__end_ofi1_goto_XY-i1_goto_XY
  9933                           	
  9934  160C                     i1_goto_XY:	
  9935 ;; hardware stack exceeded
  9936                           	opt	stack 0
  9937                           ; Regs used in i1_goto_XY: [wreg+status,2+status,0+pclath+cstack]
  9938                           ;i1goto_XY@row stored from wreg
  9939  160C  00F4               	movwf	(i1goto_XY@row)
  9940                           	line	90
  9941                           	
  9942  160D                     i1l13185:	
  9943                           ;lcd.c: 90: if(row == 0)
  9944  160D  08F4               	movf	(i1goto_XY@row),f
  9945  160E  1D03               	skipz
  9946  160F  2E11               	goto	u463_21
  9947  1610  2E12               	goto	u463_20
  9948  1611                     u463_21:
  9949  1611  2E1A               	goto	i1l7278
  9950  1612                     u463_20:
  9951                           	line	92
  9952                           	
  9953  1612                     i1l13187:	
  9954                           ;lcd.c: 91: {
  9955                           ;lcd.c: 92: lcd_cmd(0x80 + column);
  9956  1612  0873               	movf	(i1goto_XY@column),w
  9957  1613  3E80               	addlw	080h
  9958  1614  120A  158A  209B   	fcall	i1_lcd_cmd
              160A  118A         
  9959                           	line	93
  9960                           ;lcd.c: 93: }
  9961  1619  2E27               	goto	i1l7279
  9962                           	line	94
  9963                           	
  9964  161A                     i1l7278:	
  9965                           	
  9966  161A                     i1l13189:	
  9967                           ;lcd.c: 94: else if(row == 1)
  9968  161A  0874               	movf	(i1goto_XY@row),w
  9969  161B  3A01               	xorlw	01h
  9970  161C  1D03               	skipz
  9971  161D  2E1F               	goto	u464_21
  9972  161E  2E20               	goto	u464_20
  9973  161F                     u464_21:
  9974  161F  2E27               	goto	i1l7280
  9975  1620                     u464_20:
  9976                           	line	96
  9977                           	
  9978  1620                     i1l13191:	
  9979                           ;lcd.c: 95: {
  9980                           ;lcd.c: 96: lcd_cmd(0xC0 + column);
  9981  1620  0873               	movf	(i1goto_XY@column),w
  9982  1621  3EC0               	addlw	0C0h
  9983  1622  120A  158A  209B   	fcall	i1_lcd_cmd
              160A  118A         
  9984                           	line	97
  9985                           	
  9986  1627                     i1l7280:	
  9987                           	line	98
  9988                           	
  9989  1627                     i1l7279:	
  9990                           	
  9991  1627                     i1l7281:	
  9992  1627  0008               	return
  9993                           	opt stack 0
  9994                           GLOBAL	__end_ofi1_goto_XY
  9995  1628                     	__end_ofi1_goto_XY:
  9996 ;; =============== function i1_goto_XY ends ============
  9997                           
  9998                           	signat	i1_goto_XY,88
  9999                           	global	i1_lcd_puts
 10000                           psect	text1676,local,class=CODE,delta=2
 10001                           global __ptext1676
 10002  1668                     __ptext1676:
 10003                           
 10004 ;; *************** function i1_lcd_puts *****************
 10005 ;; Defined at:
 10006 ;;		line 80 in file "lcd.c"
 10007 ;; Parameters:    Size  Location     Type
 10008 ;;  lcd_puts        2    3[COMMON] PTR unsigned char 
 10009 ;;		 -> i1lcd_writeThisDigit@string(4), STR_23(16), STR_22(14), STR_21(15), 
 10010 ;;		 -> STR_20(17), STR_19(3), STR_18(4), STR_17(13), 
 10011 ;;		 -> STR_16(3), STR_15(3), STR_14(16), STR_13(3), 
 10012 ;;		 -> STR_12(3), STR_11(13), STR_10(15), STR_9(17), 
 10013 ;;		 -> STR_8(15), STR_7(16), STR_6(13), STR_5(8), 
 10014 ;;		 -> STR_4(8), STR_3(15), STR_2(14), STR_1(9), 
 10015 ;;		 -> print_ADCValue@data(5), 
 10016 ;; Auto vars:     Size  Location     Type
 10017 ;;		None
 10018 ;; Return value:  Size  Location     Type
 10019 ;;		None               void
 10020 ;; Registers used:
 10021 ;;		wreg, fsr0l, fsr0h, status,2, status,0, btemp+0, btemp+1, pclath, cstack
 10022 ;; Tracked objects:
 10023 ;;		On entry : 0/0
 10024 ;;		On exit  : 0/0
 10025 ;;		Unchanged: 0/0
 10026 ;; Data sizes:     COMMON   BANK0   BANK1   BANK3   BANK2
 10027 ;;      Params:         2       0       0       0       0
 10028 ;;      Locals:         0       0       0       0       0
 10029 ;;      Temps:          0       0       0       0       0
 10030 ;;      Totals:         2       0       0       0       0
 10031 ;;Total ram usage:        2 bytes
 10032 ;; Hardware stack levels used:    1
 10033 ;; Hardware stack levels required when called:    1
 10034 ;; This function calls:
 10035 ;;		i1_lcd_write
 10036 ;; This function is called by:
 10037 ;;		i1_lcd_writeThisStringAt
 10038 ;;		i1_lcd_writeThisDigit
 10039 ;; This function uses a non-reentrant model
 10040 ;;
 10041                           psect	text1676
 10042                           	file	"lcd.c"
 10043                           	line	80
 10044                           	global	__size_ofi1_lcd_puts
 10045  0024                     	__size_ofi1_lcd_puts	equ	__end_ofi1_lcd_puts-i1_lcd_puts
 10046                           	
 10047  1668                     i1_lcd_puts:	
 10048 ;; hardware stack exceeded
 10049                           	opt	stack 0
 10050                           ; Regs used in i1_lcd_puts: [wreg-fsr0h+status,2-btemp+1+pclath+cstack]
 10051                           	line	81
 10052                           	
 10053  1668                     i1l14229:	
 10054                           ;lcd.c: 81: while(*ptr != '\0')
 10055  1668  2E7D               	goto	i1l7272
 10056                           	
 10057  1669                     i1l7273:	
 10058                           	line	83
 10059                           	
 10060  1669                     i1l14231:	
 10061                           ;lcd.c: 82: {
 10062                           ;lcd.c: 83: lcd_write(*ptr++);
 10063  1669  0874               	movf	(i1lcd_puts@ptr+1),w
 10064  166A  00FF               	movwf	btemp+1
 10065  166B  0873               	movf	(i1lcd_puts@ptr),w
 10066  166C  0084               	movwf	fsr0
 10067  166D  120A  118A  2015   	fcall	stringtab
              160A  118A         
 10068  1672  120A  158A  205A   	fcall	i1_lcd_write
              160A  118A         
 10069                           	
 10070  1677                     i1l14233:	
 10071  1677  3001               	movlw	low(01h)
 10072  1678  07F3               	addwf	(i1lcd_puts@ptr),f
 10073  1679  1803               	skipnc
 10074  167A  0AF4               	incf	(i1lcd_puts@ptr+1),f
 10075  167B  3000               	movlw	high(01h)
 10076  167C  07F4               	addwf	(i1lcd_puts@ptr+1),f
 10077                           	line	84
 10078                           	
 10079  167D                     i1l7272:	
 10080                           	line	81
 10081                           	
 10082  167D                     i1l14235:	
 10083  167D  0874               	movf	(i1lcd_puts@ptr+1),w
 10084  167E  00FF               	movwf	btemp+1
 10085  167F  0873               	movf	(i1lcd_puts@ptr),w
 10086  1680  0084               	movwf	fsr0
 10087  1681  120A  118A  2015   	fcall	stringtab
              160A  118A         
 10088  1686  3800               	iorlw	0
 10089  1687  1D03               	skipz
 10090  1688  2E8A               	goto	u622_21
 10091  1689  2E8B               	goto	u622_20
 10092  168A                     u622_21:
 10093  168A  2E69               	goto	i1l7273
 10094  168B                     u622_20:
 10095                           	
 10096  168B                     i1l7274:	
 10097                           	line	85
 10098                           	
 10099  168B                     i1l7275:	
 10100  168B  0008               	return
 10101                           	opt stack 0
 10102                           GLOBAL	__end_ofi1_lcd_puts
 10103  168C                     	__end_ofi1_lcd_puts:
 10104 ;; =============== function i1_lcd_puts ends ============
 10105                           
 10106                           	signat	i1_lcd_puts,88
 10107                           	global	i1_lcd_cmd
 10108                           psect	text1677,local,class=CODE,delta=2
 10109                           global __ptext1677
 10110  089B                     __ptext1677:
 10111                           
 10112 ;; *************** function i1_lcd_cmd *****************
 10113 ;; Defined at:
 10114 ;;		line 50 in file "lcd.c"
 10115 ;; Parameters:    Size  Location     Type
 10116 ;;  lcd_cmd         1    wreg     unsigned char 
 10117 ;; Auto vars:     Size  Location     Type
 10118 ;;  lcd_cmd         1    2[COMMON] unsigned char 
 10119 ;; Return value:  Size  Location     Type
 10120 ;;		None               void
 10121 ;; Registers used:
 10122 ;;		wreg, status,2, status,0
 10123 ;; Tracked objects:
 10124 ;;		On entry : 0/0
 10125 ;;		On exit  : 0/0
 10126 ;;		Unchanged: 0/0
 10127 ;; Data sizes:     COMMON   BANK0   BANK1   BANK3   BANK2
 10128 ;;      Params:         0       0       0       0       0
 10129 ;;      Locals:         1       0       0       0       0
 10130 ;;      Temps:          2       0       0       0       0
 10131 ;;      Totals:         3       0       0       0       0
 10132 ;;Total ram usage:        3 bytes
 10133 ;; Hardware stack levels used:    1
 10134 ;; This function calls:
 10135 ;;		Nothing
 10136 ;; This function is called by:
 10137 ;;		i1_goto_XY
 10138 ;;		i1_lcd_clear
 10139 ;; This function uses a non-reentrant model
 10140 ;;
 10141                           psect	text1677
 10142                           	file	"lcd.c"
 10143                           	line	50
 10144                           	global	__size_ofi1_lcd_cmd
 10145  0041                     	__size_ofi1_lcd_cmd	equ	__end_ofi1_lcd_cmd-i1_lcd_cmd
 10146                           	
 10147  089B                     i1_lcd_cmd:	
 10148 ;; hardware stack exceeded
 10149                           	opt	stack 0
 10150                           ; Regs used in i1_lcd_cmd: [wreg+status,2+status,0]
 10151                           ;i1lcd_cmd@cmnd stored from wreg
 10152                           	line	52
 10153  089B  00F2               	movwf	(i1lcd_cmd@cmnd)
 10154                           	
 10155  089C                     i1l13155:	
 10156                           ;lcd.c: 52: PORTD = ((cmnd >> 4)& 0x0F);
 10157  089C  0872               	movf	(i1lcd_cmd@cmnd),w
 10158  089D  00F0               	movwf	(??i1_lcd_cmd+0)+0
 10159  089E  3004               	movlw	04h
 10160  089F                     u460_25:
 10161  089F  1003               	clrc
 10162  08A0  0CF0               	rrf	(??i1_lcd_cmd+0)+0,f
 10163  08A1  3EFF               	addlw	-1
 10164  08A2  1D03               	skipz
 10165  08A3  289F               	goto	u460_25
 10166  08A4  0870               	movf	0+(??i1_lcd_cmd+0)+0,w
 10167  08A5  390F               	andlw	0Fh
 10168  08A6  1283               	bcf	status, 5	;RP0=0, select bank0
 10169  08A7  1303               	bcf	status, 6	;RP1=0, select bank0
 10170  08A8  0088               	movwf	(8)	;volatile
 10171                           	line	56
 10172                           	
 10173  08A9                     i1l13157:	
 10174                           ;lcd.c: 56: PORTD=( cmnd & 0x0F0 );
 10175  08A9  0872               	movf	(i1lcd_cmd@cmnd),w
 10176  08AA  39F0               	andlw	0F0h
 10177  08AB  0088               	movwf	(8)	;volatile
 10178                           	line	59
 10179                           	
 10180  08AC                     i1l13159:	
 10181                           ;lcd.c: 59: RE0=0;
 10182  08AC  1009               	bcf	(72/8),(72)&7
 10183                           	line	60
 10184                           	
 10185  08AD                     i1l13161:	
 10186                           ;lcd.c: 60: RW=0;
 10187  08AD  1683               	bsf	status, 5	;RP0=1, select bank1
 10188  08AE  1303               	bcf	status, 6	;RP1=0, select bank1
 10189  08AF  1114               	bcf	(1186/8)^080h,(1186)&7
 10190                           	line	61
 10191                           	
 10192  08B0                     i1l13163:	
 10193                           ;lcd.c: 61: RE1=1;
 10194  08B0  1283               	bcf	status, 5	;RP0=0, select bank0
 10195  08B1  1303               	bcf	status, 6	;RP1=0, select bank0
 10196  08B2  1489               	bsf	(73/8),(73)&7
 10197                           	line	62
 10198                           	
 10199  08B3                     i1l13165:	
 10200                           ;lcd.c: 62: _delay((unsigned long)((5)*(20000000/4000.0)));
 10201                           	opt asmopt_off
 10202  08B3  3021               movlw	33
 10203  08B4  00F1               movwf	((??i1_lcd_cmd+0)+0+1),f
 10204  08B5  3076               	movlw	118
 10205  08B6  00F0               movwf	((??i1_lcd_cmd+0)+0),f
 10206  08B7                     u723_27:
 10207  08B7  0BF0               	decfsz	((??i1_lcd_cmd+0)+0),f
 10208  08B8  28B7               	goto	u723_27
 10209  08B9  0BF1               	decfsz	((??i1_lcd_cmd+0)+0+1),f
 10210  08BA  28B7               	goto	u723_27
 10211  08BB  0064               	clrwdt
 10212                           opt asmopt_on
 10213                           
 10214                           	line	63
 10215                           	
 10216  08BC                     i1l13167:	
 10217                           ;lcd.c: 63: RE1=0;
 10218  08BC  1283               	bcf	status, 5	;RP0=0, select bank0
 10219  08BD  1303               	bcf	status, 6	;RP1=0, select bank0
 10220  08BE  1089               	bcf	(73/8),(73)&7
 10221                           	line	67
 10222                           	
 10223  08BF                     i1l13169:	
 10224                           ;lcd.c: 67: PORTD=( cmnd & 0x0F );
 10225  08BF  0872               	movf	(i1lcd_cmd@cmnd),w
 10226  08C0  390F               	andlw	0Fh
 10227  08C1  0088               	movwf	(8)	;volatile
 10228                           	line	70
 10229                           	
 10230  08C2                     i1l13171:	
 10231                           ;lcd.c: 70: PORTD=((cmnd<<4)&(0x0F0));
 10232  08C2  0872               	movf	(i1lcd_cmd@cmnd),w
 10233  08C3  00F0               	movwf	(??i1_lcd_cmd+0)+0
 10234  08C4  3003               	movlw	(04h)-1
 10235  08C5                     u461_25:
 10236  08C5  1003               	clrc
 10237  08C6  0DF0               	rlf	(??i1_lcd_cmd+0)+0,f
 10238  08C7  3EFF               	addlw	-1
 10239  08C8  1D03               	skipz
 10240  08C9  28C5               	goto	u461_25
 10241  08CA  1003               	clrc
 10242  08CB  0D70               	rlf	(??i1_lcd_cmd+0)+0,w
 10243  08CC  39F0               	andlw	0F0h
 10244  08CD  0088               	movwf	(8)	;volatile
 10245                           	line	73
 10246                           	
 10247  08CE                     i1l13173:	
 10248                           ;lcd.c: 73: RE1=1;
 10249  08CE  1489               	bsf	(73/8),(73)&7
 10250                           	line	74
 10251                           ;lcd.c: 74: _delay((unsigned long)((5)*(20000000/4000.0)));
 10252                           	opt asmopt_off
 10253  08CF  3021               movlw	33
 10254  08D0  00F1               movwf	((??i1_lcd_cmd+0)+0+1),f
 10255  08D1  3076               	movlw	118
 10256  08D2  00F0               movwf	((??i1_lcd_cmd+0)+0),f
 10257  08D3                     u724_27:
 10258  08D3  0BF0               	decfsz	((??i1_lcd_cmd+0)+0),f
 10259  08D4  28D3               	goto	u724_27
 10260  08D5  0BF1               	decfsz	((??i1_lcd_cmd+0)+0+1),f
 10261  08D6  28D3               	goto	u724_27
 10262  08D7  0064               	clrwdt
 10263                           opt asmopt_on
 10264                           
 10265                           	line	75
 10266                           	
 10267  08D8                     i1l13175:	
 10268                           ;lcd.c: 75: RE1=0;
 10269  08D8  1283               	bcf	status, 5	;RP0=0, select bank0
 10270  08D9  1303               	bcf	status, 6	;RP1=0, select bank0
 10271  08DA  1089               	bcf	(73/8),(73)&7
 10272                           	line	77
 10273                           	
 10274  08DB                     i1l7269:	
 10275  08DB  0008               	return
 10276                           	opt stack 0
 10277                           GLOBAL	__end_ofi1_lcd_cmd
 10278  08DC                     	__end_ofi1_lcd_cmd:
 10279 ;; =============== function i1_lcd_cmd ends ============
 10280                           
 10281                           	signat	i1_lcd_cmd,88
 10282                           	global	i1_lcd_write
 10283                           psect	text1678,local,class=CODE,delta=2
 10284                           global __ptext1678
 10285  085A                     __ptext1678:
 10286                           
 10287 ;; *************** function i1_lcd_write *****************
 10288 ;; Defined at:
 10289 ;;		line 19 in file "lcd.c"
 10290 ;; Parameters:    Size  Location     Type
 10291 ;;  lcd_write       1    wreg     unsigned char 
 10292 ;; Auto vars:     Size  Location     Type
 10293 ;;  lcd_write       1    2[COMMON] unsigned char 
 10294 ;; Return value:  Size  Location     Type
 10295 ;;		None               void
 10296 ;; Registers used:
 10297 ;;		wreg, status,2, status,0
 10298 ;; Tracked objects:
 10299 ;;		On entry : 0/0
 10300 ;;		On exit  : 0/0
 10301 ;;		Unchanged: 0/0
 10302 ;; Data sizes:     COMMON   BANK0   BANK1   BANK3   BANK2
 10303 ;;      Params:         0       0       0       0       0
 10304 ;;      Locals:         1       0       0       0       0
 10305 ;;      Temps:          2       0       0       0       0
 10306 ;;      Totals:         3       0       0       0       0
 10307 ;;Total ram usage:        3 bytes
 10308 ;; Hardware stack levels used:    1
 10309 ;; This function calls:
 10310 ;;		Nothing
 10311 ;; This function is called by:
 10312 ;;		i1_lcd_puts
 10313 ;; This function uses a non-reentrant model
 10314 ;;
 10315                           psect	text1678
 10316                           	file	"lcd.c"
 10317                           	line	19
 10318                           	global	__size_ofi1_lcd_write
 10319  0041                     	__size_ofi1_lcd_write	equ	__end_ofi1_lcd_write-i1_lcd_write
 10320                           	
 10321  085A                     i1_lcd_write:	
 10322 ;; hardware stack exceeded
 10323                           	opt	stack 0
 10324                           ; Regs used in i1_lcd_write: [wreg+status,2+status,0]
 10325                           ;i1lcd_write@data stored from wreg
 10326                           	line	22
 10327  085A  00F2               	movwf	(i1lcd_write@data)
 10328                           	
 10329  085B                     i1l14207:	
 10330                           ;lcd.c: 22: PORTD = ((data >> 4)& 0x0F);
 10331  085B  0872               	movf	(i1lcd_write@data),w
 10332  085C  00F0               	movwf	(??i1_lcd_write+0)+0
 10333  085D  3004               	movlw	04h
 10334  085E                     u620_25:
 10335  085E  1003               	clrc
 10336  085F  0CF0               	rrf	(??i1_lcd_write+0)+0,f
 10337  0860  3EFF               	addlw	-1
 10338  0861  1D03               	skipz
 10339  0862  285E               	goto	u620_25
 10340  0863  0870               	movf	0+(??i1_lcd_write+0)+0,w
 10341  0864  390F               	andlw	0Fh
 10342  0865  1283               	bcf	status, 5	;RP0=0, select bank0
 10343  0866  1303               	bcf	status, 6	;RP1=0, select bank0
 10344  0867  0088               	movwf	(8)	;volatile
 10345                           	line	26
 10346                           	
 10347  0868                     i1l14209:	
 10348                           ;lcd.c: 26: PORTD=( data & 0x0F0 );
 10349  0868  0872               	movf	(i1lcd_write@data),w
 10350  0869  39F0               	andlw	0F0h
 10351  086A  0088               	movwf	(8)	;volatile
 10352                           	line	29
 10353                           	
 10354  086B                     i1l14211:	
 10355                           ;lcd.c: 29: RE0=1;
 10356  086B  1409               	bsf	(72/8),(72)&7
 10357                           	line	30
 10358                           	
 10359  086C                     i1l14213:	
 10360                           ;lcd.c: 30: RW=0;
 10361  086C  1683               	bsf	status, 5	;RP0=1, select bank1
 10362  086D  1303               	bcf	status, 6	;RP1=0, select bank1
 10363  086E  1114               	bcf	(1186/8)^080h,(1186)&7
 10364                           	line	31
 10365                           	
 10366  086F                     i1l14215:	
 10367                           ;lcd.c: 31: RE1=1;
 10368  086F  1283               	bcf	status, 5	;RP0=0, select bank0
 10369  0870  1303               	bcf	status, 6	;RP1=0, select bank0
 10370  0871  1489               	bsf	(73/8),(73)&7
 10371                           	line	32
 10372                           	
 10373  0872                     i1l14217:	
 10374                           ;lcd.c: 32: _delay((unsigned long)((5)*(20000000/4000.0)));
 10375                           	opt asmopt_off
 10376  0872  3021               movlw	33
 10377  0873  00F1               movwf	((??i1_lcd_write+0)+0+1),f
 10378  0874  3076               	movlw	118
 10379  0875  00F0               movwf	((??i1_lcd_write+0)+0),f
 10380  0876                     u725_27:
 10381  0876  0BF0               	decfsz	((??i1_lcd_write+0)+0),f
 10382  0877  2876               	goto	u725_27
 10383  0878  0BF1               	decfsz	((??i1_lcd_write+0)+0+1),f
 10384  0879  2876               	goto	u725_27
 10385  087A  0064               	clrwdt
 10386                           opt asmopt_on
 10387                           
 10388                           	line	33
 10389                           	
 10390  087B                     i1l14219:	
 10391                           ;lcd.c: 33: RE1=0;
 10392  087B  1283               	bcf	status, 5	;RP0=0, select bank0
 10393  087C  1303               	bcf	status, 6	;RP1=0, select bank0
 10394  087D  1089               	bcf	(73/8),(73)&7
 10395                           	line	36
 10396                           	
 10397  087E                     i1l14221:	
 10398                           ;lcd.c: 36: PORTD=( data & 0x0F );
 10399  087E  0872               	movf	(i1lcd_write@data),w
 10400  087F  390F               	andlw	0Fh
 10401  0880  0088               	movwf	(8)	;volatile
 10402                           	line	39
 10403                           	
 10404  0881                     i1l14223:	
 10405                           ;lcd.c: 39: PORTD=((data<<4)&(0x0F0));
 10406  0881  0872               	movf	(i1lcd_write@data),w
 10407  0882  00F0               	movwf	(??i1_lcd_write+0)+0
 10408  0883  3003               	movlw	(04h)-1
 10409  0884                     u621_25:
 10410  0884  1003               	clrc
 10411  0885  0DF0               	rlf	(??i1_lcd_write+0)+0,f
 10412  0886  3EFF               	addlw	-1
 10413  0887  1D03               	skipz
 10414  0888  2884               	goto	u621_25
 10415  0889  1003               	clrc
 10416  088A  0D70               	rlf	(??i1_lcd_write+0)+0,w
 10417  088B  39F0               	andlw	0F0h
 10418  088C  0088               	movwf	(8)	;volatile
 10419                           	line	41
 10420                           	
 10421  088D                     i1l14225:	
 10422                           ;lcd.c: 41: RE1=1;
 10423  088D  1489               	bsf	(73/8),(73)&7
 10424                           	line	42
 10425                           ;lcd.c: 42: _delay((unsigned long)((5)*(20000000/4000.0)));
 10426                           	opt asmopt_off
 10427  088E  3021               movlw	33
 10428  088F  00F1               movwf	((??i1_lcd_write+0)+0+1),f
 10429  0890  3076               	movlw	118
 10430  0891  00F0               movwf	((??i1_lcd_write+0)+0),f
 10431  0892                     u726_27:
 10432  0892  0BF0               	decfsz	((??i1_lcd_write+0)+0),f
 10433  0893  2892               	goto	u726_27
 10434  0894  0BF1               	decfsz	((??i1_lcd_write+0)+0+1),f
 10435  0895  2892               	goto	u726_27
 10436  0896  0064               	clrwdt
 10437                           opt asmopt_on
 10438                           
 10439                           	line	43
 10440                           	
 10441  0897                     i1l14227:	
 10442                           ;lcd.c: 43: RE1=0;
 10443  0897  1283               	bcf	status, 5	;RP0=0, select bank0
 10444  0898  1303               	bcf	status, 6	;RP1=0, select bank0
 10445  0899  1089               	bcf	(73/8),(73)&7
 10446                           	line	45
 10447                           	
 10448  089A                     i1l7266:	
 10449  089A  0008               	return
 10450                           	opt stack 0
 10451                           GLOBAL	__end_ofi1_lcd_write
 10452  089B                     	__end_ofi1_lcd_write:
 10453 ;; =============== function i1_lcd_write ends ============
 10454                           
 10455                           	signat	i1_lcd_write,88
 10456                           	global	_updateConfiguration
 10457                           psect	text1679,local,class=CODE,delta=2
 10458                           global __ptext1679
 10459  04DC                     __ptext1679:
 10460                           
 10461 ;; *************** function _updateConfiguration *****************
 10462 ;; Defined at:
 10463 ;;		line 158 in file "SettingModeHandler.c"
 10464 ;; Parameters:    Size  Location     Type
 10465 ;;		None
 10466 ;; Auto vars:     Size  Location     Type
 10467 ;;		None
 10468 ;; Return value:  Size  Location     Type
 10469 ;;		None               void
 10470 ;; Registers used:
 10471 ;;		wreg, status,2, status,0
 10472 ;; Tracked objects:
 10473 ;;		On entry : 0/0
 10474 ;;		On exit  : 0/0
 10475 ;;		Unchanged: 0/0
 10476 ;; Data sizes:     COMMON   BANK0   BANK1   BANK3   BANK2
 10477 ;;      Params:         0       0       0       0       0
 10478 ;;      Locals:         0       0       0       0       0
 10479 ;;      Temps:          3       0       0       0       0
 10480 ;;      Totals:         3       0       0       0       0
 10481 ;;Total ram usage:        3 bytes
 10482 ;; Hardware stack levels used:    1
 10483 ;; This function calls:
 10484 ;;		Nothing
 10485 ;; This function is called by:
 10486 ;;		_ISR
 10487 ;; This function uses a non-reentrant model
 10488 ;;
 10489                           psect	text1679
 10490                           	file	"SettingModeHandler.c"
 10491                           	line	158
 10492                           	global	__size_of_updateConfiguration
 10493  00F1                     	__size_of_updateConfiguration	equ	__end_of_updateConfiguration-_updateConfiguration
 10494                           	
 10495  04DC                     _updateConfiguration:	
 10496 ;; hardware stack exceeded
 10497                           	opt	stack 0
 10498                           ; Regs used in _updateConfiguration: [wreg+status,2+status,0]
 10499                           	line	159
 10500                           ;SettingModeHandler.c: 159: do{ while(WR)continue;EEADR=(0x20);EEDATA=(CurrentCoffeeQuan
                                 tity); EECON1&=0x3F;CARRY=0;if(GIE)CARRY=1;GIE=0; WREN=1;EECON2=0x55;EECON2=0xAA;WR=1;WR
                                 EN=0; if(CARRY)GIE=1; }while(0);
 10501                           	
 10502  04DC                     i1l6392:	
 10503  04DC  2CDD               	goto	i1l6393
 10504                           	
 10505  04DD                     i1l6394:	
 10506                           	
 10507  04DD                     i1l6393:	
 10508  04DD  1683               	bsf	status, 5	;RP0=1, select bank3
 10509  04DE  1703               	bsf	status, 6	;RP1=1, select bank3
 10510  04DF  188C               	btfsc	(3169/8)^0180h,(3169)&7
 10511  04E0  2CE2               	goto	u420_21
 10512  04E1  2CE3               	goto	u420_20
 10513  04E2                     u420_21:
 10514  04E2  2CDD               	goto	i1l6394
 10515  04E3                     u420_20:
 10516                           	
 10517  04E3                     i1l6395:	
 10518                           	
 10519  04E3                     i1l12911:	
 10520  04E3  3020               	movlw	(020h)
 10521  04E4  1283               	bcf	status, 5	;RP0=0, select bank2
 10522  04E5  1703               	bsf	status, 6	;RP1=1, select bank2
 10523  04E6  008D               	movwf	(269)^0100h	;volatile
 10524  04E7  1283               	bcf	status, 5	;RP0=0, select bank0
 10525  04E8  1303               	bcf	status, 6	;RP1=0, select bank0
 10526  04E9  0840               	movf	(_CurrentCoffeeQuantity),w
 10527  04EA  1283               	bcf	status, 5	;RP0=0, select bank2
 10528  04EB  1703               	bsf	status, 6	;RP1=1, select bank2
 10529  04EC  008C               	movwf	(268)^0100h	;volatile
 10530                           	
 10531  04ED                     i1l12913:	
 10532  04ED  303F               	movlw	(03Fh)
 10533  04EE  00F0               	movwf	(??_updateConfiguration+0)+0
 10534  04EF  0870               	movf	(??_updateConfiguration+0)+0,w
 10535  04F0  1683               	bsf	status, 5	;RP0=1, select bank3
 10536  04F1  1703               	bsf	status, 6	;RP1=1, select bank3
 10537  04F2  058C               	andwf	(396)^0180h,f	;volatile
 10538                           	
 10539  04F3                     i1l12915:	
 10540  04F3  1283               	bcf	status, 5	;RP0=0, select bank0
 10541  04F4  1303               	bcf	status, 6	;RP1=0, select bank0
 10542  04F5  1003               	bcf	(24/8),(24)&7
 10543                           	
 10544  04F6                     i1l12917:	
 10545  04F6  1F8B               	btfss	(95/8),(95)&7
 10546  04F7  2CF9               	goto	u421_21
 10547  04F8  2CFA               	goto	u421_20
 10548  04F9                     u421_21:
 10549  04F9  2CFB               	goto	i1l6396
 10550  04FA                     u421_20:
 10551                           	
 10552  04FA                     i1l12919:	
 10553  04FA  1403               	bsf	(24/8),(24)&7
 10554                           	
 10555  04FB                     i1l6396:	
 10556  04FB  138B               	bcf	(95/8),(95)&7
 10557  04FC  1683               	bsf	status, 5	;RP0=1, select bank3
 10558  04FD  1703               	bsf	status, 6	;RP1=1, select bank3
 10559  04FE  150C               	bsf	(3170/8)^0180h,(3170)&7
 10560                           	
 10561  04FF                     i1l12921:	
 10562  04FF  3055               	movlw	(055h)
 10563  0500  008D               	movwf	(397)^0180h	;volatile
 10564  0501  30AA               	movlw	(0AAh)
 10565  0502  008D               	movwf	(397)^0180h	;volatile
 10566                           	
 10567  0503                     i1l12923:	
 10568  0503  148C               	bsf	(3169/8)^0180h,(3169)&7
 10569                           	
 10570  0504                     i1l12925:	
 10571  0504  110C               	bcf	(3170/8)^0180h,(3170)&7
 10572                           	
 10573  0505                     i1l12927:	
 10574  0505  1283               	bcf	status, 5	;RP0=0, select bank0
 10575  0506  1303               	bcf	status, 6	;RP1=0, select bank0
 10576  0507  1C03               	btfss	(24/8),(24)&7
 10577  0508  2D0A               	goto	u422_21
 10578  0509  2D0B               	goto	u422_20
 10579  050A                     u422_21:
 10580  050A  2D0C               	goto	i1l6397
 10581  050B                     u422_20:
 10582                           	
 10583  050B                     i1l12929:	
 10584  050B  178B               	bsf	(95/8),(95)&7
 10585                           	
 10586  050C                     i1l6397:	
 10587                           	
 10588  050C                     i1l6398:	
 10589                           	line	160
 10590                           	
 10591  050C                     i1l12931:	
 10592                           ;SettingModeHandler.c: 160: _delay((unsigned long)((100)*(20000000/4000.0)));
 10593                           	opt asmopt_off
 10594  050C  3003               movlw  3
 10595  050D  00F2               movwf	((??_updateConfiguration+0)+0+2),f
 10596  050E  3088               movlw	136
 10597  050F  00F1               movwf	((??_updateConfiguration+0)+0+1),f
 10598  0510  3056               	movlw	86
 10599  0511  00F0               movwf	((??_updateConfiguration+0)+0),f
 10600  0512                     u727_27:
 10601  0512  0BF0               	decfsz	((??_updateConfiguration+0)+0),f
 10602  0513  2D12               	goto	u727_27
 10603  0514  0BF1               	decfsz	((??_updateConfiguration+0)+0+1),f
 10604  0515  2D12               	goto	u727_27
 10605  0516  0BF2               	decfsz	((??_updateConfiguration+0)+0+2),f
 10606  0517  2D12               	goto	u727_27
 10607                           opt asmopt_on
 10608                           
 10609                           	line	161
 10610                           ;SettingModeHandler.c: 161: do{ while(WR)continue;EEADR=(0x22);EEDATA=(CurrentWaterQuant
                                 ity_forCoffee); EECON1&=0x3F;CARRY=0;if(GIE)CARRY=1;GIE=0; WREN=1;EECON2=0x55;EECON2=0xA
                                 A;WR=1;WREN=0; if(CARRY)GIE=1; }while(0);
 10611                           	
 10612  0518                     i1l6399:	
 10613  0518  2D19               	goto	i1l6400
 10614                           	
 10615  0519                     i1l6401:	
 10616                           	
 10617  0519                     i1l6400:	
 10618  0519  1683               	bsf	status, 5	;RP0=1, select bank3
 10619  051A  1703               	bsf	status, 6	;RP1=1, select bank3
 10620  051B  188C               	btfsc	(3169/8)^0180h,(3169)&7
 10621  051C  2D1E               	goto	u423_21
 10622  051D  2D1F               	goto	u423_20
 10623  051E                     u423_21:
 10624  051E  2D19               	goto	i1l6401
 10625  051F                     u423_20:
 10626                           	
 10627  051F                     i1l6402:	
 10628                           	
 10629  051F                     i1l12933:	
 10630  051F  3022               	movlw	(022h)
 10631  0520  1283               	bcf	status, 5	;RP0=0, select bank2
 10632  0521  1703               	bsf	status, 6	;RP1=1, select bank2
 10633  0522  008D               	movwf	(269)^0100h	;volatile
 10634  0523  1283               	bcf	status, 5	;RP0=0, select bank0
 10635  0524  1303               	bcf	status, 6	;RP1=0, select bank0
 10636  0525  0842               	movf	(_CurrentWaterQuantity_forCoffee),w
 10637  0526  1283               	bcf	status, 5	;RP0=0, select bank2
 10638  0527  1703               	bsf	status, 6	;RP1=1, select bank2
 10639  0528  008C               	movwf	(268)^0100h	;volatile
 10640                           	
 10641  0529                     i1l12935:	
 10642  0529  303F               	movlw	(03Fh)
 10643  052A  00F0               	movwf	(??_updateConfiguration+0)+0
 10644  052B  0870               	movf	(??_updateConfiguration+0)+0,w
 10645  052C  1683               	bsf	status, 5	;RP0=1, select bank3
 10646  052D  1703               	bsf	status, 6	;RP1=1, select bank3
 10647  052E  058C               	andwf	(396)^0180h,f	;volatile
 10648                           	
 10649  052F                     i1l12937:	
 10650  052F  1283               	bcf	status, 5	;RP0=0, select bank0
 10651  0530  1303               	bcf	status, 6	;RP1=0, select bank0
 10652  0531  1003               	bcf	(24/8),(24)&7
 10653                           	
 10654  0532                     i1l12939:	
 10655  0532  1F8B               	btfss	(95/8),(95)&7
 10656  0533  2D35               	goto	u424_21
 10657  0534  2D36               	goto	u424_20
 10658  0535                     u424_21:
 10659  0535  2D37               	goto	i1l6403
 10660  0536                     u424_20:
 10661                           	
 10662  0536                     i1l12941:	
 10663  0536  1403               	bsf	(24/8),(24)&7
 10664                           	
 10665  0537                     i1l6403:	
 10666  0537  138B               	bcf	(95/8),(95)&7
 10667  0538  1683               	bsf	status, 5	;RP0=1, select bank3
 10668  0539  1703               	bsf	status, 6	;RP1=1, select bank3
 10669  053A  150C               	bsf	(3170/8)^0180h,(3170)&7
 10670                           	
 10671  053B                     i1l12943:	
 10672  053B  3055               	movlw	(055h)
 10673  053C  008D               	movwf	(397)^0180h	;volatile
 10674  053D  30AA               	movlw	(0AAh)
 10675  053E  008D               	movwf	(397)^0180h	;volatile
 10676                           	
 10677  053F                     i1l12945:	
 10678  053F  148C               	bsf	(3169/8)^0180h,(3169)&7
 10679                           	
 10680  0540                     i1l12947:	
 10681  0540  110C               	bcf	(3170/8)^0180h,(3170)&7
 10682                           	
 10683  0541                     i1l12949:	
 10684  0541  1283               	bcf	status, 5	;RP0=0, select bank0
 10685  0542  1303               	bcf	status, 6	;RP1=0, select bank0
 10686  0543  1C03               	btfss	(24/8),(24)&7
 10687  0544  2D46               	goto	u425_21
 10688  0545  2D47               	goto	u425_20
 10689  0546                     u425_21:
 10690  0546  2D48               	goto	i1l6404
 10691  0547                     u425_20:
 10692                           	
 10693  0547                     i1l12951:	
 10694  0547  178B               	bsf	(95/8),(95)&7
 10695                           	
 10696  0548                     i1l6404:	
 10697                           	
 10698  0548                     i1l6405:	
 10699                           	line	162
 10700                           	
 10701  0548                     i1l12953:	
 10702                           ;SettingModeHandler.c: 162: _delay((unsigned long)((100)*(20000000/4000.0)));
 10703                           	opt asmopt_off
 10704  0548  3003               movlw  3
 10705  0549  00F2               movwf	((??_updateConfiguration+0)+0+2),f
 10706  054A  3088               movlw	136
 10707  054B  00F1               movwf	((??_updateConfiguration+0)+0+1),f
 10708  054C  3056               	movlw	86
 10709  054D  00F0               movwf	((??_updateConfiguration+0)+0),f
 10710  054E                     u728_27:
 10711  054E  0BF0               	decfsz	((??_updateConfiguration+0)+0),f
 10712  054F  2D4E               	goto	u728_27
 10713  0550  0BF1               	decfsz	((??_updateConfiguration+0)+0+1),f
 10714  0551  2D4E               	goto	u728_27
 10715  0552  0BF2               	decfsz	((??_updateConfiguration+0)+0+2),f
 10716  0553  2D4E               	goto	u728_27
 10717                           opt asmopt_on
 10718                           
 10719                           	line	163
 10720                           ;SettingModeHandler.c: 163: do{ while(WR)continue;EEADR=(0x24);EEDATA=(CurrentTeaQuantit
                                 y); EECON1&=0x3F;CARRY=0;if(GIE)CARRY=1;GIE=0; WREN=1;EECON2=0x55;EECON2=0xAA;WR=1;WREN=
                                 0; if(CARRY)GIE=1; }while(0);
 10721                           	
 10722  0554                     i1l6406:	
 10723  0554  2D55               	goto	i1l6407
 10724                           	
 10725  0555                     i1l6408:	
 10726                           	
 10727  0555                     i1l6407:	
 10728  0555  1683               	bsf	status, 5	;RP0=1, select bank3
 10729  0556  1703               	bsf	status, 6	;RP1=1, select bank3
 10730  0557  188C               	btfsc	(3169/8)^0180h,(3169)&7
 10731  0558  2D5A               	goto	u426_21
 10732  0559  2D5B               	goto	u426_20
 10733  055A                     u426_21:
 10734  055A  2D55               	goto	i1l6408
 10735  055B                     u426_20:
 10736                           	
 10737  055B                     i1l6409:	
 10738                           	
 10739  055B                     i1l12955:	
 10740  055B  3024               	movlw	(024h)
 10741  055C  1283               	bcf	status, 5	;RP0=0, select bank2
 10742  055D  1703               	bsf	status, 6	;RP1=1, select bank2
 10743  055E  008D               	movwf	(269)^0100h	;volatile
 10744  055F  1283               	bcf	status, 5	;RP0=0, select bank0
 10745  0560  1303               	bcf	status, 6	;RP1=0, select bank0
 10746  0561  0841               	movf	(_CurrentTeaQuantity),w
 10747  0562  1283               	bcf	status, 5	;RP0=0, select bank2
 10748  0563  1703               	bsf	status, 6	;RP1=1, select bank2
 10749  0564  008C               	movwf	(268)^0100h	;volatile
 10750                           	
 10751  0565                     i1l12957:	
 10752  0565  303F               	movlw	(03Fh)
 10753  0566  00F0               	movwf	(??_updateConfiguration+0)+0
 10754  0567  0870               	movf	(??_updateConfiguration+0)+0,w
 10755  0568  1683               	bsf	status, 5	;RP0=1, select bank3
 10756  0569  1703               	bsf	status, 6	;RP1=1, select bank3
 10757  056A  058C               	andwf	(396)^0180h,f	;volatile
 10758                           	
 10759  056B                     i1l12959:	
 10760  056B  1283               	bcf	status, 5	;RP0=0, select bank0
 10761  056C  1303               	bcf	status, 6	;RP1=0, select bank0
 10762  056D  1003               	bcf	(24/8),(24)&7
 10763                           	
 10764  056E                     i1l12961:	
 10765  056E  1F8B               	btfss	(95/8),(95)&7
 10766  056F  2D71               	goto	u427_21
 10767  0570  2D72               	goto	u427_20
 10768  0571                     u427_21:
 10769  0571  2D73               	goto	i1l6410
 10770  0572                     u427_20:
 10771                           	
 10772  0572                     i1l12963:	
 10773  0572  1403               	bsf	(24/8),(24)&7
 10774                           	
 10775  0573                     i1l6410:	
 10776  0573  138B               	bcf	(95/8),(95)&7
 10777  0574  1683               	bsf	status, 5	;RP0=1, select bank3
 10778  0575  1703               	bsf	status, 6	;RP1=1, select bank3
 10779  0576  150C               	bsf	(3170/8)^0180h,(3170)&7
 10780                           	
 10781  0577                     i1l12965:	
 10782  0577  3055               	movlw	(055h)
 10783  0578  008D               	movwf	(397)^0180h	;volatile
 10784  0579  30AA               	movlw	(0AAh)
 10785  057A  008D               	movwf	(397)^0180h	;volatile
 10786                           	
 10787  057B                     i1l12967:	
 10788  057B  148C               	bsf	(3169/8)^0180h,(3169)&7
 10789                           	
 10790  057C                     i1l12969:	
 10791  057C  110C               	bcf	(3170/8)^0180h,(3170)&7
 10792                           	
 10793  057D                     i1l12971:	
 10794  057D  1283               	bcf	status, 5	;RP0=0, select bank0
 10795  057E  1303               	bcf	status, 6	;RP1=0, select bank0
 10796  057F  1C03               	btfss	(24/8),(24)&7
 10797  0580  2D82               	goto	u428_21
 10798  0581  2D83               	goto	u428_20
 10799  0582                     u428_21:
 10800  0582  2D84               	goto	i1l6411
 10801  0583                     u428_20:
 10802                           	
 10803  0583                     i1l12973:	
 10804  0583  178B               	bsf	(95/8),(95)&7
 10805                           	
 10806  0584                     i1l6411:	
 10807                           	
 10808  0584                     i1l6412:	
 10809                           	line	164
 10810                           	
 10811  0584                     i1l12975:	
 10812                           ;SettingModeHandler.c: 164: _delay((unsigned long)((100)*(20000000/4000.0)));
 10813                           	opt asmopt_off
 10814  0584  3003               movlw  3
 10815  0585  00F2               movwf	((??_updateConfiguration+0)+0+2),f
 10816  0586  3088               movlw	136
 10817  0587  00F1               movwf	((??_updateConfiguration+0)+0+1),f
 10818  0588  3056               	movlw	86
 10819  0589  00F0               movwf	((??_updateConfiguration+0)+0),f
 10820  058A                     u729_27:
 10821  058A  0BF0               	decfsz	((??_updateConfiguration+0)+0),f
 10822  058B  2D8A               	goto	u729_27
 10823  058C  0BF1               	decfsz	((??_updateConfiguration+0)+0+1),f
 10824  058D  2D8A               	goto	u729_27
 10825  058E  0BF2               	decfsz	((??_updateConfiguration+0)+0+2),f
 10826  058F  2D8A               	goto	u729_27
 10827                           opt asmopt_on
 10828                           
 10829                           	line	165
 10830                           ;SettingModeHandler.c: 165: do{ while(WR)continue;EEADR=(0x26);EEDATA=(CurrentWaterQuant
                                 ity_forTea); EECON1&=0x3F;CARRY=0;if(GIE)CARRY=1;GIE=0; WREN=1;EECON2=0x55;EECON2=0xAA;W
                                 R=1;WREN=0; if(CARRY)GIE=1; }while(0);
 10831                           	
 10832  0590                     i1l6413:	
 10833  0590  2D91               	goto	i1l6414
 10834                           	
 10835  0591                     i1l6415:	
 10836                           	
 10837  0591                     i1l6414:	
 10838  0591  1683               	bsf	status, 5	;RP0=1, select bank3
 10839  0592  1703               	bsf	status, 6	;RP1=1, select bank3
 10840  0593  188C               	btfsc	(3169/8)^0180h,(3169)&7
 10841  0594  2D96               	goto	u429_21
 10842  0595  2D97               	goto	u429_20
 10843  0596                     u429_21:
 10844  0596  2D91               	goto	i1l6415
 10845  0597                     u429_20:
 10846                           	
 10847  0597                     i1l6416:	
 10848                           	
 10849  0597                     i1l12977:	
 10850  0597  3026               	movlw	(026h)
 10851  0598  1283               	bcf	status, 5	;RP0=0, select bank2
 10852  0599  1703               	bsf	status, 6	;RP1=1, select bank2
 10853  059A  008D               	movwf	(269)^0100h	;volatile
 10854  059B  1283               	bcf	status, 5	;RP0=0, select bank0
 10855  059C  1303               	bcf	status, 6	;RP1=0, select bank0
 10856  059D  0843               	movf	(_CurrentWaterQuantity_forTea),w
 10857  059E  1283               	bcf	status, 5	;RP0=0, select bank2
 10858  059F  1703               	bsf	status, 6	;RP1=1, select bank2
 10859  05A0  008C               	movwf	(268)^0100h	;volatile
 10860                           	
 10861  05A1                     i1l12979:	
 10862  05A1  303F               	movlw	(03Fh)
 10863  05A2  00F0               	movwf	(??_updateConfiguration+0)+0
 10864  05A3  0870               	movf	(??_updateConfiguration+0)+0,w
 10865  05A4  1683               	bsf	status, 5	;RP0=1, select bank3
 10866  05A5  1703               	bsf	status, 6	;RP1=1, select bank3
 10867  05A6  058C               	andwf	(396)^0180h,f	;volatile
 10868                           	
 10869  05A7                     i1l12981:	
 10870  05A7  1283               	bcf	status, 5	;RP0=0, select bank0
 10871  05A8  1303               	bcf	status, 6	;RP1=0, select bank0
 10872  05A9  1003               	bcf	(24/8),(24)&7
 10873                           	
 10874  05AA                     i1l12983:	
 10875  05AA  1F8B               	btfss	(95/8),(95)&7
 10876  05AB  2DAD               	goto	u430_21
 10877  05AC  2DAE               	goto	u430_20
 10878  05AD                     u430_21:
 10879  05AD  2DAF               	goto	i1l6417
 10880  05AE                     u430_20:
 10881                           	
 10882  05AE                     i1l12985:	
 10883  05AE  1403               	bsf	(24/8),(24)&7
 10884                           	
 10885  05AF                     i1l6417:	
 10886  05AF  138B               	bcf	(95/8),(95)&7
 10887  05B0  1683               	bsf	status, 5	;RP0=1, select bank3
 10888  05B1  1703               	bsf	status, 6	;RP1=1, select bank3
 10889  05B2  150C               	bsf	(3170/8)^0180h,(3170)&7
 10890                           	
 10891  05B3                     i1l12987:	
 10892  05B3  3055               	movlw	(055h)
 10893  05B4  008D               	movwf	(397)^0180h	;volatile
 10894  05B5  30AA               	movlw	(0AAh)
 10895  05B6  008D               	movwf	(397)^0180h	;volatile
 10896                           	
 10897  05B7                     i1l12989:	
 10898  05B7  148C               	bsf	(3169/8)^0180h,(3169)&7
 10899                           	
 10900  05B8                     i1l12991:	
 10901  05B8  110C               	bcf	(3170/8)^0180h,(3170)&7
 10902                           	
 10903  05B9                     i1l12993:	
 10904  05B9  1283               	bcf	status, 5	;RP0=0, select bank0
 10905  05BA  1303               	bcf	status, 6	;RP1=0, select bank0
 10906  05BB  1C03               	btfss	(24/8),(24)&7
 10907  05BC  2DBE               	goto	u431_21
 10908  05BD  2DBF               	goto	u431_20
 10909  05BE                     u431_21:
 10910  05BE  2DC0               	goto	i1l6418
 10911  05BF                     u431_20:
 10912                           	
 10913  05BF                     i1l12995:	
 10914  05BF  178B               	bsf	(95/8),(95)&7
 10915                           	
 10916  05C0                     i1l6418:	
 10917                           	
 10918  05C0                     i1l6419:	
 10919                           	line	166
 10920                           	
 10921  05C0                     i1l12997:	
 10922                           ;SettingModeHandler.c: 166: _delay((unsigned long)((100)*(20000000/4000.0)));
 10923                           	opt asmopt_off
 10924  05C0  3003               movlw  3
 10925  05C1  00F2               movwf	((??_updateConfiguration+0)+0+2),f
 10926  05C2  3088               movlw	136
 10927  05C3  00F1               movwf	((??_updateConfiguration+0)+0+1),f
 10928  05C4  3056               	movlw	86
 10929  05C5  00F0               movwf	((??_updateConfiguration+0)+0),f
 10930  05C6                     u730_27:
 10931  05C6  0BF0               	decfsz	((??_updateConfiguration+0)+0),f
 10932  05C7  2DC6               	goto	u730_27
 10933  05C8  0BF1               	decfsz	((??_updateConfiguration+0)+0+1),f
 10934  05C9  2DC6               	goto	u730_27
 10935  05CA  0BF2               	decfsz	((??_updateConfiguration+0)+0+2),f
 10936  05CB  2DC6               	goto	u730_27
 10937                           opt asmopt_on
 10938                           
 10939                           	line	167
 10940                           	
 10941  05CC                     i1l6420:	
 10942  05CC  0008               	return
 10943                           	opt stack 0
 10944                           GLOBAL	__end_of_updateConfiguration
 10945  05CD                     	__end_of_updateConfiguration:
 10946 ;; =============== function _updateConfiguration ends ============
 10947                           
 10948                           	signat	_updateConfiguration,88
 10949                           	global	i1___awmod
 10950                           psect	text1680,local,class=CODE,delta=2
 10951                           global __ptext1680
 10952  09EE                     __ptext1680:
 10953                           
 10954 ;; *************** function i1___awmod *****************
 10955 ;; Defined at:
 10956 ;;		line 5 in file "C:\Program Files (x86)\HI-TECH Software\PICC\9.71a\sources\awmod.c"
 10957 ;; Parameters:    Size  Location     Type
 10958 ;;  __awmod         2    0[COMMON] int 
 10959 ;;  __awmod         2    2[COMMON] int 
 10960 ;; Auto vars:     Size  Location     Type
 10961 ;;  __awmod         1    6[COMMON] unsigned char 
 10962 ;;  __awmod         1    5[COMMON] unsigned char 
 10963 ;; Return value:  Size  Location     Type
 10964 ;;                  2    0[COMMON] int 
 10965 ;; Registers used:
 10966 ;;		wreg, status,2, status,0
 10967 ;; Tracked objects:
 10968 ;;		On entry : 0/0
 10969 ;;		On exit  : 0/0
 10970 ;;		Unchanged: 0/0
 10971 ;; Data sizes:     COMMON   BANK0   BANK1   BANK3   BANK2
 10972 ;;      Params:         4       0       0       0       0
 10973 ;;      Locals:         2       0       0       0       0
 10974 ;;      Temps:          1       0       0       0       0
 10975 ;;      Totals:         7       0       0       0       0
 10976 ;;Total ram usage:        7 bytes
 10977 ;; Hardware stack levels used:    1
 10978 ;; This function calls:
 10979 ;;		Nothing
 10980 ;; This function is called by:
 10981 ;;		_print_ADCValue
 10982 ;;		i1_lcd_writeThisDigit
 10983 ;; This function uses a non-reentrant model
 10984 ;;
 10985                           psect	text1680
 10986                           	file	"C:\Program Files (x86)\HI-TECH Software\PICC\9.71a\sources\awmod.c"
 10987                           	line	5
 10988                           	global	__size_ofi1___awmod
 10989  0060                     	__size_ofi1___awmod	equ	__end_ofi1___awmod-i1___awmod
 10990                           	
 10991  09EE                     i1___awmod:	
 10992 ;; hardware stack exceeded
 10993                           	opt	stack 0
 10994                           ; Regs used in i1___awmod: [wreg+status,2+status,0]
 10995                           	line	8
 10996                           	
 10997  09EE                     i1l13253:	
 10998  09EE  1003               	clrc
 10999  09EF  3000               	movlw	0
 11000  09F0  1803               	btfsc	status,0
 11001  09F1  3001               	movlw	1
 11002  09F2  00F6               	movwf	(i1___awmod@sign)
 11003                           	line	9
 11004                           	
 11005  09F3                     i1l13255:	
 11006  09F3  1FF3               	btfss	(i1___awmod@dividend+1),7
 11007  09F4  29F6               	goto	u475_21
 11008  09F5  29F7               	goto	u475_20
 11009  09F6                     u475_21:
 11010  09F6  29FF               	goto	i1l10157
 11011  09F7                     u475_20:
 11012                           	line	10
 11013                           	
 11014  09F7                     i1l13257:	
 11015  09F7  09F2               	comf	(i1___awmod@dividend),f
 11016  09F8  09F3               	comf	(i1___awmod@dividend+1),f
 11017  09F9  0AF2               	incf	(i1___awmod@dividend),f
 11018  09FA  1903               	skipnz
 11019  09FB  0AF3               	incf	(i1___awmod@dividend+1),f
 11020                           	line	11
 11021  09FC  01F6               	clrf	(i1___awmod@sign)
 11022  09FD  1403               	bsf	status,0
 11023  09FE  0DF6               	rlf	(i1___awmod@sign),f
 11024                           	line	12
 11025                           	
 11026  09FF                     i1l10157:	
 11027                           	line	13
 11028                           	
 11029  09FF                     i1l13259:	
 11030  09FF  1FF1               	btfss	(i1___awmod@divisor+1),7
 11031  0A00  2A02               	goto	u476_21
 11032  0A01  2A03               	goto	u476_20
 11033  0A02                     u476_21:
 11034  0A02  2A08               	goto	i1l10158
 11035  0A03                     u476_20:
 11036                           	line	14
 11037                           	
 11038  0A03                     i1l13261:	
 11039  0A03  09F0               	comf	(i1___awmod@divisor),f
 11040  0A04  09F1               	comf	(i1___awmod@divisor+1),f
 11041  0A05  0AF0               	incf	(i1___awmod@divisor),f
 11042  0A06  1903               	skipnz
 11043  0A07  0AF1               	incf	(i1___awmod@divisor+1),f
 11044                           	
 11045  0A08                     i1l10158:	
 11046                           	line	15
 11047                           	
 11048  0A08                     i1l13263:	
 11049  0A08  0871               	movf	(i1___awmod@divisor+1),w
 11050  0A09  0470               	iorwf	(i1___awmod@divisor),w
 11051  0A0A  1903               	skipnz
 11052  0A0B  2A0D               	goto	u477_21
 11053  0A0C  2A0E               	goto	u477_20
 11054  0A0D                     u477_21:
 11055  0A0D  2A3E               	goto	i1l10159
 11056  0A0E                     u477_20:
 11057                           	line	16
 11058                           	
 11059  0A0E                     i1l13265:	
 11060  0A0E  01F5               	clrf	(i1___awmod@counter)
 11061  0A0F  1403               	bsf	status,0
 11062  0A10  0DF5               	rlf	(i1___awmod@counter),f
 11063                           	line	17
 11064  0A11  2A1D               	goto	i1l10160
 11065                           	
 11066  0A12                     i1l10161:	
 11067                           	line	18
 11068                           	
 11069  0A12                     i1l13267:	
 11070  0A12  3001               	movlw	01h
 11071                           	
 11072  0A13                     u478_25:
 11073  0A13  1003               	clrc
 11074  0A14  0DF0               	rlf	(i1___awmod@divisor),f
 11075  0A15  0DF1               	rlf	(i1___awmod@divisor+1),f
 11076  0A16  3EFF               	addlw	-1
 11077  0A17  1D03               	skipz
 11078  0A18  2A13               	goto	u478_25
 11079                           	line	19
 11080                           	
 11081  0A19                     i1l13269:	
 11082  0A19  3001               	movlw	(01h)
 11083  0A1A  00F4               	movwf	(??i1___awmod+0)+0
 11084  0A1B  0874               	movf	(??i1___awmod+0)+0,w
 11085  0A1C  07F5               	addwf	(i1___awmod@counter),f
 11086                           	line	20
 11087                           	
 11088  0A1D                     i1l10160:	
 11089                           	line	17
 11090                           	
 11091  0A1D                     i1l13271:	
 11092  0A1D  1FF1               	btfss	(i1___awmod@divisor+1),(15)&7
 11093  0A1E  2A20               	goto	u479_21
 11094  0A1F  2A21               	goto	u479_20
 11095  0A20                     u479_21:
 11096  0A20  2A12               	goto	i1l10161
 11097  0A21                     u479_20:
 11098                           	
 11099  0A21                     i1l10162:	
 11100                           	line	21
 11101                           	
 11102  0A21                     i1l10163:	
 11103                           	line	22
 11104                           	
 11105  0A21                     i1l13273:	
 11106  0A21  0871               	movf	(i1___awmod@divisor+1),w
 11107  0A22  0273               	subwf	(i1___awmod@dividend+1),w
 11108  0A23  1D03               	skipz
 11109  0A24  2A27               	goto	u480_25
 11110  0A25  0870               	movf	(i1___awmod@divisor),w
 11111  0A26  0272               	subwf	(i1___awmod@dividend),w
 11112  0A27                     u480_25:
 11113  0A27  1C03               	skipc
 11114  0A28  2A2A               	goto	u480_21
 11115  0A29  2A2B               	goto	u480_20
 11116  0A2A                     u480_21:
 11117  0A2A  2A31               	goto	i1l10164
 11118  0A2B                     u480_20:
 11119                           	line	23
 11120                           	
 11121  0A2B                     i1l13275:	
 11122  0A2B  0870               	movf	(i1___awmod@divisor),w
 11123  0A2C  02F2               	subwf	(i1___awmod@dividend),f
 11124  0A2D  0871               	movf	(i1___awmod@divisor+1),w
 11125  0A2E  1C03               	skipc
 11126  0A2F  03F3               	decf	(i1___awmod@dividend+1),f
 11127  0A30  02F3               	subwf	(i1___awmod@dividend+1),f
 11128                           	
 11129  0A31                     i1l10164:	
 11130                           	line	24
 11131                           	
 11132  0A31                     i1l13277:	
 11133  0A31  3001               	movlw	01h
 11134                           	
 11135  0A32                     u481_25:
 11136  0A32  1003               	clrc
 11137  0A33  0CF1               	rrf	(i1___awmod@divisor+1),f
 11138  0A34  0CF0               	rrf	(i1___awmod@divisor),f
 11139  0A35  3EFF               	addlw	-1
 11140  0A36  1D03               	skipz
 11141  0A37  2A32               	goto	u481_25
 11142                           	line	25
 11143                           	
 11144  0A38                     i1l13279:	
 11145  0A38  3001               	movlw	low(01h)
 11146  0A39  02F5               	subwf	(i1___awmod@counter),f
 11147  0A3A  1D03               	btfss	status,2
 11148  0A3B  2A3D               	goto	u482_21
 11149  0A3C  2A3E               	goto	u482_20
 11150  0A3D                     u482_21:
 11151  0A3D  2A21               	goto	i1l10163
 11152  0A3E                     u482_20:
 11153                           	
 11154  0A3E                     i1l10165:	
 11155                           	line	26
 11156                           	
 11157  0A3E                     i1l10159:	
 11158                           	line	27
 11159                           	
 11160  0A3E                     i1l13281:	
 11161  0A3E  0876               	movf	(i1___awmod@sign),w
 11162  0A3F  1D03               	skipz
 11163  0A40  2A42               	goto	u483_20
 11164  0A41  2A47               	goto	i1l10166
 11165  0A42                     u483_20:
 11166                           	line	28
 11167                           	
 11168  0A42                     i1l13283:	
 11169  0A42  09F2               	comf	(i1___awmod@dividend),f
 11170  0A43  09F3               	comf	(i1___awmod@dividend+1),f
 11171  0A44  0AF2               	incf	(i1___awmod@dividend),f
 11172  0A45  1903               	skipnz
 11173  0A46  0AF3               	incf	(i1___awmod@dividend+1),f
 11174                           	
 11175  0A47                     i1l10166:	
 11176                           	line	29
 11177                           	
 11178  0A47                     i1l13285:	
 11179  0A47  0873               	movf	(i1___awmod@dividend+1),w
 11180  0A48  01F1               	clrf	(?i1___awmod+1)
 11181  0A49  07F1               	addwf	(?i1___awmod+1)
 11182  0A4A  0872               	movf	(i1___awmod@dividend),w
 11183  0A4B  01F0               	clrf	(?i1___awmod)
 11184  0A4C  07F0               	addwf	(?i1___awmod)
 11185                           
 11186                           	
 11187  0A4D                     i1l13287:	
 11188                           	line	30
 11189                           	
 11190  0A4D                     i1l10167:	
 11191  0A4D  0008               	return
 11192                           	opt stack 0
 11193                           GLOBAL	__end_ofi1___awmod
 11194  0A4E                     	__end_ofi1___awmod:
 11195 ;; =============== function i1___awmod ends ============
 11196                           
 11197                           	signat	i1___awmod,90
 11198                           	global	i1___awdiv
 11199                           psect	text1681,local,class=CODE,delta=2
 11200                           global __ptext1681
 11201  0AB0                     __ptext1681:
 11202                           
 11203 ;; *************** function i1___awdiv *****************
 11204 ;; Defined at:
 11205 ;;		line 5 in file "C:\Program Files (x86)\HI-TECH Software\PICC\9.71a\sources\awdiv.c"
 11206 ;; Parameters:    Size  Location     Type
 11207 ;;  __awdiv         2    0[COMMON] int 
 11208 ;;  __awdiv         2    2[COMMON] int 
 11209 ;; Auto vars:     Size  Location     Type
 11210 ;;  __awdiv         2    7[COMMON] int 
 11211 ;;  __awdiv         1    6[COMMON] unsigned char 
 11212 ;;  __awdiv         1    5[COMMON] unsigned char 
 11213 ;; Return value:  Size  Location     Type
 11214 ;;                  2    0[COMMON] int 
 11215 ;; Registers used:
 11216 ;;		wreg, status,2, status,0
 11217 ;; Tracked objects:
 11218 ;;		On entry : 0/0
 11219 ;;		On exit  : 0/0
 11220 ;;		Unchanged: 0/0
 11221 ;; Data sizes:     COMMON   BANK0   BANK1   BANK3   BANK2
 11222 ;;      Params:         4       0       0       0       0
 11223 ;;      Locals:         4       0       0       0       0
 11224 ;;      Temps:          1       0       0       0       0
 11225 ;;      Totals:         9       0       0       0       0
 11226 ;;Total ram usage:        9 bytes
 11227 ;; Hardware stack levels used:    1
 11228 ;; This function calls:
 11229 ;;		Nothing
 11230 ;; This function is called by:
 11231 ;;		_print_ADCValue
 11232 ;;		i1_lcd_writeThisDigit
 11233 ;; This function uses a non-reentrant model
 11234 ;;
 11235                           psect	text1681
 11236                           	file	"C:\Program Files (x86)\HI-TECH Software\PICC\9.71a\sources\awdiv.c"
 11237                           	line	5
 11238                           	global	__size_ofi1___awdiv
 11239  0070                     	__size_ofi1___awdiv	equ	__end_ofi1___awdiv-i1___awdiv
 11240                           	
 11241  0AB0                     i1___awdiv:	
 11242 ;; hardware stack exceeded
 11243                           	opt	stack 0
 11244                           ; Regs used in i1___awdiv: [wreg+status,2+status,0]
 11245                           	line	9
 11246                           	
 11247  0AB0                     i1l13215:	
 11248  0AB0  1003               	clrc
 11249  0AB1  3000               	movlw	0
 11250  0AB2  1803               	btfsc	status,0
 11251  0AB3  3001               	movlw	1
 11252  0AB4  00F6               	movwf	(i1___awdiv@sign)
 11253                           	line	10
 11254                           	
 11255  0AB5                     i1l13217:	
 11256  0AB5  1FF1               	btfss	(i1___awdiv@divisor+1),7
 11257  0AB6  2AB8               	goto	u465_21
 11258  0AB7  2AB9               	goto	u465_20
 11259  0AB8                     u465_21:
 11260  0AB8  2AC1               	goto	i1l10089
 11261  0AB9                     u465_20:
 11262                           	line	11
 11263                           	
 11264  0AB9                     i1l13219:	
 11265  0AB9  09F0               	comf	(i1___awdiv@divisor),f
 11266  0ABA  09F1               	comf	(i1___awdiv@divisor+1),f
 11267  0ABB  0AF0               	incf	(i1___awdiv@divisor),f
 11268  0ABC  1903               	skipnz
 11269  0ABD  0AF1               	incf	(i1___awdiv@divisor+1),f
 11270                           	line	12
 11271  0ABE  01F6               	clrf	(i1___awdiv@sign)
 11272  0ABF  1403               	bsf	status,0
 11273  0AC0  0DF6               	rlf	(i1___awdiv@sign),f
 11274                           	line	13
 11275                           	
 11276  0AC1                     i1l10089:	
 11277                           	line	14
 11278                           	
 11279  0AC1                     i1l13221:	
 11280  0AC1  1FF3               	btfss	(i1___awdiv@dividend+1),7
 11281  0AC2  2AC4               	goto	u466_21
 11282  0AC3  2AC5               	goto	u466_20
 11283  0AC4                     u466_21:
 11284  0AC4  2ACE               	goto	i1l10090
 11285  0AC5                     u466_20:
 11286                           	line	15
 11287                           	
 11288  0AC5                     i1l13223:	
 11289  0AC5  09F2               	comf	(i1___awdiv@dividend),f
 11290  0AC6  09F3               	comf	(i1___awdiv@dividend+1),f
 11291  0AC7  0AF2               	incf	(i1___awdiv@dividend),f
 11292  0AC8  1903               	skipnz
 11293  0AC9  0AF3               	incf	(i1___awdiv@dividend+1),f
 11294                           	line	16
 11295                           	
 11296  0ACA                     i1l13225:	
 11297  0ACA  3001               	movlw	(01h)
 11298  0ACB  00F4               	movwf	(??i1___awdiv+0)+0
 11299  0ACC  0874               	movf	(??i1___awdiv+0)+0,w
 11300  0ACD  06F6               	xorwf	(i1___awdiv@sign),f
 11301                           	line	17
 11302                           	
 11303  0ACE                     i1l10090:	
 11304                           	line	18
 11305  0ACE  3000               	movlw	low(0)
 11306  0ACF  00F7               	movwf	(i1___awdiv@quotient)
 11307  0AD0  3000               	movlw	high(0)
 11308  0AD1  00F8               	movwf	((i1___awdiv@quotient))+1
 11309                           	line	19
 11310  0AD2  0871               	movf	(i1___awdiv@divisor+1),w
 11311  0AD3  0470               	iorwf	(i1___awdiv@divisor),w
 11312  0AD4  1903               	skipnz
 11313  0AD5  2AD7               	goto	u467_21
 11314  0AD6  2AD8               	goto	u467_20
 11315  0AD7                     u467_21:
 11316  0AD7  2B10               	goto	i1l10091
 11317  0AD8                     u467_20:
 11318                           	line	20
 11319                           	
 11320  0AD8                     i1l13227:	
 11321  0AD8  01F5               	clrf	(i1___awdiv@counter)
 11322  0AD9  1403               	bsf	status,0
 11323  0ADA  0DF5               	rlf	(i1___awdiv@counter),f
 11324                           	line	21
 11325  0ADB  2AE7               	goto	i1l10092
 11326                           	
 11327  0ADC                     i1l10093:	
 11328                           	line	22
 11329                           	
 11330  0ADC                     i1l13229:	
 11331  0ADC  3001               	movlw	01h
 11332                           	
 11333  0ADD                     u468_25:
 11334  0ADD  1003               	clrc
 11335  0ADE  0DF0               	rlf	(i1___awdiv@divisor),f
 11336  0ADF  0DF1               	rlf	(i1___awdiv@divisor+1),f
 11337  0AE0  3EFF               	addlw	-1
 11338  0AE1  1D03               	skipz
 11339  0AE2  2ADD               	goto	u468_25
 11340                           	line	23
 11341                           	
 11342  0AE3                     i1l13231:	
 11343  0AE3  3001               	movlw	(01h)
 11344  0AE4  00F4               	movwf	(??i1___awdiv+0)+0
 11345  0AE5  0874               	movf	(??i1___awdiv+0)+0,w
 11346  0AE6  07F5               	addwf	(i1___awdiv@counter),f
 11347                           	line	24
 11348                           	
 11349  0AE7                     i1l10092:	
 11350                           	line	21
 11351                           	
 11352  0AE7                     i1l13233:	
 11353  0AE7  1FF1               	btfss	(i1___awdiv@divisor+1),(15)&7
 11354  0AE8  2AEA               	goto	u469_21
 11355  0AE9  2AEB               	goto	u469_20
 11356  0AEA                     u469_21:
 11357  0AEA  2ADC               	goto	i1l10093
 11358  0AEB                     u469_20:
 11359                           	
 11360  0AEB                     i1l10094:	
 11361                           	line	25
 11362                           	
 11363  0AEB                     i1l10095:	
 11364                           	line	26
 11365                           	
 11366  0AEB                     i1l13235:	
 11367  0AEB  3001               	movlw	01h
 11368                           	
 11369  0AEC                     u470_25:
 11370  0AEC  1003               	clrc
 11371  0AED  0DF7               	rlf	(i1___awdiv@quotient),f
 11372  0AEE  0DF8               	rlf	(i1___awdiv@quotient+1),f
 11373  0AEF  3EFF               	addlw	-1
 11374  0AF0  1D03               	skipz
 11375  0AF1  2AEC               	goto	u470_25
 11376                           	line	27
 11377  0AF2  0871               	movf	(i1___awdiv@divisor+1),w
 11378  0AF3  0273               	subwf	(i1___awdiv@dividend+1),w
 11379  0AF4  1D03               	skipz
 11380  0AF5  2AF8               	goto	u471_25
 11381  0AF6  0870               	movf	(i1___awdiv@divisor),w
 11382  0AF7  0272               	subwf	(i1___awdiv@dividend),w
 11383  0AF8                     u471_25:
 11384  0AF8  1C03               	skipc
 11385  0AF9  2AFB               	goto	u471_21
 11386  0AFA  2AFC               	goto	u471_20
 11387  0AFB                     u471_21:
 11388  0AFB  2B03               	goto	i1l10096
 11389  0AFC                     u471_20:
 11390                           	line	28
 11391                           	
 11392  0AFC                     i1l13237:	
 11393  0AFC  0870               	movf	(i1___awdiv@divisor),w
 11394  0AFD  02F2               	subwf	(i1___awdiv@dividend),f
 11395  0AFE  0871               	movf	(i1___awdiv@divisor+1),w
 11396  0AFF  1C03               	skipc
 11397  0B00  03F3               	decf	(i1___awdiv@dividend+1),f
 11398  0B01  02F3               	subwf	(i1___awdiv@dividend+1),f
 11399                           	line	29
 11400                           	
 11401  0B02                     i1l13239:	
 11402  0B02  1477               	bsf	(i1___awdiv@quotient)+(0/8),(0)&7
 11403                           	line	30
 11404                           	
 11405  0B03                     i1l10096:	
 11406                           	line	31
 11407                           	
 11408  0B03                     i1l13241:	
 11409  0B03  3001               	movlw	01h
 11410                           	
 11411  0B04                     u472_25:
 11412  0B04  1003               	clrc
 11413  0B05  0CF1               	rrf	(i1___awdiv@divisor+1),f
 11414  0B06  0CF0               	rrf	(i1___awdiv@divisor),f
 11415  0B07  3EFF               	addlw	-1
 11416  0B08  1D03               	skipz
 11417  0B09  2B04               	goto	u472_25
 11418                           	line	32
 11419                           	
 11420  0B0A                     i1l13243:	
 11421  0B0A  3001               	movlw	low(01h)
 11422  0B0B  02F5               	subwf	(i1___awdiv@counter),f
 11423  0B0C  1D03               	btfss	status,2
 11424  0B0D  2B0F               	goto	u473_21
 11425  0B0E  2B10               	goto	u473_20
 11426  0B0F                     u473_21:
 11427  0B0F  2AEB               	goto	i1l10095
 11428  0B10                     u473_20:
 11429                           	
 11430  0B10                     i1l10097:	
 11431                           	line	33
 11432                           	
 11433  0B10                     i1l10091:	
 11434                           	line	34
 11435                           	
 11436  0B10                     i1l13245:	
 11437  0B10  0876               	movf	(i1___awdiv@sign),w
 11438  0B11  1D03               	skipz
 11439  0B12  2B14               	goto	u474_20
 11440  0B13  2B19               	goto	i1l10098
 11441  0B14                     u474_20:
 11442                           	line	35
 11443                           	
 11444  0B14                     i1l13247:	
 11445  0B14  09F7               	comf	(i1___awdiv@quotient),f
 11446  0B15  09F8               	comf	(i1___awdiv@quotient+1),f
 11447  0B16  0AF7               	incf	(i1___awdiv@quotient),f
 11448  0B17  1903               	skipnz
 11449  0B18  0AF8               	incf	(i1___awdiv@quotient+1),f
 11450                           	
 11451  0B19                     i1l10098:	
 11452                           	line	36
 11453                           	
 11454  0B19                     i1l13249:	
 11455  0B19  0878               	movf	(i1___awdiv@quotient+1),w
 11456  0B1A  01F1               	clrf	(?i1___awdiv+1)
 11457  0B1B  07F1               	addwf	(?i1___awdiv+1)
 11458  0B1C  0877               	movf	(i1___awdiv@quotient),w
 11459  0B1D  01F0               	clrf	(?i1___awdiv)
 11460  0B1E  07F0               	addwf	(?i1___awdiv)
 11461                           
 11462                           	
 11463  0B1F                     i1l13251:	
 11464                           	line	37
 11465                           	
 11466  0B1F                     i1l10099:	
 11467  0B1F  0008               	return
 11468                           	opt stack 0
 11469                           GLOBAL	__end_ofi1___awdiv
 11470  0B20                     	__end_ofi1___awdiv:
 11471 ;; =============== function i1___awdiv ends ============
 11472                           
 11473                           	signat	i1___awdiv,90
 11474                           	global	i1_start_timer0
 11475                           psect	text1682,local,class=CODE,delta=2
 11476                           global __ptext1682
 11477  154D                     __ptext1682:
 11478                           
 11479 ;; *************** function i1_start_timer0 *****************
 11480 ;; Defined at:
 11481 ;;		line 32 in file "timer0.c"
 11482 ;; Parameters:    Size  Location     Type
 11483 ;;		None
 11484 ;; Auto vars:     Size  Location     Type
 11485 ;;		None
 11486 ;; Return value:  Size  Location     Type
 11487 ;;		None               void
 11488 ;; Registers used:
 11489 ;;		wreg
 11490 ;; Tracked objects:
 11491 ;;		On entry : 0/0
 11492 ;;		On exit  : 0/0
 11493 ;;		Unchanged: 0/0
 11494 ;; Data sizes:     COMMON   BANK0   BANK1   BANK3   BANK2
 11495 ;;      Params:         0       0       0       0       0
 11496 ;;      Locals:         0       0       0       0       0
 11497 ;;      Temps:          0       0       0       0       0
 11498 ;;      Totals:         0       0       0       0       0
 11499 ;;Total ram usage:        0 bytes
 11500 ;; Hardware stack levels used:    1
 11501 ;; This function calls:
 11502 ;;		Nothing
 11503 ;; This function is called by:
 11504 ;;		_ISR
 11505 ;; This function uses a non-reentrant model
 11506 ;;
 11507                           psect	text1682
 11508                           	file	"timer0.c"
 11509                           	line	32
 11510                           	global	__size_ofi1_start_timer0
 11511  0005                     	__size_ofi1_start_timer0	equ	__end_ofi1_start_timer0-i1_start_timer0
 11512                           	
 11513  154D                     i1_start_timer0:	
 11514 ;; hardware stack exceeded
 11515                           	opt	stack 0
 11516                           ; Regs used in i1_start_timer0: [wreg]
 11517                           	line	33
 11518                           	
 11519  154D                     i1l13213:	
 11520                           ;timer0.c: 33: TMR0 = 1;
 11521  154D  3001               	movlw	(01h)
 11522  154E  1283               	bcf	status, 5	;RP0=0, select bank0
 11523  154F  1303               	bcf	status, 6	;RP1=0, select bank0
 11524  1550  0081               	movwf	(1)	;volatile
 11525                           	line	34
 11526                           	
 11527  1551                     i1l9060:	
 11528  1551  0008               	return
 11529                           	opt stack 0
 11530                           GLOBAL	__end_ofi1_start_timer0
 11531  1552                     	__end_ofi1_start_timer0:
 11532 ;; =============== function i1_start_timer0 ends ============
 11533                           
 11534                           	signat	i1_start_timer0,88
 11535                           	global	i1_enableInterrupt_RB0
 11536                           psect	text1683,local,class=CODE,delta=2
 11537                           global __ptext1683
 11538  1548                     __ptext1683:
 11539                           
 11540 ;; *************** function i1_enableInterrupt_RB0 *****************
 11541 ;; Defined at:
 11542 ;;		line 11 in file "PORTB_Config.c"
 11543 ;; Parameters:    Size  Location     Type
 11544 ;;		None
 11545 ;; Auto vars:     Size  Location     Type
 11546 ;;		None
 11547 ;; Return value:  Size  Location     Type
 11548 ;;		None               void
 11549 ;; Registers used:
 11550 ;;		None
 11551 ;; Tracked objects:
 11552 ;;		On entry : 0/0
 11553 ;;		On exit  : 0/0
 11554 ;;		Unchanged: 0/0
 11555 ;; Data sizes:     COMMON   BANK0   BANK1   BANK3   BANK2
 11556 ;;      Params:         0       0       0       0       0
 11557 ;;      Locals:         0       0       0       0       0
 11558 ;;      Temps:          0       0       0       0       0
 11559 ;;      Totals:         0       0       0       0       0
 11560 ;;Total ram usage:        0 bytes
 11561 ;; Hardware stack levels used:    1
 11562 ;; This function calls:
 11563 ;;		Nothing
 11564 ;; This function is called by:
 11565 ;;		_ISR
 11566 ;; This function uses a non-reentrant model
 11567 ;;
 11568                           psect	text1683
 11569                           	file	"PORTB_Config.c"
 11570                           	line	11
 11571                           	global	__size_ofi1_enableInterrupt_RB0
 11572  0005                     	__size_ofi1_enableInterrupt_RB0	equ	__end_ofi1_enableInterrupt_RB0-i1_enableInterrupt_R
                                 B0
 11573                           	
 11574  1548                     i1_enableInterrupt_RB0:	
 11575 ;; hardware stack exceeded
 11576                           	opt	stack 0
 11577                           ; Regs used in i1_enableInterrupt_RB0: []
 11578                           	line	12
 11579                           	
 11580  1548                     i1l13099:	
 11581                           ;PORTB_Config.c: 12: INTEDG = 0;
 11582  1548  1683               	bsf	status, 5	;RP0=1, select bank1
 11583  1549  1303               	bcf	status, 6	;RP1=0, select bank1
 11584  154A  1301               	bcf	(1038/8)^080h,(1038)&7
 11585                           	line	13
 11586                           ;PORTB_Config.c: 13: INTE = 1;
 11587  154B  160B               	bsf	(92/8),(92)&7
 11588                           	line	14
 11589                           	
 11590  154C                     i1l5433:	
 11591  154C  0008               	return
 11592                           	opt stack 0
 11593                           GLOBAL	__end_ofi1_enableInterrupt_RB0
 11594  154D                     	__end_ofi1_enableInterrupt_RB0:
 11595 ;; =============== function i1_enableInterrupt_RB0 ends ============
 11596                           
 11597                           	signat	i1_enableInterrupt_RB0,88
 11598                           	global	_stop_timer0
 11599                           psect	text1684,local,class=CODE,delta=2
 11600                           global __ptext1684
 11601  1544                     __ptext1684:
 11602                           
 11603 ;; *************** function _stop_timer0 *****************
 11604 ;; Defined at:
 11605 ;;		line 37 in file "timer0.c"
 11606 ;; Parameters:    Size  Location     Type
 11607 ;;		None
 11608 ;; Auto vars:     Size  Location     Type
 11609 ;;		None
 11610 ;; Return value:  Size  Location     Type
 11611 ;;		None               void
 11612 ;; Registers used:
 11613 ;;		status,2
 11614 ;; Tracked objects:
 11615 ;;		On entry : 0/0
 11616 ;;		On exit  : 0/0
 11617 ;;		Unchanged: 0/0
 11618 ;; Data sizes:     COMMON   BANK0   BANK1   BANK3   BANK2
 11619 ;;      Params:         0       0       0       0       0
 11620 ;;      Locals:         0       0       0       0       0
 11621 ;;      Temps:          0       0       0       0       0
 11622 ;;      Totals:         0       0       0       0       0
 11623 ;;Total ram usage:        0 bytes
 11624 ;; Hardware stack levels used:    1
 11625 ;; This function calls:
 11626 ;;		Nothing
 11627 ;; This function is called by:
 11628 ;;		_ISR
 11629 ;; This function uses a non-reentrant model
 11630 ;;
 11631                           psect	text1684
 11632                           	file	"timer0.c"
 11633                           	line	37
 11634                           	global	__size_of_stop_timer0
 11635  0004                     	__size_of_stop_timer0	equ	__end_of_stop_timer0-_stop_timer0
 11636                           	
 11637  1544                     _stop_timer0:	
 11638 ;; hardware stack exceeded
 11639                           	opt	stack 0
 11640                           ; Regs used in _stop_timer0: [status,2]
 11641                           	line	38
 11642                           	
 11643  1544                     i1l12905:	
 11644                           ;timer0.c: 38: TMR0 = 0;
 11645  1544  1283               	bcf	status, 5	;RP0=0, select bank0
 11646  1545  1303               	bcf	status, 6	;RP1=0, select bank0
 11647  1546  0181               	clrf	(1)	;volatile
 11648                           	line	39
 11649                           	
 11650  1547                     i1l9063:	
 11651  1547  0008               	return
 11652                           	opt stack 0
 11653                           GLOBAL	__end_of_stop_timer0
 11654  1548                     	__end_of_stop_timer0:
 11655 ;; =============== function _stop_timer0 ends ============
 11656                           
 11657                           	signat	_stop_timer0,88
 11658                           	global	_disableInterrupt_RB0
 11659                           psect	text1685,local,class=CODE,delta=2
 11660                           global __ptext1685
 11661  1542                     __ptext1685:
 11662                           
 11663 ;; *************** function _disableInterrupt_RB0 *****************
 11664 ;; Defined at:
 11665 ;;		line 17 in file "PORTB_Config.c"
 11666 ;; Parameters:    Size  Location     Type
 11667 ;;		None
 11668 ;; Auto vars:     Size  Location     Type
 11669 ;;		None
 11670 ;; Return value:  Size  Location     Type
 11671 ;;		None               void
 11672 ;; Registers used:
 11673 ;;		None
 11674 ;; Tracked objects:
 11675 ;;		On entry : 0/0
 11676 ;;		On exit  : 0/0
 11677 ;;		Unchanged: 0/0
 11678 ;; Data sizes:     COMMON   BANK0   BANK1   BANK3   BANK2
 11679 ;;      Params:         0       0       0       0       0
 11680 ;;      Locals:         0       0       0       0       0
 11681 ;;      Temps:          0       0       0       0       0
 11682 ;;      Totals:         0       0       0       0       0
 11683 ;;Total ram usage:        0 bytes
 11684 ;; Hardware stack levels used:    1
 11685 ;; This function calls:
 11686 ;;		Nothing
 11687 ;; This function is called by:
 11688 ;;		_ISR
 11689 ;; This function uses a non-reentrant model
 11690 ;;
 11691                           psect	text1685
 11692                           	file	"PORTB_Config.c"
 11693                           	line	17
 11694                           	global	__size_of_disableInterrupt_RB0
 11695  0002                     	__size_of_disableInterrupt_RB0	equ	__end_of_disableInterrupt_RB0-_disableInterrupt_RB0
 11696                           	
 11697  1542                     _disableInterrupt_RB0:	
 11698 ;; hardware stack exceeded
 11699                           	opt	stack 0
 11700                           ; Regs used in _disableInterrupt_RB0: []
 11701                           	line	18
 11702                           	
 11703  1542                     i1l12903:	
 11704                           ;PORTB_Config.c: 18: INTE = 0;
 11705  1542  120B               	bcf	(92/8),(92)&7
 11706                           	line	19
 11707                           	
 11708  1543                     i1l5436:	
 11709  1543  0008               	return
 11710                           	opt stack 0
 11711                           GLOBAL	__end_of_disableInterrupt_RB0
 11712  1544                     	__end_of_disableInterrupt_RB0:
 11713 ;; =============== function _disableInterrupt_RB0 ends ============
 11714                           
 11715                           	signat	_disableInterrupt_RB0,88
 11716                           	global	_adc_getValue
 11717                           psect	text1686,local,class=CODE,delta=2
 11718                           global __ptext1686
 11719  1773                     __ptext1686:
 11720                           
 11721 ;; *************** function _adc_getValue *****************
 11722 ;; Defined at:
 11723 ;;		line 14 in file "ADC.c"
 11724 ;; Parameters:    Size  Location     Type
 11725 ;;		None
 11726 ;; Auto vars:     Size  Location     Type
 11727 ;;  adcValue        2    6[COMMON] int 
 11728 ;;  temp            2    4[COMMON] int 
 11729 ;; Return value:  Size  Location     Type
 11730 ;;                  2    0[COMMON] int 
 11731 ;; Registers used:
 11732 ;;		wreg, status,2, status,0, btemp+0
 11733 ;; Tracked objects:
 11734 ;;		On entry : 0/0
 11735 ;;		On exit  : 0/0
 11736 ;;		Unchanged: 0/0
 11737 ;; Data sizes:     COMMON   BANK0   BANK1   BANK3   BANK2
 11738 ;;      Params:         2       0       0       0       0
 11739 ;;      Locals:         4       0       0       0       0
 11740 ;;      Temps:          2       0       0       0       0
 11741 ;;      Totals:         8       0       0       0       0
 11742 ;;Total ram usage:        8 bytes
 11743 ;; Hardware stack levels used:    1
 11744 ;; This function calls:
 11745 ;;		Nothing
 11746 ;; This function is called by:
 11747 ;;		_ISR
 11748 ;;		_readADCvalue
 11749 ;; This function uses a non-reentrant model
 11750 ;;
 11751                           psect	text1686
 11752                           	file	"ADC.c"
 11753                           	line	14
 11754                           	global	__size_of_adc_getValue
 11755  002F                     	__size_of_adc_getValue	equ	__end_of_adc_getValue-_adc_getValue
 11756                           	
 11757  1773                     _adc_getValue:	
 11758 ;; hardware stack exceeded
 11759                           	opt	stack 0
 11760                           ; Regs used in _adc_getValue: [wreg+status,2-btemp+0]
 11761                           	line	16
 11762                           	
 11763  1773                     i1l12781:	
 11764                           ;ADC.c: 16: ADON = 1;
 11765  1773  1283               	bcf	status, 5	;RP0=0, select bank0
 11766  1774  1303               	bcf	status, 6	;RP1=0, select bank0
 11767  1775  141F               	bsf	(248/8),(248)&7
 11768                           	line	18
 11769                           	
 11770  1776                     i1l12783:	
 11771                           ;ADC.c: 18: int adcValue = 0;
 11772  1776  3000               	movlw	low(0)
 11773  1777  00F6               	movwf	(adc_getValue@adcValue)
 11774  1778  3000               	movlw	high(0)
 11775  1779  00F7               	movwf	((adc_getValue@adcValue))+1
 11776                           	line	19
 11777                           ;ADC.c: 19: int temp = 0;
 11778  177A  3000               	movlw	low(0)
 11779  177B  00F4               	movwf	(adc_getValue@temp)
 11780  177C  3000               	movlw	high(0)
 11781  177D  00F5               	movwf	((adc_getValue@temp))+1
 11782                           	line	21
 11783                           	
 11784  177E                     i1l12785:	
 11785                           ;ADC.c: 21: GODONE = 1;
 11786  177E  149F               	bsf	(249/8),(249)&7
 11787                           	line	22
 11788                           ;ADC.c: 22: while (GODONE);
 11789  177F  2F80               	goto	i1l878
 11790                           	
 11791  1780                     i1l879:	
 11792                           	
 11793  1780                     i1l878:	
 11794  1780  189F               	btfsc	(249/8),(249)&7
 11795  1781  2F83               	goto	u406_21
 11796  1782  2F84               	goto	u406_20
 11797  1783                     u406_21:
 11798  1783  2F80               	goto	i1l879
 11799  1784                     u406_20:
 11800                           	
 11801  1784                     i1l880:	
 11802                           	line	24
 11803                           	
 11804  1784                     i1l12787:	
 11805                           ;ADC.c: 24: adcValue = (ADRESH << 8) + ADRESL;
 11806  1784  081E               	movf	(30),w	;volatile
 11807  1785  00F2               	movwf	(??_adc_getValue+0)+0
 11808  1786  01F3               	clrf	(??_adc_getValue+0)+0+1
 11809  1787  3008               	movlw	08h
 11810  1788  00FE               	movwf	btemp+0
 11811  1789                     u407_25:
 11812  1789  1003               	clrc
 11813  178A  0DF2               	rlf	(??_adc_getValue+0)+0,f
 11814  178B  0DF3               	rlf	(??_adc_getValue+0)+1,f
 11815  178C  0BFE               	decfsz	btemp+0,f
 11816  178D  2F89               	goto	u407_25
 11817  178E  1683               	bsf	status, 5	;RP0=1, select bank1
 11818  178F  1303               	bcf	status, 6	;RP1=0, select bank1
 11819  1790  081E               	movf	(158)^080h,w	;volatile
 11820  1791  0772               	addwf	0+(??_adc_getValue+0)+0,w
 11821  1792  00F6               	movwf	(adc_getValue@adcValue)
 11822  1793  3000               	movlw	0
 11823  1794  1803               	skipnc
 11824  1795  3001               	movlw	1
 11825  1796  0773               	addwf	1+(??_adc_getValue+0)+0,w
 11826  1797  00F7               	movwf	1+(adc_getValue@adcValue)
 11827                           	line	28
 11828                           	
 11829  1798                     i1l12789:	
 11830                           ;ADC.c: 28: ADON = 0;
 11831  1798  1283               	bcf	status, 5	;RP0=0, select bank0
 11832  1799  1303               	bcf	status, 6	;RP1=0, select bank0
 11833  179A  101F               	bcf	(248/8),(248)&7
 11834                           	line	30
 11835                           	
 11836  179B                     i1l12791:	
 11837                           ;ADC.c: 30: return adcValue;
 11838  179B  0877               	movf	(adc_getValue@adcValue+1),w
 11839  179C  01F1               	clrf	(?_adc_getValue+1)
 11840  179D  07F1               	addwf	(?_adc_getValue+1)
 11841  179E  0876               	movf	(adc_getValue@adcValue),w
 11842  179F  01F0               	clrf	(?_adc_getValue)
 11843  17A0  07F0               	addwf	(?_adc_getValue)
 11844                           
 11845                           	
 11846  17A1                     i1l12793:	
 11847                           	line	31
 11848                           	
 11849  17A1                     i1l881:	
 11850  17A1  0008               	return
 11851                           	opt stack 0
 11852                           GLOBAL	__end_of_adc_getValue
 11853  17A2                     	__end_of_adc_getValue:
 11854 ;; =============== function _adc_getValue ends ============
 11855                           
 11856                           	signat	_adc_getValue,90
 11857                           psect	text1687,local,class=CODE,delta=2
 11858                           global __ptext1687
 11859  0000                     __ptext1687:
 11860                           	global	btemp
 11861  007E                     	btemp set 07Eh
 11862                           
 11863                           	DABS	1,126,2	;btemp
 11864                           	global	wtemp0
 11865  007E                     	wtemp0 set btemp


HI-TECH Software PICC Macro Assembler V9.71a build 6446 
Symbol Table                                                                                   Wed Sep 13 00:57:09 2017

                      lcd_cmd@cmnd 0031              __size_of_start_timer0 0005  
                                pc 0002                                 _RD 0C60  
                               _RW 04A2                                 _WR 0C61  
                     ___awdiv@sign 0035                                 fsr 0004  
          ?_GlobalInterrupt_ENABLE 0070              ??_enableInterrupt_RB0 002F  
      lcd_writeThisStringAt@column 0034                                l875 1577  
                              _GIE 005F                                _RB0 0030  
                              _RB4 0034                                _RB5 0035  
                              _RE0 0048                                _RB6 0036  
                              _RE1 0049                                _RB7 0037  
                _DownButtonHandler 0C18                                _PS0 0408  
                              _PR2 0092                                _PS1 0409  
                              _PS2 040A                                _ISR 0394  
                              _PSA 040B                                fsr0 0004  
                              indf 0000                       ___awmod@sign 0035  
                  ??_isItFirstTime 002F               adc_getValue@adcValue 0076  
               ?_DownButtonHandler 0070                         i1_lcd_puts 1668  
            __size_of_adc_getValue 002F     __size_of_SettingModeOperations 002F  
            ??_updateConfiguration 0070      __end_of_SettingModeOperations 1800  
            ?_default_bootSequence 0070                               ?_ISR 0070  
                             l3600 17E7                               l3601 17ED  
                             l3610 17B8                               l3602 17FF  
                             l3611 17BE                               l3612 17D0  
                             l3605 17C0     __size_ofi1_enableInterrupt_RB0 0005  
                             l1782 0801                               l3606 17A6  
                             l3607 17D0                               l4520 1772  
                             l3608 17AC                               l3560 0E67  
                             l3609 17B2                               l3561 0E8B  
                             l4513 0980                               l4530 011A  
                             l3570 0EAF                               l4514 0998  
                             l4523 15C3                               l4531 011B  
                             l3563 0E6B                               l4515 099D  
                             l4540 015B                               l4532 011B  
                             l3572 0EA4                               l3564 0E8B  
                             l4516 099E                               l4541 0171  
                             l4533 0121                               l3581 0ED7  
                             l3573 0ED3                               l4517 099E  
                             l5430 1561                               l4550 01BC  
                             l4542 0182                               l4534 0137  
                             l4526 1667                               l3590 0F1B  
                             l3582 0EF2                               l3566 0E80  
                             l4551 01C8                               l4543 0182  
                             l4535 0148                               l3591 0F1B  
                             l3575 0EB3                               l3567 0EAF  
                             l3559 0EF2                               l4560 0203  
                             l4552 01C9                               l4544 018E  
                             l4536 0148                               l6320 09BA  
                             l3592 0F27                               l3584 0EEC  
                             l3576 0ED3                               l5433 1556  
                             l4561 0209                               l4553 01C9  
                             l4545 018F                               l4537 0154  
                             l4529 0337                               l6321 09AE  
                             l3569 0E8F                               l4570 026A  
                             l4562 021F                               l4554 01CF  
                             l4546 018F                               l4538 0155  
                             l6330 09E7                               l6322 09B9  
                             l3586 0EFB                               l3578 0EC8  
                             l4571 026A                               l4563 0230  
                             l4555 01E5                               l4547 0195  
                             l4539 0155                               l6331 09ED  
                             l6323 09B9                               l3595 17EF  
                             l3587 0EFB                               l3579 0EF2  
                             l4580 02B1                               l4572 0276  
                             l4564 0230                               l4556 01F6  
                             l4548 01AB                               l6324 09E7  
                             l6340 07E4                               l3596 17D5  
                             l3588 0F1B                               l4581 02B1  
                             l4573 0277                               l4565 023C  
                             l4557 01F6                               l4549 01BC  
                             l6325 09DE                               l6341 07F2  
                             l3597 17FF                               l3589 0F0D  
                             l4590 0319                               l4582 02B7  
                             l4574 0277                               l4566 023D  
                             l4558 0202                               l6326 09CF  
                             l6350 0FF9                               l6342 07F2  
                             l6334 07CF                               l3598 17DB  
                             l4591 032A                               l4583 02CD  
                             l4575 027D                               l4567 023D  
                             l4559 0203                               l6327 09DD  
                             l6351 0F5F                               l6343 07F9  
                             l6335 07BD                               l3599 17E1  
                             l4592 032A                               l4584 02DE  
                             l4576 0293                               l4568 0243  
                             l6328 09DD                               l6360 0FF9  
                             l6352 0F5E                               l6344 07F9  
                             l6336 07CE                               l4593 0393  
                             l4585 02DE                               l4577 02A4  
                             l4569 0259                               l6329 09E7  
                             l6361 0FFF                               l6353 0FF9  
                             l6345 07FF                               l6337 07CE  
                             l4594 0393                               l4586 02FC  
                             l4578 02A4                               l6370 0C65  
                             l6354 0F7B                               l6338 07F9  
                             l4595 0393                               l4587 02FD  
                             l4579 02B0                               l6371 0C64  
                             l6355 0F7A                               l6339 07F3  
                             l4588 02FD                               l6380 0622  
                             l6372 0CC3                               l6364 0C2E  
                             l6356 0FF9                               l6348 0F44  
                             l4589 0303                               l7261 0844  
                             l6381 0604                               l6373 0C81  
                             l6365 0C2D                               l6357 0F97  
                             l6349 0F43                               l7262 0859  
                             l6382 0622                               l6374 0C80  
                             l6366 0CC3                               l6358 0F96  
                             l7263 0859                               l6383 0622  
                             l6375 0CC3                               l6367 0C49  
                             l6359 0FF9                               l7272 1739  
                             l7280 1647                               l6384 0677  
                             l6376 0CC3                               l6368 0C48  
                             l7273 1721                               l7281 1647  
                             l6385 0659                               l6377 0CC9  
                             l6369 0CC3                               l7266 095D  
                             l7274 1747                               l7290 160B  
                             l6386 0677                               l7275 1747  
                             l6387 0677                               l9060 155B  
                             l7284 156F                               l6388 06AD  
                             l7269 091C                               l8181 16FA  
                             l6389 06BC                               l7278 1638  
                             l7279 1647                               l8175 16B0  
                             l8184 171F                               l9057 15D9  
                             l7298 0D89                               l8178 16D5  
                             _ADON 00F8                               STR_1 00C4  
                             STR_2 00B2                               STR_3 0095  
                             STR_4 00E7                               STR_5 00E7  
                             STR_6 00DA                               STR_7 0057  
                             STR_8 0086                               STR_9 0036  
    __end_ofi1_enableInterrupt_RB0 154D                               _T0IE 005D  
                             _T0IF 005A                               _T0CS 040D  
                             _T0SE 040C                       lcd_init@F891 0050  
                             u5000 0243                               u5001 0242  
                             u5010 0258                               u5011 0257  
                             u5100 0318                               u5020 0269  
                             u5101 0317                               u5021 0268  
                             u5110 0329                               u5030 027D  
                             u5111 0328                               u5031 027C  
                             u6000 0B6E                               u5120 033F  
                             u5040 0292                               u6001 0B6D  
                             u5121 033E                               u5041 0291  
                             u5050 02A3                               u5051 02A2  
                             u6020 0B82                               u5060 02B7  
                             u6021 0B81                               u6005 0B6A  
                             u5061 02B6                               u6030 0B86  
                             u6110 0AA0                               u5070 02CC  
                             u6015 0B76                               u6111 0A9F  
                             u5071 02CB                               u6120 0AA4  
                             u6040 0A59                               u5080 02DD  
                             u6105 0A94                               u6041 0A58  
                             u5081 02DC                               u6050 0A65  
                             u5090 0303                               u6051 0A64  
                             u5091 0302                               _PEIE 005E  
                             u6060 0A70                               u6300 1630  
                             u6061 0A6F                               u6301 162F  
                             _INTE 005C                               u6310 1640  
                             _INTF 0059                               u6311 163F  
                             u7007 06B5                               u6080 0A83  
                             u6320 05D9                               u6400 0C24  
                             u6081 0A82                               u7017 1661  
                             u6321 05D8                               u6401 0C23  
                             u6090 0A8D                               u6330 05EE  
                             u6410 0C34                               u6091 0A8C  
                             u6075 0A75                               u7107 014E  
                             u6235 08E2                               u7027 1714  
                             u6331 05ED                               u6411 0C33  
                             u4900 0181                               u6340 060C  
                             u6500 0C87                               u6420 0C39  
                             u7117 0188                               u4901 0180  
                             u6245 0906                               u7037 16EF  
                             u6341 060B                               u6501 0C86  
                             u6421 0C38                               u4910 0195  
                             u6270 0843                               u6350 062A  
                             u6430 0C3F                               u6510 09A8  
                             u6095 0A89                               u7127 01C2  
                             u4911 0194                               u6255 0923  
                             u6271 0842                               u7047 16CA  
                             u6351 0629                               u6431 0C3E  
                             u6511 09A7                               u4920 01AA  
                             u4840 011A                               u6280 0859  
                             u6360 0641                               u6440 0C4F  
                             u6520 09AD                               u6600 0F3A  
                             u7137 01FC                               u4921 01A9  
                             u4841 0119                               u6265 0947  
                             u6281 0858                               u7057 16A5  
                             u6361 0640                               u6441 0C4E  
                             u6521 09AC                               u6601 0F39  
                             u4930 01BB                               u4850 0121  
                             u6290 1747                               u6370 0661  
                             u6450 0C55                               u6530 09B4  
                             u6610 0F4A                               u7147 0236  
                             u4931 01BA                               u4851 0120  
                             u7067 0939                               u6291 1746  
                             u6371 0660                               u6451 0C54  
                             u6531 09B3                               u6611 0F49  
                             u4940 01CF                               u4860 0136  
                             u6380 067F                               u6460 0C5B  
                             u6540 09C0                               u6700 0F9D  
                             u6620 0F4F                               u7157 0270  
                             u4941 01CE                               u4861 0135  
                             u7077 0955                               u6381 067E  
                             u6461 0C5A                               u6541 09BF  
                             u6701 0F9C                               u6621 0F4E  
                             u4950 01E4                               u4870 0147  
                             u6470 0C6B                               u6390 0C1F  
                             u6550 09C6                               u6630 0F55  
                             u6710 07B4                               u7167 02AA  
                             u4951 01E3                               u4871 0146  
                             u7087 08F8                               u6471 0C6A  
                             u6391 0C1E                               u6551 09C5  
                             u6631 0F54                               u6711 07B3  
                             u4960 01F5                               u4880 015B  
                             u6480 0C71                               u6560 09D5  
                             u6640 0F65                               u6720 07B9  
                             u6800 0E8F                               u7177 02E4  
                             u4961 01F4                               u4881 015A  
                             u7097 0914                               u6481 0C70  
                             u6561 09D4                               u6641 0F64  
                             u6721 07B8                               u6801 0E8E  
                             u4970 0209                               u4890 0170  
                             u6490 0C77                               u6570 09E4  
                             u6650 0F6B                               u6730 07C3  
                             u6810 0EA4                               u7187 0330  
                             u4971 0208                               u4891 016F  
                             u6491 0C76                               u6571 09E3  
                             u6651 0F6A                               u6731 07C2  
                             u6811 0EA3                               u5940 0B2B  
                             u4980 021E                               u6660 0F71  
                             u6580 0F2F                               u6740 07D5  
                             u6900 0F13                               u6820 0EB3  
                             u5941 0B2A                               u4981 021D  
                             u6661 0F70                               u6581 0F2E  
                             u6741 07D4                               u6901 0F12  
                             u6821 0EB2                               u5950 0B37  
                             u4990 022F                               u6670 0F81  
                             u6590 0F34                               u6750 07DB  
                             u6830 0EC8                               u6910 0986  
                             u5951 0B36                               u4991 022E  
                             u6671 0F80                               u6591 0F33  
                             u6751 07DA                               u6831 0EC7  
                             u6911 0985                               u5960 0B4A  
                             u6680 0F87                               u6760 07EA  
                             u6840 0ED7                               u5961 0B49  
                             u6681 0F86                               u6761 07E9  
                             u6841 0ED6                               u6690 0F8D  
                             u6770 07F9                               u6850 0EEC  
                             u6691 0F8C                               u6771 07F8  
                             u6851 0EEB                               u5980 0B5D  
                             u6860 0EF7                               u6780 0E6B  
                             u5981 0B5C                               u6861 0EF6  
                             u6781 0E6A                               _RBPU 040F  
                             u6870 0EFB                               u6790 0E80  
                             u5975 0B4F                               u6791 0E7F  
                             u6927 0E73                               u6880 0F01  
                             u6881 0F00                               u6937 0E97  
                             u6890 0F06                               u5995 0B5E  
                             u6891 0F05                               u6947 0EBB  
                             u6957 0EDF                               u6967 0FD4  
                             u6977 0FF3                               u6987 0C9E  
                             u6997 0CBD             __end_ofi1_UpdateScreen 07AD  
                             _TMR0 0001                               _TMR2 0011  
              ??_DownButtonHandler 00A5                               _WREN 0C62  
      _CurrentWaterQuantity_forTea 0043             ?_PreviousButtonHandler 0070  
                             _main 095E                               btemp 007E  
                     _start_timer0 1557             lcd_writeThisDigit@F912 005B  
                      lcd_puts@ptr 0032  __size_of_peripheral_initialsation 002B  
                             start 0012          ?_peripheral_initialsation 0070  
         lcd_writeThisStringAt@ptr 0035           lcd_writeThisStringAt@row 0038  
              _flag_TenSecond_main 004A                        i1_lcd_clear 1562  
           lcd_writeThisDigit@data 00A4                        _stop_timer0 1544  
                      i1_lcd_write 085A                              ??_ISR 0028  
   __end_of_GlobalInterrupt_ENABLE 0802                    _UpbuttonHandler 0F28  
        __end_of_DownButtonHandler 0CCA                              l10160 0A7F  
                            l10161 0A74                              l10090 0B40  
                            l10162 0A83                              l10091 0B82  
                            l10163 0A83                              l10092 0B59  
                            l10164 0A93                              l10093 0B4E  
                            l10165 0AA0                              l10157 0A61  
                            l10094 0B5D                              l10166 0AA9  
                            l10158 0A6A                              l10095 0B5D  
                            l10167 0AAF                              l10159 0AA0  
                            l10096 0B75                              l13001 1557  
                            l10097 0B82                              l10089 0B33  
                            l10098 0B8B                              l13011 15B5  
                            l10099 0B91                              l13013 15BC  
                            l13021 1560                              l13015 15BE  
                            l13007 15B0                              l13017 15C0  
                            l13009 15B4                              l13019 155C  
                            l14101 0B20                              l13301 0127  
                            l14111 0B3C                              l14103 0B27  
                            l13311 013F                              l13303 012F  
                            l14121 0B5D                              l14113 0B4A  
                            l14105 0B2B                              l13401 0228  
                            l13321 015B                              l13313 0140  
                            l13305 0132                              l14131 0B82  
                            l14123 0B6E                              l14115 0B4E  
                            l14107 0B33                              l13411 0249  
                            l13403 0229                              l13331 0175  
                            l13323 0161                              l13315 0141  
                            l13307 0136                              l14133 0B86  
                            l14125 0B74                              l14117 0B55  
                            l14109 0B37                              l14141 0A55  
                            l13501 0343                              l13421 0261  
                            l13413 0251                              l13405 022F  
                            l13341 0182                              l13333 0179  
                            l13325 0169                              l13317 0147  
                            l13309 013B                              l14301 0822  
                            l14135 0B8B                              l14127 0B75  
                            l14119 0B59                              l14151 0A70  
                            l14143 0A59                              l13511 0360  
                            l13503 034B                              l13431 027D  
                            l13423 0262                              l13415 0254  
                            l13407 0230                              l13351 01AA  
                            l13343 0195                              l13335 017A  
                            l13327 016C                              l13319 0148  
                            l14311 084D                              l14303 0838  
                            l14137 0B91                              l14129 0B7C  
                            l14161 0A8D                              l14153 0A74  
                            l14145 0A61                              l13521 0382  
                            l13513 036D                              l13505 034C  
                            l13441 0297                              l13433 0283  
                            l13425 0263                              l13417 0258  
                            l13409 0243                              l13361 01BB  
                            l13353 01AF                              l13345 019B  
                            l13337 017B                              l13329 0170  
                            l14313 0853                              l14305 083D  
                            l14321 1739                              l14401 05EE  
                            l14171 0AA9                              l14163 0A93  
                            l14155 0A7B                              l14147 0A65  
                            l14139 0A4E                              l13523 038A  
                            l13515 0375                              l13507 0354  
                            l13451 02A4                              l13443 029B  
                            l13435 028B                              l13427 0269  
                            l13419 025D                              l13371 01E0  
                            l13363 01BC                              l13355 01B3  
                            l13347 01A3                              l13339 0181  
                            l13291 0103                              l13531 15D2  
                            l14307 0843                              l14315 1720  
                            l14323 162B                              l14331 15F4  
                            l14411 0639                              l14403 0604  
                            l12821 0800                              l14173 0AAF  
                            l14165 0A9A                              l14157 0A7F  
                            l14149 0A6A                              l13517 0376  
                            l13509 0358                              l13461 02CC  
                            l13453 02B7                              l13445 029C  
                            l13437 028E                              l13429 026A  
                            l13381 01EF                              l13373 01E4  
                            l13365 01CF                              l13357 01B4  
                            l13349 01A6                              l13293 010B  
                            l13533 15D3                              l13525 15C4  
                            l14261 08EE                              l14309 0844  
                            l14317 1721                              l14325 1630  
                            l14333 15FE                              l14341 1757  
                            l14421 067F                              l14413 0641  
                            l14405 060C                              l14501 09DE  
                            l14167 0AA0                              l14159 0A83  
                            l13519 037E                              l13471 02DD  
                            l13463 02D1                              l13455 02BD  
                            l13447 029D                              l13439 0292  
                            l13391 0217                              l13383 01F5  
                            l13375 01E9                              l13367 01D5  
                            l13359 01B5                              l13295 010C  
                            l13535 15D4                              l13527 15CC  
                            l14271 0903                              l14263 08F1  
                            l14255 08DF                              l14319 1731  
                            l14327 1638                              l14343 175C  
                            l14335 1748                              l14351 0CCD  
                            l14423 06AD                              l14415 0659  
                            l14407 0622                              l14431 17B2  
                            l14503 09E4                              l14511 0F34  
                            l14169 0AA4                              l13481 0314  
                            l13473 02DE                              l13465 02D5  
                            l13457 02C5                              l13449 02A3  
                            l13393 021A                              l13385 01F6  
                            l13377 01ED                              l13369 01DD  
                            l13297 0114                              l13289 00FF  
                            l13529 15CF                              l14273 090F  
                            l14265 08F4                              l14257 08EA  
                            l14281 092E                              l14329 1640  
                            l14345 1761                              l14337 174D  
                            l14361 0D5F                              l14353 0CE5  
                            l14417 0661                              l14409 062A  
                            l14433 17B8                              l14425 17A5  
                            l14441 0C1F                              l14505 09E7  
                            l14521 0F55                              l14513 0F3A  
                            l14601 0E80                              l13491 0323  
                            l13483 0318                              l13475 0303  
                            l13467 02D6                              l13459 02C8  
                            l13395 021E                              l13387 0209  
                            l13379 01EE                              l13299 0121  
                            l14275 0919                              l14267 08FD  
                            l14259 08ED                              l14291 0941  
                            l14283 092F                              l14347 1766  
                            l14339 1752                              l14363 0D7E  
                            l14355 0D04                              l14371 16B1  
                            l14419 0677                              l14435 17BF  
                            l14427 17A6                              l14451 0C3F  
                            l14443 0C24                              l14531 0F7B  
                            l14523 0F5F                              l14515 0F44  
                            l14507 0F28                              l14611 0EA4  
                            l14603 0E83                              l13493 0329  
                            l13485 031D                              l13477 0309  
                            l13469 02D7                              l13397 0223  
                            l13389 020F                              l14269 0900  
                            l14293 0944                              l14285 0932  
                            l14277 0920                              l14349 176B  
                            l14357 0D22                              l14365 168C  
                            l14373 16C2                              l14381 16F5  
                            l14437 17C0                              l14429 17AC  
                            l14461 0C65                              l14453 0C49  
                            l14445 0C2E                              l14541 0F9D  
                            l14533 0F81                              l14525 0F65  
                            l14517 0F4A                              l14509 0F2F  
                            l14621 0EC8                              l14613 0EA7  
                            l14605 0E8B                              l13495 032A  
                            l13487 0321                              l13479 0311  
                            l13399 0227                              l14295 0950  
                            l14287 0935                              l14279 092B  
                            l14359 0D41                              l14367 169D  
                            l14375 16D0                              l14383 16FB  
                            l14391 1659                              l14471 0C87  
                            l14463 0C6B                              l14455 0C4F  
                            l14447 0C34                              l14439 0C18  
                            l14543 0FBD                              l14535 0F87  
                            l14527 0F6B                              l14519 0F4F  
                            l14551 07AD                              l14631 0EEC  
                            l14623 0ECB                              l14615 0EAF  
                            l14607 0E8F                              l12777 1570  
                            l13497 0337                              l13489 0322  
                            l14297 095A                              l14289 093E  
                            l14369 16AB                              l14377 16D6  
                            l14385 170C                              l14393 05CD  
                            l14473 0C96                              l14465 0C71  
                            l14457 0C55                              l14449 0C39  
                            l14481 09A8                              l14545 0FCC  
                            l14537 0F8D                              l14529 0F71  
                            l14561 07CB                              l14553 07B4  
                            l14641 0F0D                              l14633 0EF7  
                            l14625 0ED3                              l14617 0EB3  
                            l14609 0E9E                              l12779 1573  
                            l13499 033F                              l14299 1569  
                            l14379 16E7                              l14387 171A  
                            l14395 05D2                              l14475 0CA4  
                            l14467 0C77                              l14459 0C5B  
                            l14491 09C0                              l14483 09AD  
                            l14547 0FEB                              l14539 0F97  
                            l14571 07EA                              l14563 07CF  
                            l14555 07B9                              l14643 0F13  
                            l14635 0EFB                              l14627 0ED7  
                            l14619 0EC2                              l14651 0963  
                            l14389 1648                              l14397 05D9  
                            l14477 0CC3                              l14469 0C81  
                            l14493 09C6                              l14485 09AE  
                            l14549 0FF9                              l14573 07F3  
                            l14565 07D5                              l14557 07BD  
                            l14581 17DB                              l14645 0F1B  
                            l14637 0F01                              l14629 0EE6  
                            l14661 097B                              l14653 0968  
                            l14399 05E7                              l14495 09CF  
                            l14487 09B4                              l14479 09A1  
                            l14575 07F9                              l14567 07DB  
                            l14559 07C3                              l14583 17E1  
                            l14647 0F22                              l14639 0F06  
                            l14591 0E59                              l14663 0980  
                            l14655 096D                              l14497 09D5  
                            l14489 09BA                              l14569 07E4  
                            l14585 17E7                              l14577 17D4  
                            l14593 0E60                              l14665 0986  
                            l14657 0972                              l14649 095E  
                            l14499 09DA                              l14587 17EE  
                            l14579 17D5                              l14595 0E61  
                            l14659 0977                              l14589 17EF  
                            l14597 0E6B                              l12999 1552  
                            l14599 0E7A                       _adc_getValue 1773  
                            ?_main 0070                     i1___awdiv@sign 0076  
                  __end_of___awdiv 0B92                              _EEADR 010D  
                            STR_10 0086                              STR_11 00C0  
                            STR_12 00F6                              STR_20 0025  
                            STR_13 00F9                              STR_21 0077  
                            STR_22 00A4                              STR_14 0067  
                            STR_15 00F3                              STR_23 0047  
                            STR_16 00F9                              STR_17 00CD  
                            STR_18 00EF                              STR_19 00FC  
                  __end_of___awmod 0AB0                              _CARRY 0018  
          ??_InitialiseSettingMode 007C                              _EEPGD 0C67  
                            _ANSEL 0188                    ___awdiv@divisor 002F  
                            _T2CON 0012                   ??_print_ADCValue 007C  
                ??_initialisePortB 002F                              i1l880 1784  
                            i1l881 17A1                              i1l878 1780  
                            i1l886 0E58                              i1l879 1780  
                  ___awdiv@counter 0034       __end_of_NormalModeOperations 17D1  
                            _PORTB 0006                              _PORTD 0008  
                            _TRISA 0085                              _TRISB 0086  
                            _TRISC 0087                              _TRISD 0088  
                            _TRISE 0089                    __end_of_lcd_cmd 091D  
                   i1___awmod@sign 0076      __size_ofi1_lcd_writeThisDigit 0086  
                  __end_of_goto_XY 1648         i1lcd_writeThisStringAt@ptr 0076  
       i1lcd_writeThisStringAt@row 0079                      lcd_init@index 0039  
                            pclath 000A                    ?i1_UpdateScreen 0070  
         ?i1_lcd_writeThisStringAt 0075                              status 0003  
                            wtemp0 007E                 __size_ofi1___awdiv 0070  
               __size_ofi1___awmod 0060                     i1_start_timer0 154D  
          ??_lcd_writeThisStringAt 0037               __end_of_IsKeyPressed 0F28  
               __size_ofi1_lcd_cmd 0041                       __end_of_main 09A1  
             _disableInterrupt_RB0 1542                 __size_ofi1_goto_XY 001C  
                           ??_main 00AC             ??_default_bootSequence 0039  
                      ?i1_lcd_puts 0073                             _ADCON0 001F  
                           _ADCON1 009F                             _ADRESH 001E  
                           _ADRESL 009E                             _EEDATA 010C  
                           _EECON1 018C                             _EECON2 018D  
                 ___awdiv@dividend 0031                             _ANSELH 0189  
                           _GODONE 00F9                             i1l1800 04CF  
                           i1l1801 0414                             i1l1810 04CF  
                           i1l1802 0402                             i1l1804 0427  
                           i1l1805 0427                             i1l1806 04C5  
                           i1l1807 047E                             i1l1808 04C5  
                           i1l1809 04C5                             i1l1794 03E8  
                           i1l1795 03B3                             i1l1796 03B8  
                           i1l1797 03E2                             i1l1798 03DA  
                           i1l1799 03E7                             i1l6400 0519  
                           i1l5433 154C                             i1l6401 0519  
                           i1l6410 0573                             i1l6402 051F  
                           i1l6411 0584                             i1l6403 0537  
                           i1l5436 1543                             i1l6420 05CC  
                           i1l6412 0584                             i1l6404 0548  
                           i1l6413 0590                             i1l6405 0548  
                           i1l6317 158D                             i1l6414 0591  
                           i1l6406 0554                             i1l6415 0591  
                           i1l6407 0555                             i1l6416 0597  
                           i1l6408 0555                             i1l6417 05AF  
                           i1l6409 055B                             i1l6418 05C0  
                           i1l6419 05C0                             i1l6380 0712  
                           i1l6381 06F4                             i1l6382 0712  
                           i1l6383 0712                             i1l6392 04DC  
                           i1l7272 167D                             i1l7280 1627  
                           i1l6384 0767                             i1l6393 04DD  
                           i1l7273 1669                             i1l7281 1627  
                           i1l6385 0749                             i1l6394 04DD  
                           i1l7266 089A                             i1l7274 168B  
                           i1l7290 15F0                             i1l6386 0767  
                           i1l6395 04E3                             i1l7275 168B  
                           i1l6387 0767                             _INTEDG 040E  
                           i1l9060 1551                             i1l6396 04FB  
                           i1l7284 1568                             i1l6388 079D  
                           i1l6397 050C                             i1l7269 08DB  
                           i1l6389 07AC                             i1l6398 050C  
                           i1l7278 161A                             i1l9063 1547  
                           i1l6399 0518                             i1l7279 1627  
                           i1l7298 0C17                             u420_20 04E3  
                           u420_21 04E2                             u421_20 04FA  
                           u421_21 04F9                             u406_20 1784  
                           u430_20 05AE                             u422_20 050B  
                           u406_21 1783                             u430_21 05AD  
                           u422_21 050A                             u431_20 05BF  
                           u423_20 051F                             u431_21 05BE  
                           u423_21 051E                             u407_25 1789  
                           u424_20 0536                             u424_21 0535  
                           u425_20 0547                             u425_21 0546  
                           u426_20 055B                             u426_21 055A  
                           u427_20 0572                             u427_21 0571  
                           u428_20 0583                             u428_21 0582  
                           u620_25 085E                             u460_25 089F  
                           u429_20 0597                             u613_20 06C9  
                           u429_21 0596                             u613_21 06C8  
                           u621_25 0884                             u461_25 08C5  
                           u622_20 168B                             u614_20 06DE  
                           u622_21 168A                             u614_21 06DD  
                           u470_25 0AEC                             u471_20 0AFC  
                           u463_20 1612                             u615_20 06FC  
                           u471_21 0AFB                             u463_21 1611  
                           u615_21 06FB                             u471_25 0AF8  
                           u480_20 0A2B                             u464_20 1620  
                           u616_20 071A                             u480_21 0A2A  
                           u464_21 161F                             u616_21 0719  
                           u472_25 0B04                             u480_25 0A27  
                           u720_27 0472                             u473_20 0B10  
                           u465_20 0AB9                             u617_20 0731  
                           u473_21 0B0F                             u465_21 0AB8  
                           u617_21 0730                             u481_25 0A32  
                           u721_27 04AA                             u474_20 0B14  
                           u466_20 0AC5                             u482_20 0A3E  
                           u618_20 0751                             u466_21 0AC4  
                           u482_21 0A3D                             u618_21 0750  
                           u730_27 05C6                             u722_27 07A5  
                           u467_20 0AD8                             u483_20 0A42  
                           u475_20 09F7                             u619_20 076F  
                           u467_21 0AD7                             u475_21 09F6  
                           u619_21 076E                             u723_27 08B7  
                           u476_20 0A03                             u476_21 0A02  
                           u468_25 0ADD                             u724_27 08D3  
                           u469_20 0AEB                             u477_20 0A0E  
                           u469_21 0AEA                             u477_21 0A0D  
                           u725_27 0876                             u590_20 0427  
                           u582_20 0398                             u590_21 0426  
                           u582_21 0397                             u478_25 0A13  
                           u590_25 0423                             u726_27 0892  
                           u479_20 0A21                             u591_20 0436  
                           u583_20 039C                             u479_21 0A20  
                           u591_21 0435                             u583_21 039B  
                           u591_25 0432                             u727_27 0512  
                           u719_27 040E                             u592_20 0442  
                           u584_20 03A6                             u592_21 0441  
                           u584_21 03A5                             u728_27 054E  
                           u593_20 0486                             u585_20 03BE  
                           u593_21 0485                             u585_21 03BD  
                           u729_27 058A                             u586_20 03CA  
                           u586_21 03C9                             u587_20 03EC  
                           u587_21 03EB                             u588_20 03F0  
                           u588_21 03EF                             u589_20 041A  
                           u589_21 0419                             _TMR2IE 0461  
                           _TMR2ON 0092             __end_ofi1_start_timer0 1552  
          __end_of_UpbuttonHandler 1000                   __end_of_lcd_init 085A  
            ?_disableInterrupt_RB0 0070                   __end_of_lcd_puts 1748  
                        ??___awdiv 0033                          ??___awmod 0033  
          __size_of_adc_initialise 0008                       ?_serveCoffee 0070  
       __size_of_DownButtonHandler 00B2                   ___awdiv@quotient 0036  
                  ___awmod@divisor 002F                    ___awmod@counter 0034  
                        ??_lcd_cmd 002F        __size_of_lcd_writeThisDigit 00C0  
                           clrloop 1579                  __end_ofi1___awdiv 0B20  
                __end_ofi1___awmod 0A4E                          ??_goto_XY 0033  
                     __pdataCOMMON 007D                   __end_of_serveTea 16FB  
                           saved_w 007E    __end_ofi1_lcd_writeThisStringAt 15F1  
                __end_ofi1_lcd_cmd 08DC                  __end_ofi1_goto_XY 1628  
            lcd_init@command_array 0033                      lcd_write@data 0031  
                  ?i1_start_timer0 0070               _NormalModeOperations 17A2  
                   __pcstackCOMMON 0070   __size_of_default_initialisations 0014  
                     __pidataBANK0 159F                __size_ofi1_lcd_puts 0024  
         lcd_writeThisDigit@string 00A0     NormalModeOperations@keyPressed 003C  
  SettingModeOperations@keyPressed 00A8                 __size_of_lcd_clear 0007  
               __size_of_lcd_write 0041            ??_PreviousButtonHandler 00A5  
                    _modeOfWorking 007D                         __pbssBANK0 003E  
            __size_of_IsKeyPressed 00CF         i1lcd_writeThisDigit@string 0020  
            ?_NormalModeOperations 0070                   ?_UpbuttonHandler 0070  
                     ?i1_lcd_clear 0070             ??_disableInterrupt_RB0 0070  
                       __pmaintext 095E                    _initialisePortB 155C  
                     ?_stop_timer0 0070        __end_of_enableInterrupt_RB0 1557  
                     ?i1_lcd_write 0070              __end_of_serveHotWater 1720  
                       _flagTimer2 0047                         __pintentry 0004  
                       __ptext1640 09A1                         __ptext1641 0C18  
                       __ptext1650 1748                         __ptext1642 17A2  
                       __ptext1651 15F1                         __ptext1643 05CD  
                       __ptext1660 0A4E                         __ptext1652 1628  
                       __ptext1644 1648                         __ptext1636 0E59  
                       __ptext1661 0B20                         __ptext1653 1720  
                       __ptext1645 16FB                         __ptext1637 17D1  
                       __ptext1670 06BD                         __ptext1662 155C  
                       __ptext1654 0822                         __ptext1646 16D6  
                       __ptext1638 07AD                         __ptext1671 0D8A  
                       __ptext1663 15B0                         __ptext1655 1569  
                       __ptext1647 16B1                         __ptext1639 0F28  
                       __ptext1680 09EE                         __ptext1672 0B92  
                       __ptext1664 1557                         __ptext1656 091D  
                       __ptext1648 168C                         __ptext1681 0AB0  
                       __ptext1673 15DA                         __ptext1665 1552  
                       __ptext1657 08DC                         __ptext1649 0CCA  
                       __ptext1682 154D                         __ptext1674 1562  
                       __ptext1666 0800                         __ptext1658 15C4  
                       __ptext1683 1548                         __ptext1675 160C  
                       __ptext1667 1570                         __ptext1659 00FF  
                       __ptext1684 1544                         __ptext1676 1668  
                       __ptext1668 0394                         __ptext1685 1542  
                       __ptext1677 089B                         __ptext1669 1580  
                       __ptext1686 1773                         __ptext1678 085A  
                       __ptext1687 0000                         __ptext1679 04DC  
                _initialise_timer0 15C4        __end_of_updateConfiguration 05CD  
                          i1l10160 0A1D                            i1l10161 0A12  
                          i1l10090 0ACE                            i1l10162 0A21  
                          i1l10091 0B10                            i1l10163 0A21  
                          i1l10092 0AE7                            i1l10164 0A31  
                          i1l10093 0ADC                            i1l10165 0A3E  
                          i1l10157 09FF                            i1l10094 0AEB  
                          i1l10166 0A47                            i1l10158 0A08  
                          i1l10095 0AEB                            i1l10167 0A4D  
                          i1l10159 0A3E                 i1___awdiv@dividend 0072  
                          i1l10096 0B03                            i1l10097 0B10  
                          i1l10089 0AC1                            i1l10098 0B19  
                          i1l10099 0B1F                            i1l14001 0E34  
                          i1l14003 0E49                            i1l14011 0394  
                          i1l13213 154D                            i1l13221 0AC1  
                          i1l14021 03A9                            i1l14013 0398  
                          i1l13231 0AE3                            i1l13223 0AC5  
                          i1l13215 0AB0                            i1l14031 03C4  
                          i1l14023 03AE                            i1l14015 039C  
                          i1l13241 0B03                            i1l13233 0AE7  
                          i1l13225 0ACA                            i1l13217 0AB5  
                          i1l13161 08AD                            i1l14201 0767  
                          i1l14041 03E8                            i1l14033 03CA  
                          i1l14025 03B3                            i1l14017 03A0  
                          i1l13251 0B1F                            i1l13243 0B0A  
                          i1l13235 0AEB                            i1l13227 0AD8  
                          i1l13219 0AB9                            i1l14211 086B  
                          i1l13171 08C2                            i1l13163 08B0  
                          i1l13155 089C                            i1l14203 076F  
                          i1l14051 0402                            i1l14043 03EC  
                          i1l14035 03DA                            i1l14027 03B8  
                          i1l14019 03A6                            i1l13245 0B10  
                          i1l13237 0AFC                            i1l13229 0ADC  
                          i1l13261 0A03                            i1l13253 09EE  
                          i1l14221 087E                            i1l14213 086C  
                          i1l13173 08CE                            i1l13165 08B3  
                          i1l13157 08A9                            i1l14205 079D  
                          i1l14061 043B                            i1l14053 0414  
                          i1l14045 03F0                            i1l14037 03E2  
                          i1l14029 03BE                            i1l13247 0B14  
                          i1l13239 0B02                            i1l13271 0A1D  
                          i1l13263 0A08                            i1l13255 09F3  
                          i1l14223 0881                            i1l14215 086F  
                          i1l14207 085B                            i1l13175 08D8  
                          i1l13167 08BC                            i1l13159 08AC  
                          i1l14231 1669                            i1l13191 1620  
                          i1l14071 0478                            i1l14063 0442  
                          i1l14055 041A                            i1l14047 03FA  
                          i1l14039 03E7                            i1l13249 0B19  
                          i1l13281 0A3E                            i1l13273 0A21  
                          i1l13265 0A0E                            i1l13257 09F7  
                          i1l14225 088D                            i1l14217 0872  
                          i1l14209 0868                            i1l13169 08BF  
                          i1l14233 1677                            i1l13185 160D  
                          i1l13193 1562                            i1l14241 0B95  
                          i1l14081 049D                            i1l14073 047E  
                          i1l14065 0451                            i1l14057 0427  
                          i1l14049 03FB                            i1l13099 1548  
                          i1l13283 0A42                            i1l13275 0A2B  
                          i1l13267 0A12                            i1l13259 09FF  
                          i1l14227 0897                            i1l14219 087B  
                          i1l14235 167D                            i1l13187 1612  
                          i1l14251 0BF7                            i1l14243 0B9D  
                          i1l14091 1580                            i1l14083 04A2  
                          i1l14075 0486                            i1l14067 0456  
                          i1l14059 0436                            i1l13285 0A47  
                          i1l13277 0A31                            i1l13269 0A19  
                          i1l14229 1668                            i1l13189 161A  
                          i1l14237 15DB                            i1l14253 0C0E  
                          i1l14245 0BB4                            i1l14181 06D7  
                          i1l14093 1587                            i1l14085 04B0  
                          i1l14077 048B                            i1l14069 045B  
                          i1l12903 1542                            i1l13287 0A4D  
                          i1l13279 0A38                            i1l12911 04E3  
                          i1l14239 15E5                            i1l14247 0BCA  
                          i1l14191 071A                            i1l14183 06DE  
                          i1l14175 06BD                            i1l14087 04C5  
                          i1l14079 048E                            i1l12905 1544  
                          i1l12921 04FF                            i1l12913 04ED  
                          i1l14249 0BE1                            i1l14193 0729  
                          i1l14185 06F4                            i1l14177 06C2  
                          i1l14089 04CA                            i1l12931 050C  
                          i1l12923 0503                            i1l12915 04F3  
                          i1l14195 0731                            i1l14187 06FC  
                          i1l14179 06C9                            i1l12781 1773  
                          i1l12941 0536                            i1l12933 051F  
                          i1l12925 0504                            i1l12917 04F6  
                          i1l14197 0749                            i1l14189 0712  
                          i1l12791 179B                            i1l12783 1776  
                          i1l12951 0547                            i1l12943 053B  
                          i1l12935 0529                            i1l12927 0505  
                          i1l12919 04FA                            i1l14199 0751  
                          i1l12793 17A1                            i1l12785 177E  
                          i1l12961 056E                            i1l12953 0548  
                          i1l12945 053F                            i1l12937 052F  
                          i1l12929 050B                            i1l12787 1784  
                          i1l12971 057D                            i1l12963 0572  
                          i1l12955 055B                            i1l12947 0540  
                          i1l12939 0532                            i1l12789 1798  
                          i1l12981 05A7                            i1l12973 0583  
                          i1l12965 0577                            i1l12957 0565  
                          i1l12949 0541                            i1l12991 05B8  
                          i1l12983 05AA                            i1l12975 0584  
                          i1l12967 057B                            i1l12959 056B  
                          i1l12993 05B9                            i1l12985 05AE  
                          i1l12977 0597                            i1l12969 057C  
                          i1l12995 05BF                            i1l12987 05B3  
                          i1l12979 05A1                            i1l12997 05C0  
                          i1l12989 05B7                            i1l13991 0DC8  
                          i1l13993 0DDE                            i1l13985 0D8A  
                          i1l13995 0DF3                            i1l13987 0D9D  
                          i1l13997 0E09                            i1l13989 0DB3  
                          i1l13999 0E1E                 ?_initialise_timer0 0070  
   __size_of_InitialiseSettingMode 000E      __end_of_InitialiseSettingMode 158E  
                 ??i1_UpdateScreen 0025                        _ScreenIndex 0045  
                     _IsKeyPressed 0E59              __end_of_isItFirstTime 0394  
                     i1goto_XY@row 0074                          ?_lcd_init 0070  
               _CurrentTeaQuantity 0041                          ?_lcd_puts 0032  
              ??_initialise_timer0 002F                       _IsNewMachine 005F  
            _SettingModeOperations 17D1              i1_enableInterrupt_RB0 1548  
                 UpdateScreen@Mode 0070                         _keyPressed 004D  
               i1___awdiv@quotient 0077       __end_ofi1_lcd_writeThisDigit 0C18  
           print_ADCValue@adcValue 007A                 print_ADCValue@data 0020  
                __end_of_lcd_clear 1570                    i1lcd_write@data 0072  
   __size_of_lcd_writeThisStringAt 001B                          ?_serveTea 0070  
    __end_of_lcd_writeThisStringAt 160C                     _adc_initialise 1570  
                          ___awdiv 0B20                            ___awmod 0A4E  
    i1lcd_writeThisStringAt@column 0075                  __end_of_lcd_write 095E  
 __size_ofi1_lcd_writeThisStringAt 0017          __end_of_initialise_timer0 15DA  
                          _lcd_cmd 08DC                       __size_of_ISR 0148  
             __size_of_serveCoffee 0025                            _goto_XY 1628  
                 ___awmod@dividend 0031                       ??i1_lcd_puts 0075  
                       ??_lcd_init 0032                         ??_lcd_puts 0034  
                   _ParameterIndex 0044               end_of_initialization 081E  
                    ?_UpdateScreen 0070           _peripheral_initialsation 1748  
          __end_of_initialisePortB 1562                            init_ram 1592  
                     _isKeyPressed 004C             ??_NormalModeOperations 003C  
           __end_of_adc_initialise 1578            _default_initialisations 15B0  
                       ??_serveTea 0039                 __end_ofi1_lcd_puts 168C  
                        i1___awdiv 0AB0                          i1___awmod 09EE  
                 ??i1_start_timer0 0070             ?_SettingModeOperations 0070  
                   ??_UpdateScreen 003B      __size_of_default_bootSequence 0020  
          __size_of_print_ADCValue 00CF             ?i1_enableInterrupt_RB0 0070  
                        i1_lcd_cmd 089B                          i1_goto_XY 160C  
                _NextButtonHandler 07AD           ??_GlobalInterrupt_ENABLE 002F  
               ?_NextButtonHandler 0070                    ?_adc_initialise 0070  
                   _timer0_count10 004F                      i1lcd_cmd@cmnd 0072  
             __size_ofi1_lcd_clear 0007               __size_of_stop_timer0 0004  
       __size_of_initialise_timer0 0016         __end_of_lcd_writeThisDigit 0D8A  
             __size_ofi1_lcd_write 0041                ??_NextButtonHandler 00A5  
                    __pidataCOMMON 0003                start_initialization 0802  
                      __end_of_ISR 04DC                         ?i1___awdiv 0070  
             i1_lcd_writeThisDigit 0B92                         ?i1___awmod 0070  
   __size_of_PreviousButtonHandler 004D      __end_of_PreviousButtonHandler 09EE  
        __end_of_NextButtonHandler 0800                         ?i1_lcd_cmd 0070  
                 ?_initialisePortB 0070                      ?_start_timer0 0070  
                       ?i1_goto_XY 0073          ??_default_initialisations 002F  
                    i1lcd_puts@ptr 0073                         goto_XY@row 0033  
          i1_lcd_writeThisStringAt 15DA                        __pdataBANK0 0050  
               i1___awmod@dividend 0072                      ?_adc_getValue 0070  
                    __pcstackBANK0 0020                      __pcstackBANK1 00A0  
            ?i1_lcd_writeThisDigit 0070                     ??_start_timer0 002F  
                __size_of_lcd_init 0038                  __size_of_lcd_puts 0028  
                   _button_pressed 0046                  _serveHalfQuantity 16B1  
  __size_of_GlobalInterrupt_ENABLE 0002                 ?_serveHalfQuantity 0070  
    __size_of_disableInterrupt_RB0 0002                           ?___awdiv 002F  
                         ?___awmod 002F               __end_of_UpdateScreen 06BD  
                __size_of_serveTea 0025                     ??_adc_getValue 0072  
                i1___awdiv@divisor 0070                          _lcd_clear 1569  
         __size_of_UpbuttonHandler 00D8                  i1___awdiv@counter 0075  
                        __pstrings 0015                ??_serveHalfQuantity 0039  
                         ?_lcd_cmd 0070                          _lcd_write 091D  
  __end_of_default_initialisations 15C4       __size_of_enableInterrupt_RB0 0005  
                         ?_goto_XY 0032         ??_peripheral_initialsation 003A  
                      ??i1___awdiv 0074                        ??i1___awmod 0074  
            _InitialiseSettingMode 1580       __size_of_updateConfiguration 00F1  
           __size_of_serveHotWater 0025                     _print_ADCValue 0D8A  
       __size_of_NextButtonHandler 0053                        ??i1_lcd_cmd 0070  
                interrupt_function 0004          __end_of_serveHalfQuantity 16D6  
                      ??i1_goto_XY 0074              _CurrentCoffeeQuantity 0040  
        ??i1_lcd_writeThisStringAt 0078                  _flag_T0_OneSecond 0048  
                _flag_T0_TenSecond 0049             __size_of_isItFirstTime 0295  
                    ??_serveCoffee 0039              _lcd_writeThisStringAt 15F1  
                       ?_lcd_clear 0070                        __stringbase 0024  
                       ?_lcd_write 0070             _GlobalInterrupt_ENABLE 0800  
           ??i1_lcd_writeThisDigit 0079            ??_SettingModeOperations 003E  
           __end_of_print_ADCValue 0E59            ??i1_enableInterrupt_RB0 0070  
              print_ADCValue@F1018 0056           i1lcd_writeThisDigit@data 0024  
                 ??_adc_initialise 002F            __size_ofi1_UpdateScreen 00F0  
    __size_of_NormalModeOperations 002F                          init_fetch 158E  
     __end_of_default_bootSequence 1668               _isFirstTimeInSetting 0060  
                i1___awmod@divisor 0070                      _serveHotWater 16FB  
                i1___awmod@counter 0075                   __size_of___awdiv 0072  
                 __size_of___awmod 0062                      goto_XY@column 0032  
             __end_of_start_timer0 155C                   __size_of_lcd_cmd 0041  
              __end_of_serveCoffee 16B1                   __size_of_goto_XY 0020  
           ?_InitialiseSettingMode 0070                  ??_UpbuttonHandler 00A5  
               _lcd_writeThisDigit 0CCA                    ?_print_ADCValue 007A  
                    _isItFirstTime 00FF                           _lcd_init 0822  
                         _lcd_puts 1720               __end_of_adc_getValue 17A2  
       __size_of_serveHalfQuantity 0025                ?_lcd_writeThisDigit 0070  
                    __size_of_main 0043                      ??i1_lcd_clear 0073  
                         clear_ram 1578              __size_of_UpdateScreen 00F0  
                    ??_stop_timer0 0070               _isFirstTime_Settings 004B  
                    ??i1_lcd_write 0070                           _serveTea 16D6  
              isItFirstTime@Config 0032                     ?_serveHotWater 0070  
           ?_lcd_writeThisStringAt 0034                        ??_lcd_clear 0032  
                 adc_getValue@temp 0074                       _timer0_count 004E  
             ??_lcd_writeThisDigit 0038                        ??_lcd_write 002F  
 __end_of_peripheral_initialsation 1773                      ?_IsKeyPressed 0070  
                   ?_isItFirstTime 0070                           intlevel1 0000  
                     _UpdateScreen 05CD     _CurrentWaterQuantity_forCoffee 0042  
              _enableInterrupt_RB0 1552              _PreviousButtonHandler 09A1  
                        stringcode 001F            __size_ofi1_start_timer0 0005  
               _buttonPressedCount 003E           __size_of_initialisePortB 0006  
              _updateConfiguration 04DC                __end_ofi1_lcd_clear 1569  
                      _serveCoffee 168C                __end_of_stop_timer0 1548  
              __end_ofi1_lcd_write 089B               ?_enableInterrupt_RB0 0070  
                  i1goto_XY@column 0073                     ??_IsKeyPressed 00A9  
                         stringdir 001F                           stringtab 0015  
     __end_of_disableInterrupt_RB0 1544               ?_updateConfiguration 0070  
             _default_bootSequence 1648           ?_default_initialisations 0070  
                   i1_UpdateScreen 06BD                    ??_serveHotWater 0039  
