

HI-TECH Software PIC LITE Macro Assembler V9.71a build 6446 
                                                                                               Sun Apr 02 15:55:37 2017

HI-TECH Software Omniscient Code Generator (Lite mode) build 6446
     1  0000                     opt subtitle "HI-TECH Software Omniscient Code Generator (Lite mode) build 6446"
     2                           
     3                           opt pagewidth 120
     4                           
     5                           	opt lm
     6                           
     7                           	processor	16F877A
     8                           clrc	macro
     9                           	bcf	3,0
    10  0000                     	endm
    11                           clrz	macro
    12                           	bcf	3,2
    13  0000                     	endm
    14                           setc	macro
    15                           	bsf	3,0
    16  0000                     	endm
    17                           setz	macro
    18                           	bsf	3,2
    19  0000                     	endm
    20                           skipc	macro
    21                           	btfss	3,0
    22  0000                     	endm
    23                           skipz	macro
    24                           	btfss	3,2
    25  0000                     	endm
    26                           skipnc	macro
    27                           	btfsc	3,0
    28  0000                     	endm
    29                           skipnz	macro
    30                           	btfsc	3,2
    31  0000                     	endm
    32  0000                     indf	equ	0
    33  0000                     indf0	equ	0
    34  0002                     pc	equ	2
    35  0002                     pcl	equ	2
    36  0003                     status	equ	3
    37  0004                     fsr	equ	4
    38  0004                     fsr0	equ	4
    39  0001                     c	equ	1
    40  0000                     z	equ	0
    41  000A                     pclath	equ	10
    42                           # 20 "MainCode.c"
    43                           	psect config,class=CONFIG,delta=2 ;#
    44                           # 20 "MainCode.c"
    45  2007  3F32               	dw 0x3FBF & 0x3FFB & 0x3F7F & 0x3FFE & 0x3FF7 & 0x3FFF ;#
    46                           	FNCALL	_main,_default_initialisations
    47                           	FNCALL	_main,_peripheral_initialsation
    48                           	FNCALL	_main,_isItFirstTime
    49                           	FNCALL	_main,_default_bootSequence
    50                           	FNCALL	_main,_lcd_clear
    51                           	FNCALL	_main,_lcd_writeThisStringAt
    52                           	FNCALL	_main,_IsKeyPressed
    53                           	FNCALL	_IsKeyPressed,_handleEvent
    54                           	FNCALL	_handleEvent,_lcd_clear
    55                           	FNCALL	_handleEvent,_SettingModeOperations
    56                           	FNCALL	_handleEvent,_NormalModeOperations
    57                           	FNCALL	_SettingModeOperations,_PreviousButtonHandler
    58                           	FNCALL	_SettingModeOperations,_UpbuttonHandler
    59                           	FNCALL	_SettingModeOperations,_DownButtonHandler
    60                           	FNCALL	_SettingModeOperations,_NextButtonHandler
    61                           	FNCALL	_NextButtonHandler,_UpdateScreen
    62                           	FNCALL	_DownButtonHandler,_lcd_writeThisStringAt
    63                           	FNCALL	_DownButtonHandler,_UpdateScreen
    64                           	FNCALL	_UpbuttonHandler,_lcd_writeThisStringAt
    65                           	FNCALL	_UpbuttonHandler,_UpdateScreen
    66                           	FNCALL	_PreviousButtonHandler,_UpdateScreen
    67                           	FNCALL	_NormalModeOperations,_serveCoffee
    68                           	FNCALL	_NormalModeOperations,_serveHalfQuantity
    69                           	FNCALL	_NormalModeOperations,_serveHotWater
    70                           	FNCALL	_NormalModeOperations,_serveTea
    71                           	FNCALL	_UpdateScreen,_lcd_clear
    72                           	FNCALL	_UpdateScreen,_lcd_writeThisStringAt
    73                           	FNCALL	_UpdateScreen,_lcd_writeThisDigit
    74                           	FNCALL	_default_bootSequence,_lcd_writeThisStringAt
    75                           	FNCALL	_serveTea,_lcd_writeThisStringAt
    76                           	FNCALL	_serveTea,_lcd_clear
    77                           	FNCALL	_serveHotWater,_lcd_writeThisStringAt
    78                           	FNCALL	_serveHotWater,_lcd_clear
    79                           	FNCALL	_serveHalfQuantity,_lcd_writeThisStringAt
    80                           	FNCALL	_serveHalfQuantity,_lcd_clear
    81                           	FNCALL	_serveCoffee,_lcd_writeThisStringAt
    82                           	FNCALL	_serveCoffee,_lcd_clear
    83                           	FNCALL	_lcd_writeThisDigit,___awmod
    84                           	FNCALL	_lcd_writeThisDigit,___awdiv
    85                           	FNCALL	_lcd_writeThisDigit,_lcd_puts
    86                           	FNCALL	_peripheral_initialsation,_lcd_init
    87                           	FNCALL	_peripheral_initialsation,_initialisePortB
    88                           	FNCALL	_peripheral_initialsation,_enableInterrupt_RB0
    89                           	FNCALL	_peripheral_initialsation,_PeripheralInterrupt_DISABLE
    90                           	FNCALL	_peripheral_initialsation,_GlobalInterrupt_ENABLE
    91                           	FNCALL	_lcd_writeThisStringAt,_goto_XY
    92                           	FNCALL	_lcd_writeThisStringAt,_lcd_puts
    93                           	FNCALL	_goto_XY,_lcd_cmd
    94                           	FNCALL	_lcd_puts,_lcd_write
    95                           	FNCALL	_lcd_init,_lcd_cmd
    96                           	FNCALL	_lcd_clear,_lcd_cmd
    97                           	FNROOT	_main
    98                           	FNCALL	_ISR,_disableInterrupt_RB0
    99                           	FNCALL	_ISR,i1_lcd_clear
   100                           	FNCALL	_ISR,i1_lcd_writeThisStringAt
   101                           	FNCALL	_ISR,_InitialiseSettingMode
   102                           	FNCALL	_ISR,i1_enableInterrupt_RB0
   103                           	FNCALL	_InitialiseSettingMode,i1_UpdateScreen
   104                           	FNCALL	i1_UpdateScreen,i1_lcd_clear
   105                           	FNCALL	i1_UpdateScreen,i1_lcd_writeThisStringAt
   106                           	FNCALL	i1_UpdateScreen,i1_lcd_writeThisDigit
   107                           	FNCALL	i1_lcd_writeThisDigit,i1___awmod
   108                           	FNCALL	i1_lcd_writeThisDigit,i1___awdiv
   109                           	FNCALL	i1_lcd_writeThisDigit,i1_lcd_puts
   110                           	FNCALL	i1_lcd_writeThisStringAt,i1_goto_XY
   111                           	FNCALL	i1_lcd_writeThisStringAt,i1_lcd_puts
   112                           	FNCALL	i1_lcd_clear,i1_lcd_cmd
   113                           	FNCALL	i1_goto_XY,i1_lcd_cmd
   114                           	FNCALL	i1_lcd_puts,i1_lcd_write
   115                           	FNCALL	intlevel1,_ISR
   116                           	global	intlevel1
   117                           	FNROOT	intlevel1
   118                           	global	lcd_init@F632
   119                           	global	lcd_writeThisDigit@F653
   120                           	global	_CurrentCoffeeQuantity
   121                           	global	_CurrentTeaQuantity
   122                           	global	_CurrentWaterQuantity_forCoffee
   123                           	global	_CurrentWaterQuantity_forTea
   124                           	global	_modeOfWorking
   125                           	global	_IsNewMachine
   126                           	global	_isFirstTimeInSetting
   127                           psect	idataBANK0,class=CODE,space=0,delta=2
   128                           global __pidataBANK0
   129  0835                     __pidataBANK0:
   130                           	file	"lcd.c"
   131                           	line	8
   132                           
   133                           ;initializer for lcd_init@F632
   134  0835  3402               	retlw	02h
   135  0836  3428               	retlw	028h
   136  0837  340E               	retlw	0Eh
   137  0838  3401               	retlw	01h
   138  0839  3406               	retlw	06h
   139  083A  3480               	retlw	080h
   140                           	line	126
   141                           
   142                           ;initializer for lcd_writeThisDigit@F653
   143  083B  3430               	retlw	030h
   144  083C  3430               	retlw	030h
   145  083D  3430               	retlw	030h
   146  083E  3400               	retlw	0
   147                           	file	"CommonDeclarations.h"
   148                           	line	52
   149                           
   150                           ;initializer for _CurrentCoffeeQuantity
   151  083F  340A               	retlw	0Ah
   152                           	line	54
   153                           
   154                           ;initializer for _CurrentTeaQuantity
   155  0840  340A               	retlw	0Ah
   156                           	line	53
   157                           
   158                           ;initializer for _CurrentWaterQuantity_forCoffee
   159  0841  340A               	retlw	0Ah
   160                           	line	55
   161                           
   162                           ;initializer for _CurrentWaterQuantity_forTea
   163  0842  340A               	retlw	0Ah
   164                           	line	49
   165                           
   166                           ;initializer for _modeOfWorking
   167  0843  3401               	retlw	01h
   168                           psect	idataCOMMON,class=CODE,space=0,delta=2
   169                           global __pidataCOMMON
   170  07FD                     __pidataCOMMON:
   171                           	line	46
   172                           
   173                           ;initializer for _IsNewMachine
   174  07FD  3401               	retlw	01h
   175                           	file	"SettingModeHandler.h"
   176                           	line	26
   177                           
   178                           ;initializer for _isFirstTimeInSetting
   179  07FE  3401               	retlw	01h
   180                           	global	_buttonPressedCount
   181                           	global	_ParameterIndex
   182                           	global	_ScreenIndex
   183                           	global	_button_pressed
   184                           	global	_flag_T0_OneSecond
   185                           	global	_flag_T0_TenSecond
   186                           	global	_isFirstTime_Settings
   187                           	global	_isKeyPressed
   188                           	global	_keyPressed
   189                           	global	_timer0_count
   190                           	global	_timer0_count10
   191                           	global	_ADCON0
   192  001F                     _ADCON0	set	31
   193                           	global	_ADRESH
   194  001E                     _ADRESH	set	30
   195                           	global	_PORTA
   196  0005                     _PORTA	set	5
   197                           	global	_PORTB
   198  0006                     _PORTB	set	6
   199                           	global	_PORTD
   200  0008                     _PORTD	set	8
   201                           	global	_TMR0
   202  0001                     _TMR0	set	1
   203                           	global	_ADGO
   204  00FA                     _ADGO	set	250
   205                           	global	_ADON
   206  00F8                     _ADON	set	248
   207                           	global	_CARRY
   208  0018                     _CARRY	set	24
   209                           	global	_GIE
   210  005F                     _GIE	set	95
   211                           	global	_INTE
   212  005C                     _INTE	set	92
   213                           	global	_INTF
   214  0059                     _INTF	set	89
   215                           	global	_PEIE
   216  005E                     _PEIE	set	94
   217                           	global	_RB0
   218  0030                     _RB0	set	48
   219                           	global	_RB1
   220  0031                     _RB1	set	49
   221                           	global	_RB2
   222  0032                     _RB2	set	50
   223                           	global	_RB3
   224  0033                     _RB3	set	51
   225                           	global	_RB4
   226  0034                     _RB4	set	52
   227                           	global	_RB5
   228  0035                     _RB5	set	53
   229                           	global	_RB6
   230  0036                     _RB6	set	54
   231                           	global	_RB7
   232  0037                     _RB7	set	55
   233                           	global	_RE0
   234  0048                     _RE0	set	72
   235                           	global	_RE1
   236  0049                     _RE1	set	73
   237                           	global	_RE2
   238  004A                     _RE2	set	74
   239                           	global	_TMR0IE
   240  005D                     _TMR0IE	set	93
   241                           	global	_TMR0IF
   242  005A                     _TMR0IF	set	90
   243                           	global	_ADCON1
   244  009F                     _ADCON1	set	159
   245                           	global	_ADRESL
   246  009E                     _ADRESL	set	158
   247                           	global	_TRISA
   248  0085                     _TRISA	set	133
   249                           	global	_TRISB
   250  0086                     _TRISB	set	134
   251                           	global	_TRISD
   252  0088                     _TRISD	set	136
   253                           	global	_TRISE
   254  0089                     _TRISE	set	137
   255                           	global	_INTEDG
   256  040E                     _INTEDG	set	1038
   257                           	global	_PS0
   258  0408                     _PS0	set	1032
   259                           	global	_PS1
   260  0409                     _PS1	set	1033
   261                           	global	_PS2
   262  040A                     _PS2	set	1034
   263                           	global	_PSA
   264  040B                     _PSA	set	1035
   265                           	global	_RBPU
   266  040F                     _RBPU	set	1039
   267                           	global	_T0CS
   268  040D                     _T0CS	set	1037
   269                           	global	_T0SE
   270  040C                     _T0SE	set	1036
   271                           	global	_EEADR
   272  010D                     _EEADR	set	269
   273                           	global	_EEDATA
   274  010C                     _EEDATA	set	268
   275                           	global	_EECON1
   276  018C                     _EECON1	set	396
   277                           	global	_EECON2
   278  018D                     _EECON2	set	397
   279                           	global	_EEPGD
   280  0C67                     _EEPGD	set	3175
   281                           	global	_RD
   282  0C60                     _RD	set	3168
   283                           	global	_WR
   284  0C61                     _WR	set	3169
   285                           	global	_WREN
   286  0C62                     _WREN	set	3170
   287                           psect	strings,class=STRING,delta=2
   288                           global __pstrings
   289  0015                     __pstrings:
   290                           ;	global	stringdir,stringtab,__stringbase
   291  0015                     stringtab:
   292                           ;	String table - string pointers are 1 byte each
   293  0015  1BFF               	btfsc	(btemp+1),7
   294  0016  281F               	ljmp	stringcode
   295  0017  1383               	bcf	status,7
   296  0018  187F               	btfsc	(btemp+1),0
   297  0019  1783               	bsf	status,7
   298  001A  0800               	movf	indf,w
   299  001B  0A84               	incf fsr
   300  001C  1903               skipnz
   301  001D  0AFF               incf btemp+1
   302  001E  0008               	return
   303  001F                     stringcode:stringdir:
      + 001F                     stringdir:	
   304  001F  3000               movlw high(stringdir)
   305  0020  008A               movwf pclath
   306  0021  0804               movf fsr,w
   307  0022  0A84               incf fsr
   308  0023  0782               	addwf pc
   309  0024                     __stringbase:
   310  0024  3400               	retlw	0
   311                           psect	strings
   312                           	
   313  0025                     STR_19:	
   314  0025  3453               	retlw	83	;'S'
   315  0026  3465               	retlw	101	;'e'
   316  0027  3472               	retlw	114	;'r'
   317  0028  3476               	retlw	118	;'v'
   318  0029  3469               	retlw	105	;'i'
   319  002A  346E               	retlw	110	;'n'
   320  002B  3467               	retlw	103	;'g'
   321  002C  3420               	retlw	32	;' '
   322  002D  3443               	retlw	67	;'C'
   323  002E  346F               	retlw	111	;'o'
   324  002F  3466               	retlw	102	;'f'
   325  0030  3466               	retlw	102	;'f'
   326  0031  3465               	retlw	101	;'e'
   327  0032  3465               	retlw	101	;'e'
   328  0033  342E               	retlw	46	;'.'
   329  0034  342E               	retlw	46	;'.'
   330  0035  3400               	retlw	0
   331                           psect	strings
   332                           	
   333  0036                     STR_8:	
   334  0036  3453               	retlw	83	;'S'
   335  0037  3445               	retlw	69	;'E'
   336  0038  3454               	retlw	84	;'T'
   337  0039  3454               	retlw	84	;'T'
   338  003A  3449               	retlw	73	;'I'
   339  003B  344E               	retlw	78	;'N'
   340  003C  3447               	retlw	71	;'G'
   341  003D  3453               	retlw	83	;'S'
   342  003E  3420               	retlw	32	;' '
   343  003F  3455               	retlw	85	;'U'
   344  0040  3450               	retlw	80	;'P'
   345  0041  3444               	retlw	68	;'D'
   346  0042  3441               	retlw	65	;'A'
   347  0043  3454               	retlw	84	;'T'
   348  0044  3445               	retlw	69	;'E'
   349  0045  3444               	retlw	68	;'D'
   350  0046  3400               	retlw	0
   351                           psect	strings
   352                           	
   353  0047                     STR_22:	
   354  0047  3453               	retlw	83	;'S'
   355  0048  3465               	retlw	101	;'e'
   356  0049  3472               	retlw	114	;'r'
   357  004A  3476               	retlw	118	;'v'
   358  004B  3469               	retlw	105	;'i'
   359  004C  346E               	retlw	110	;'n'
   360  004D  3467               	retlw	103	;'g'
   361  004E  3420               	retlw	32	;' '
   362  004F  3457               	retlw	87	;'W'
   363  0050  3461               	retlw	97	;'a'
   364  0051  3474               	retlw	116	;'t'
   365  0052  3465               	retlw	101	;'e'
   366  0053  3472               	retlw	114	;'r'
   367  0054  342E               	retlw	46	;'.'
   368  0055  342E               	retlw	46	;'.'
   369  0056  3400               	retlw	0
   370                           psect	strings
   371                           	
   372  0057                     STR_6:	
   373  0057  3444               	retlw	68	;'D'
   374  0058  3445               	retlw	69	;'E'
   375  0059  3446               	retlw	70	;'F'
   376  005A  3441               	retlw	65	;'A'
   377  005B  3455               	retlw	85	;'U'
   378  005C  344C               	retlw	76	;'L'
   379  005D  3454               	retlw	84	;'T'
   380  005E  3420               	retlw	32	;' '
   381  005F  3455               	retlw	85	;'U'
   382  0060  3450               	retlw	80	;'P'
   383  0061  3444               	retlw	68	;'D'
   384  0062  3441               	retlw	65	;'A'
   385  0063  3454               	retlw	84	;'T'
   386  0064  3445               	retlw	69	;'E'
   387  0065  3444               	retlw	68	;'D'
   388  0066  3400               	retlw	0
   389                           psect	strings
   390                           	
   391  0067                     STR_13:	
   392  0067  3443               	retlw	67	;'C'
   393  0068  344F               	retlw	79	;'O'
   394  0069  3446               	retlw	70	;'F'
   395  006A  3446               	retlw	70	;'F'
   396  006B  3445               	retlw	69	;'E'
   397  006C  3445               	retlw	69	;'E'
   398  006D  3420               	retlw	32	;' '
   399  006E  3453               	retlw	83	;'S'
   400  006F  3445               	retlw	69	;'E'
   401  0070  3454               	retlw	84	;'T'
   402  0071  3454               	retlw	84	;'T'
   403  0072  3449               	retlw	73	;'I'
   404  0073  344E               	retlw	78	;'N'
   405  0074  3447               	retlw	71	;'G'
   406  0075  3453               	retlw	83	;'S'
   407  0076  3400               	retlw	0
   408                           psect	strings
   409                           	
   410  0077                     STR_20:	
   411  0077  3453               	retlw	83	;'S'
   412  0078  3465               	retlw	101	;'e'
   413  0079  3472               	retlw	114	;'r'
   414  007A  3476               	retlw	118	;'v'
   415  007B  3469               	retlw	105	;'i'
   416  007C  346E               	retlw	110	;'n'
   417  007D  3467               	retlw	103	;'g'
   418  007E  3420               	retlw	32	;' '
   419  007F  3448               	retlw	72	;'H'
   420  0080  3461               	retlw	97	;'a'
   421  0081  346C               	retlw	108	;'l'
   422  0082  3466               	retlw	102	;'f'
   423  0083  342E               	retlw	46	;'.'
   424  0084  342E               	retlw	46	;'.'
   425  0085  3400               	retlw	0
   426                           psect	strings
   427                           	
   428  0086                     STR_7:	
   429  0086  3450               	retlw	80	;'P'
   430  0087  3452               	retlw	82	;'R'
   431  0088  3445               	retlw	69	;'E'
   432  0089  3453               	retlw	83	;'S'
   433  008A  3453               	retlw	83	;'S'
   434  008B  3420               	retlw	32	;' '
   435  008C  3445               	retlw	69	;'E'
   436  008D  3458               	retlw	88	;'X'
   437  008E  3449               	retlw	73	;'I'
   438  008F  3454               	retlw	84	;'T'
   439  0090  3420               	retlw	32	;' '
   440  0091  344B               	retlw	75	;'K'
   441  0092  3445               	retlw	69	;'E'
   442  0093  3459               	retlw	89	;'Y'
   443  0094  3400               	retlw	0
   444                           psect	strings
   445                           	
   446  0095                     STR_2:	
   447  0095  3453               	retlw	83	;'S'
   448  0096  3445               	retlw	69	;'E'
   449  0097  3454               	retlw	84	;'T'
   450  0098  3454               	retlw	84	;'T'
   451  0099  3449               	retlw	73	;'I'
   452  009A  344E               	retlw	78	;'N'
   453  009B  3447               	retlw	71	;'G'
   454  009C  3453               	retlw	83	;'S'
   455  009D  345F               	retlw	95	;'_'
   456  009E  3430               	retlw	48	;'0'
   457  009F  3446               	retlw	70	;'F'
   458  00A0  3446               	retlw	70	;'F'
   459  00A1  345F               	retlw	95	;'_'
   460  00A2  3449               	retlw	73	;'I'
   461  00A3  3400               	retlw	0
   462                           psect	strings
   463                           	
   464  00A4                     STR_21:	
   465  00A4  3453               	retlw	83	;'S'
   466  00A5  3465               	retlw	101	;'e'
   467  00A6  3472               	retlw	114	;'r'
   468  00A7  3476               	retlw	118	;'v'
   469  00A8  3469               	retlw	105	;'i'
   470  00A9  346E               	retlw	110	;'n'
   471  00AA  3467               	retlw	103	;'g'
   472  00AB  3420               	retlw	32	;' '
   473  00AC  3454               	retlw	84	;'T'
   474  00AD  3465               	retlw	101	;'e'
   475  00AE  3461               	retlw	97	;'a'
   476  00AF  342E               	retlw	46	;'.'
   477  00B0  342E               	retlw	46	;'.'
   478  00B1  3400               	retlw	0
   479                           psect	strings
   480                           	
   481  00B2                     STR_1:	
   482  00B2  3453               	retlw	83	;'S'
   483  00B3  3445               	retlw	69	;'E'
   484  00B4  3454               	retlw	84	;'T'
   485  00B5  3454               	retlw	84	;'T'
   486  00B6  3449               	retlw	73	;'I'
   487  00B7  344E               	retlw	78	;'N'
   488  00B8  3447               	retlw	71	;'G'
   489  00B9  3453               	retlw	83	;'S'
   490  00BA  345F               	retlw	95	;'_'
   491  00BB  3430               	retlw	48	;'0'
   492  00BC  344E               	retlw	78	;'N'
   493  00BD  345F               	retlw	95	;'_'
   494  00BE  3449               	retlw	73	;'I'
   495  00BF  3400               	retlw	0
   496                           psect	strings
   497                           	
   498  00C0                     STR_10:	
   499  00C0  3454               	retlw	84	;'T'
   500  00C1  3445               	retlw	69	;'E'
   501  00C2  3441               	retlw	65	;'A'
   502  00C3  3420               	retlw	32	;' '
   503  00C4  3453               	retlw	83	;'S'
   504  00C5  3445               	retlw	69	;'E'
   505  00C6  3454               	retlw	84	;'T'
   506  00C7  3454               	retlw	84	;'T'
   507  00C8  3449               	retlw	73	;'I'
   508  00C9  344E               	retlw	78	;'N'
   509  00CA  3447               	retlw	71	;'G'
   510  00CB  3453               	retlw	83	;'S'
   511  00CC  3400               	retlw	0
   512                           psect	strings
   513                           	
   514  00CD                     STR_16:	
   515  00CD  3453               	retlw	83	;'S'
   516  00CE  3445               	retlw	69	;'E'
   517  00CF  3454               	retlw	84	;'T'
   518  00D0  3420               	retlw	32	;' '
   519  00D1  3444               	retlw	68	;'D'
   520  00D2  3445               	retlw	69	;'E'
   521  00D3  3446               	retlw	70	;'F'
   522  00D4  3441               	retlw	65	;'A'
   523  00D5  3455               	retlw	85	;'U'
   524  00D6  344C               	retlw	76	;'L'
   525  00D7  3454               	retlw	84	;'T'
   526  00D8  3453               	retlw	83	;'S'
   527  00D9  3400               	retlw	0
   528                           psect	strings
   529                           	
   530  00DA                     STR_5:	
   531  00DA  3453               	retlw	83	;'S'
   532  00DB  3474               	retlw	116	;'t'
   533  00DC  3461               	retlw	97	;'a'
   534  00DD  3472               	retlw	114	;'r'
   535  00DE  3474               	retlw	116	;'t'
   536  00DF  3469               	retlw	105	;'i'
   537  00E0  346E               	retlw	110	;'n'
   538  00E1  3467               	retlw	103	;'g'
   539  00E2  342E               	retlw	46	;'.'
   540  00E3  342E               	retlw	46	;'.'
   541  00E4  342E               	retlw	46	;'.'
   542  00E5  342E               	retlw	46	;'.'
   543  00E6  3400               	retlw	0
   544                           psect	strings
   545                           	
   546  00E7                     STR_3:	
   547  00E7  3457               	retlw	87	;'W'
   548  00E8  3445               	retlw	69	;'E'
   549  00E9  344C               	retlw	76	;'L'
   550  00EA  3443               	retlw	67	;'C'
   551  00EB  344F               	retlw	79	;'O'
   552  00EC  344D               	retlw	77	;'M'
   553  00ED  3445               	retlw	69	;'E'
   554  00EE  3400               	retlw	0
   555                           psect	strings
   556                           	
   557  00EF                     STR_17:	
   558  00EF  3459               	retlw	89	;'Y'
   559  00F0  3445               	retlw	69	;'E'
   560  00F1  3453               	retlw	83	;'S'
   561  00F2  3400               	retlw	0
   562                           psect	strings
   563                           	
   564  00F3                     STR_14:	
   565  00F3  3443               	retlw	67	;'C'
   566  00F4  343A               	retlw	58	;':'
   567  00F5  3400               	retlw	0
   568                           psect	strings
   569                           	
   570  00F6                     STR_11:	
   571  00F6  3454               	retlw	84	;'T'
   572  00F7  343A               	retlw	58	;':'
   573  00F8  3400               	retlw	0
   574                           psect	strings
   575                           	
   576  00F9                     STR_12:	
   577  00F9  3457               	retlw	87	;'W'
   578  00FA  343A               	retlw	58	;':'
   579  00FB  3400               	retlw	0
   580                           psect	strings
   581                           	
   582  00FC                     STR_18:	
   583  00FC  344E               	retlw	78	;'N'
   584  00FD  344F               	retlw	79	;'O'
   585  00FE  3400               	retlw	0
   586                           psect	strings
   587  0086                     STR_9	equ	STR_7+0
   588  00E7                     STR_4	equ	STR_3+0
   589  00F9                     STR_15	equ	STR_12+0
   590                           	file	"C:\Users\Lenovo\AppData\Local\Temp\s81o."
   591                           	line	#
   592                           psect cinit,class=CODE,delta=2
   593                           global start_initialization
   594  097F                     start_initialization:
   595                           
   596                           psect	dataCOMMON,class=COMMON,space=1
   597                           global __pdataCOMMON
   598  007C                     __pdataCOMMON:
   599                           	file	"CommonDeclarations.h"
   600                           	line	46
   601  007C                     _IsNewMachine:
   602  007C                            ds      1
   603                           
   604                           psect	dataCOMMON
   605                           	file	"SettingModeHandler.h"
   606                           	line	26
   607  007D                     _isFirstTimeInSetting:
   608  007D                            ds      1
   609                           
   610                           psect	bssBANK0,class=BANK0,space=1
   611                           global __pbssBANK0
   612  0055                     __pbssBANK0:
   613  0055                     _buttonPressedCount:
   614  0055                            ds      2
   615                           
   616  0057                     _ParameterIndex:
   617  0057                            ds      1
   618                           
   619  0058                     _ScreenIndex:
   620  0058                            ds      1
   621                           
   622  0059                     _button_pressed:
   623  0059                            ds      1
   624                           
   625  005A                     _flag_T0_OneSecond:
   626  005A                            ds      1
   627                           
   628  005B                     _flag_T0_TenSecond:
   629  005B                            ds      1
   630                           
   631  005C                     _isFirstTime_Settings:
   632  005C                            ds      1
   633                           
   634  005D                     _isKeyPressed:
   635  005D                            ds      1
   636                           
   637  005E                     _keyPressed:
   638  005E                            ds      1
   639                           
   640  005F                     _timer0_count:
   641  005F                            ds      1
   642                           
   643  0060                     _timer0_count10:
   644  0060                            ds      1
   645                           
   646                           psect	dataBANK0,class=BANK0,space=1
   647                           global __pdataBANK0
   648  0046                     __pdataBANK0:
   649                           	file	"lcd.c"
   650                           	line	8
   651  0046                     lcd_init@F632:
   652  0046                            ds      6
   653                           
   654                           psect	dataBANK0
   655                           	file	"lcd.c"
   656                           	line	126
   657  004C                     lcd_writeThisDigit@F653:
   658  004C                            ds      4
   659                           
   660                           psect	dataBANK0
   661                           	file	"CommonDeclarations.h"
   662                           	line	52
   663  0050                     _CurrentCoffeeQuantity:
   664  0050                            ds      1
   665                           
   666                           psect	dataBANK0
   667                           	file	"CommonDeclarations.h"
   668                           	line	54
   669  0051                     _CurrentTeaQuantity:
   670  0051                            ds      1
   671                           
   672                           psect	dataBANK0
   673                           	file	"CommonDeclarations.h"
   674                           	line	53
   675  0052                     _CurrentWaterQuantity_forCoffee:
   676  0052                            ds      1
   677                           
   678                           psect	dataBANK0
   679                           	file	"CommonDeclarations.h"
   680                           	line	55
   681  0053                     _CurrentWaterQuantity_forTea:
   682  0053                            ds      1
   683                           
   684                           psect	dataBANK0
   685                           	file	"CommonDeclarations.h"
   686                           	line	49
   687  0054                     _modeOfWorking:
   688  0054                            ds      1
   689                           
   690                           ; Clear objects allocated to BANK0
   691                           psect cinit,class=CODE,delta=2
   692  097F  01D5               	clrf	((__pbssBANK0)+0)&07Fh
   693  0980  01D6               	clrf	((__pbssBANK0)+1)&07Fh
   694  0981  01D7               	clrf	((__pbssBANK0)+2)&07Fh
   695  0982  01D8               	clrf	((__pbssBANK0)+3)&07Fh
   696  0983  01D9               	clrf	((__pbssBANK0)+4)&07Fh
   697  0984  01DA               	clrf	((__pbssBANK0)+5)&07Fh
   698  0985  01DB               	clrf	((__pbssBANK0)+6)&07Fh
   699  0986  01DC               	clrf	((__pbssBANK0)+7)&07Fh
   700  0987  01DD               	clrf	((__pbssBANK0)+8)&07Fh
   701  0988  01DE               	clrf	((__pbssBANK0)+9)&07Fh
   702  0989  01DF               	clrf	((__pbssBANK0)+10)&07Fh
   703  098A  01E0               	clrf	((__pbssBANK0)+11)&07Fh
   704                           global btemp
   705                           psect inittext,class=CODE,delta=2
   706                           global init_fetch,btemp
   707                           ;	Called with low address in FSR and high address in W
   708  0855                     init_fetch:
   709  0855  087E               	movf btemp,w
   710  0856  008A               	movwf pclath
   711  0857  087F               	movf btemp+1,w
   712  0858  0082               	movwf pc
   713                           global init_ram
   714                           ;Called with:
   715                           ;	high address of idata address in btemp 
   716                           ;	low address of idata address in btemp+1 
   717                           ;	low address of data in FSR
   718                           ;	high address + 1 of data in btemp-1
   719  0859                     init_ram:
   720  0859  2055  120A  158A   	fcall init_fetch
   721  085C  0080               	movwf indf,f
   722  085D  0A84               	incf fsr,f
   723  085E  0804               	movf fsr,w
   724  085F  067D               	xorwf btemp-1,w
   725  0860  1903               	btfsc status,2
   726  0861  3400               	retlw 0
   727  0862  0AFF               	incf btemp+1,f
   728  0863  1903               	btfsc status,2
   729  0864  0AFE               	incf btemp,f
   730  0865  2859               	goto init_ram
   731                           ; Initialize objects allocated to BANK0
   732                           psect cinit,class=CODE,delta=2
   733                           global init_ram, __pidataBANK0
   734  098B  1383               	bcf	status, 7	;select IRP bank0
   735  098C  3055               	movlw low(__pdataBANK0+15)
   736  098D  00FD               	movwf btemp-1,f
   737  098E  3008               	movlw high(__pidataBANK0)
   738  098F  00FE               	movwf btemp,f
   739  0990  3035               	movlw low(__pidataBANK0)
   740  0991  00FF               	movwf btemp+1,f
   741  0992  3046               	movlw low(__pdataBANK0)
   742  0993  0084               	movwf fsr,f
   743  0994  120A  158A  2059   	fcall init_ram
              120A  158A         
   744                           ; Initialize objects allocated to COMMON
   745                           	global __pidataCOMMON
   746                           psect cinit,class=CODE,delta=2
   747  0999  120A  118A  27FD   	fcall	__pidataCOMMON+0		;fetch initializer
              120A  158A         
   748  099E  00FC               	movwf	__pdataCOMMON+0&07fh		
   749  099F  120A  118A  27FE   	fcall	__pidataCOMMON+1		;fetch initializer
              120A  158A         
   750  09A4  00FD               	movwf	__pdataCOMMON+1&07fh		
   751                           psect cinit,class=CODE,delta=2
   752                           global end_of_initialization
   753                           
   754                           ;End of C runtime variable initialization code
   755                           
   756  09A5                     end_of_initialization:
   757  09A5  0183               clrf status
   758  09A6  120A  158A  2B65   ljmp _main	;jump to C main() function
   759                           psect	cstackBANK1,class=BANK1,space=1
   760                           global __pcstackBANK1
   761  00A0                     __pcstackBANK1:
   762                           	global	SettingModeOperations@keyPressed
   763  00A0                     SettingModeOperations@keyPressed:	; 1 bytes @ 0x0
   764  00A0                     	ds	1
   765                           	global	handleEvent@keyPressed
   766  00A1                     handleEvent@keyPressed:	; 1 bytes @ 0x1
   767  00A1                     	ds	1
   768                           	global	??_IsKeyPressed
   769  00A2                     ??_IsKeyPressed:	; 0 bytes @ 0x2
   770  00A2                     	ds	3
   771                           	global	??_main
   772  00A5                     ??_main:	; 0 bytes @ 0x5
   773  00A5                     	ds	2
   774                           psect	cstackCOMMON,class=COMMON,space=1
   775                           global __pcstackCOMMON
   776  0070                     __pcstackCOMMON:
   777                           	global	?_disableInterrupt_RB0
   778  0070                     ?_disableInterrupt_RB0:	; 0 bytes @ 0x0
   779                           	global	??_disableInterrupt_RB0
   780  0070                     ??_disableInterrupt_RB0:	; 0 bytes @ 0x0
   781                           	global	?_lcd_clear
   782  0070                     ?_lcd_clear:	; 0 bytes @ 0x0
   783                           	global	?_InitialiseSettingMode
   784  0070                     ?_InitialiseSettingMode:	; 0 bytes @ 0x0
   785                           	global	?_enableInterrupt_RB0
   786  0070                     ?_enableInterrupt_RB0:	; 0 bytes @ 0x0
   787                           	global	?_handleEvent
   788  0070                     ?_handleEvent:	; 0 bytes @ 0x0
   789                           	global	?_SettingModeOperations
   790  0070                     ?_SettingModeOperations:	; 0 bytes @ 0x0
   791                           	global	?_NormalModeOperations
   792  0070                     ?_NormalModeOperations:	; 0 bytes @ 0x0
   793                           	global	?_PreviousButtonHandler
   794  0070                     ?_PreviousButtonHandler:	; 0 bytes @ 0x0
   795                           	global	?_UpbuttonHandler
   796  0070                     ?_UpbuttonHandler:	; 0 bytes @ 0x0
   797                           	global	?_DownButtonHandler
   798  0070                     ?_DownButtonHandler:	; 0 bytes @ 0x0
   799                           	global	?_NextButtonHandler
   800  0070                     ?_NextButtonHandler:	; 0 bytes @ 0x0
   801                           	global	?_serveCoffee
   802  0070                     ?_serveCoffee:	; 0 bytes @ 0x0
   803                           	global	?_serveHalfQuantity
   804  0070                     ?_serveHalfQuantity:	; 0 bytes @ 0x0
   805                           	global	?_serveHotWater
   806  0070                     ?_serveHotWater:	; 0 bytes @ 0x0
   807                           	global	?_serveTea
   808  0070                     ?_serveTea:	; 0 bytes @ 0x0
   809                           	global	?_default_initialisations
   810  0070                     ?_default_initialisations:	; 0 bytes @ 0x0
   811                           	global	?_peripheral_initialsation
   812  0070                     ?_peripheral_initialsation:	; 0 bytes @ 0x0
   813                           	global	?_isItFirstTime
   814  0070                     ?_isItFirstTime:	; 0 bytes @ 0x0
   815                           	global	?_default_bootSequence
   816  0070                     ?_default_bootSequence:	; 0 bytes @ 0x0
   817                           	global	?_lcd_init
   818  0070                     ?_lcd_init:	; 0 bytes @ 0x0
   819                           	global	?_initialisePortB
   820  0070                     ?_initialisePortB:	; 0 bytes @ 0x0
   821                           	global	?_UpdateScreen
   822  0070                     ?_UpdateScreen:	; 0 bytes @ 0x0
   823                           	global	?_lcd_writeThisDigit
   824  0070                     ?_lcd_writeThisDigit:	; 0 bytes @ 0x0
   825                           	global	?_lcd_cmd
   826  0070                     ?_lcd_cmd:	; 0 bytes @ 0x0
   827                           	global	?_GlobalInterrupt_ENABLE
   828  0070                     ?_GlobalInterrupt_ENABLE:	; 0 bytes @ 0x0
   829                           	global	?_PeripheralInterrupt_DISABLE
   830  0070                     ?_PeripheralInterrupt_DISABLE:	; 0 bytes @ 0x0
   831                           	global	?_ISR
   832  0070                     ?_ISR:	; 0 bytes @ 0x0
   833                           	global	?_IsKeyPressed
   834  0070                     ?_IsKeyPressed:	; 0 bytes @ 0x0
   835                           	global	?_main
   836  0070                     ?_main:	; 0 bytes @ 0x0
   837                           	global	?_lcd_write
   838  0070                     ?_lcd_write:	; 0 bytes @ 0x0
   839                           	global	?i1_enableInterrupt_RB0
   840  0070                     ?i1_enableInterrupt_RB0:	; 0 bytes @ 0x0
   841                           	global	??i1_enableInterrupt_RB0
   842  0070                     ??i1_enableInterrupt_RB0:	; 0 bytes @ 0x0
   843                           	global	?i1_UpdateScreen
   844  0070                     ?i1_UpdateScreen:	; 0 bytes @ 0x0
   845                           	global	?i1_lcd_write
   846  0070                     ?i1_lcd_write:	; 0 bytes @ 0x0
   847                           	global	??i1_lcd_write
   848  0070                     ??i1_lcd_write:	; 0 bytes @ 0x0
   849                           	global	?i1_lcd_cmd
   850  0070                     ?i1_lcd_cmd:	; 0 bytes @ 0x0
   851                           	global	??i1_lcd_cmd
   852  0070                     ??i1_lcd_cmd:	; 0 bytes @ 0x0
   853                           	global	?i1_lcd_clear
   854  0070                     ?i1_lcd_clear:	; 0 bytes @ 0x0
   855                           	global	?i1_lcd_writeThisDigit
   856  0070                     ?i1_lcd_writeThisDigit:	; 0 bytes @ 0x0
   857                           	global	?i1___awdiv
   858  0070                     ?i1___awdiv:	; 2 bytes @ 0x0
   859                           	global	?i1___awmod
   860  0070                     ?i1___awmod:	; 2 bytes @ 0x0
   861                           	global	UpdateScreen@Mode
   862  0070                     UpdateScreen@Mode:	; 1 bytes @ 0x0
   863                           	global	i1___awdiv@divisor
   864  0070                     i1___awdiv@divisor:	; 2 bytes @ 0x0
   865                           	global	i1___awmod@divisor
   866  0070                     i1___awmod@divisor:	; 2 bytes @ 0x0
   867  0070                     	ds	2
   868                           	global	i1lcd_write@data
   869  0072                     i1lcd_write@data:	; 1 bytes @ 0x2
   870                           	global	i1lcd_cmd@cmnd
   871  0072                     i1lcd_cmd@cmnd:	; 1 bytes @ 0x2
   872                           	global	i1___awdiv@dividend
   873  0072                     i1___awdiv@dividend:	; 2 bytes @ 0x2
   874                           	global	i1___awmod@dividend
   875  0072                     i1___awmod@dividend:	; 2 bytes @ 0x2
   876  0072                     	ds	1
   877                           	global	?i1_lcd_puts
   878  0073                     ?i1_lcd_puts:	; 0 bytes @ 0x3
   879                           	global	?i1_goto_XY
   880  0073                     ?i1_goto_XY:	; 0 bytes @ 0x3
   881                           	global	??i1_lcd_clear
   882  0073                     ??i1_lcd_clear:	; 0 bytes @ 0x3
   883                           	global	i1goto_XY@column
   884  0073                     i1goto_XY@column:	; 1 bytes @ 0x3
   885                           	global	i1lcd_puts@ptr
   886  0073                     i1lcd_puts@ptr:	; 2 bytes @ 0x3
   887  0073                     	ds	1
   888                           	global	??i1_goto_XY
   889  0074                     ??i1_goto_XY:	; 0 bytes @ 0x4
   890                           	global	??i1___awdiv
   891  0074                     ??i1___awdiv:	; 0 bytes @ 0x4
   892                           	global	??i1___awmod
   893  0074                     ??i1___awmod:	; 0 bytes @ 0x4
   894                           	global	i1goto_XY@row
   895  0074                     i1goto_XY@row:	; 1 bytes @ 0x4
   896  0074                     	ds	1
   897                           	global	??i1_lcd_puts
   898  0075                     ??i1_lcd_puts:	; 0 bytes @ 0x5
   899                           	global	?i1_lcd_writeThisStringAt
   900  0075                     ?i1_lcd_writeThisStringAt:	; 0 bytes @ 0x5
   901                           	global	i1lcd_writeThisStringAt@column
   902  0075                     i1lcd_writeThisStringAt@column:	; 1 bytes @ 0x5
   903                           	global	i1___awdiv@counter
   904  0075                     i1___awdiv@counter:	; 1 bytes @ 0x5
   905                           	global	i1___awmod@counter
   906  0075                     i1___awmod@counter:	; 1 bytes @ 0x5
   907  0075                     	ds	1
   908                           	global	i1lcd_writeThisStringAt@ptr
   909  0076                     i1lcd_writeThisStringAt@ptr:	; 1 bytes @ 0x6
   910                           	global	i1___awdiv@sign
   911  0076                     i1___awdiv@sign:	; 1 bytes @ 0x6
   912                           	global	i1___awmod@sign
   913  0076                     i1___awmod@sign:	; 1 bytes @ 0x6
   914  0076                     	ds	1
   915                           	global	??i1_lcd_writeThisStringAt
   916  0077                     ??i1_lcd_writeThisStringAt:	; 0 bytes @ 0x7
   917                           	global	i1___awdiv@quotient
   918  0077                     i1___awdiv@quotient:	; 2 bytes @ 0x7
   919  0077                     	ds	1
   920                           	global	i1lcd_writeThisStringAt@row
   921  0078                     i1lcd_writeThisStringAt@row:	; 1 bytes @ 0x8
   922  0078                     	ds	1
   923                           	global	??i1_lcd_writeThisDigit
   924  0079                     ??i1_lcd_writeThisDigit:	; 0 bytes @ 0x9
   925  0079                     	ds	3
   926                           	global	??_InitialiseSettingMode
   927  007C                     ??_InitialiseSettingMode:	; 0 bytes @ 0xC
   928                           psect	cstackBANK0,class=BANK0,space=1
   929                           global __pcstackBANK0
   930  0020                     __pcstackBANK0:
   931                           	global	i1lcd_writeThisDigit@string
   932  0020                     i1lcd_writeThisDigit@string:	; 4 bytes @ 0x0
   933  0020                     	ds	4
   934                           	global	i1lcd_writeThisDigit@data
   935  0024                     i1lcd_writeThisDigit@data:	; 1 bytes @ 0x4
   936  0024                     	ds	1
   937                           	global	??i1_UpdateScreen
   938  0025                     ??i1_UpdateScreen:	; 0 bytes @ 0x5
   939  0025                     	ds	3
   940                           	global	??_ISR
   941  0028                     ??_ISR:	; 0 bytes @ 0x8
   942  0028                     	ds	7
   943                           	global	??_enableInterrupt_RB0
   944  002F                     ??_enableInterrupt_RB0:	; 0 bytes @ 0xF
   945                           	global	??_default_initialisations
   946  002F                     ??_default_initialisations:	; 0 bytes @ 0xF
   947                           	global	??_isItFirstTime
   948  002F                     ??_isItFirstTime:	; 0 bytes @ 0xF
   949                           	global	??_initialisePortB
   950  002F                     ??_initialisePortB:	; 0 bytes @ 0xF
   951                           	global	??_lcd_cmd
   952  002F                     ??_lcd_cmd:	; 0 bytes @ 0xF
   953                           	global	??_GlobalInterrupt_ENABLE
   954  002F                     ??_GlobalInterrupt_ENABLE:	; 0 bytes @ 0xF
   955                           	global	??_PeripheralInterrupt_DISABLE
   956  002F                     ??_PeripheralInterrupt_DISABLE:	; 0 bytes @ 0xF
   957                           	global	??_lcd_write
   958  002F                     ??_lcd_write:	; 0 bytes @ 0xF
   959                           	global	?___awdiv
   960  002F                     ?___awdiv:	; 2 bytes @ 0xF
   961                           	global	?___awmod
   962  002F                     ?___awmod:	; 2 bytes @ 0xF
   963                           	global	___awdiv@divisor
   964  002F                     ___awdiv@divisor:	; 2 bytes @ 0xF
   965                           	global	___awmod@divisor
   966  002F                     ___awmod@divisor:	; 2 bytes @ 0xF
   967  002F                     	ds	2
   968                           	global	lcd_write@data
   969  0031                     lcd_write@data:	; 1 bytes @ 0x11
   970                           	global	lcd_cmd@cmnd
   971  0031                     lcd_cmd@cmnd:	; 1 bytes @ 0x11
   972                           	global	___awdiv@dividend
   973  0031                     ___awdiv@dividend:	; 2 bytes @ 0x11
   974                           	global	___awmod@dividend
   975  0031                     ___awmod@dividend:	; 2 bytes @ 0x11
   976  0031                     	ds	1
   977                           	global	??_lcd_clear
   978  0032                     ??_lcd_clear:	; 0 bytes @ 0x12
   979                           	global	??_lcd_init
   980  0032                     ??_lcd_init:	; 0 bytes @ 0x12
   981                           	global	?_lcd_puts
   982  0032                     ?_lcd_puts:	; 0 bytes @ 0x12
   983                           	global	?_goto_XY
   984  0032                     ?_goto_XY:	; 0 bytes @ 0x12
   985                           	global	goto_XY@column
   986  0032                     goto_XY@column:	; 1 bytes @ 0x12
   987                           	global	lcd_puts@ptr
   988  0032                     lcd_puts@ptr:	; 2 bytes @ 0x12
   989  0032                     	ds	1
   990                           	global	??_goto_XY
   991  0033                     ??_goto_XY:	; 0 bytes @ 0x13
   992                           	global	??___awdiv
   993  0033                     ??___awdiv:	; 0 bytes @ 0x13
   994                           	global	??___awmod
   995  0033                     ??___awmod:	; 0 bytes @ 0x13
   996                           	global	goto_XY@row
   997  0033                     goto_XY@row:	; 1 bytes @ 0x13
   998                           	global	lcd_init@command_array
   999  0033                     lcd_init@command_array:	; 6 bytes @ 0x13
  1000  0033                     	ds	1
  1001                           	global	?_lcd_writeThisStringAt
  1002  0034                     ?_lcd_writeThisStringAt:	; 0 bytes @ 0x14
  1003                           	global	??_lcd_puts
  1004  0034                     ??_lcd_puts:	; 0 bytes @ 0x14
  1005                           	global	lcd_writeThisStringAt@column
  1006  0034                     lcd_writeThisStringAt@column:	; 1 bytes @ 0x14
  1007                           	global	___awdiv@counter
  1008  0034                     ___awdiv@counter:	; 1 bytes @ 0x14
  1009                           	global	___awmod@counter
  1010  0034                     ___awmod@counter:	; 1 bytes @ 0x14
  1011  0034                     	ds	1
  1012                           	global	lcd_writeThisStringAt@ptr
  1013  0035                     lcd_writeThisStringAt@ptr:	; 1 bytes @ 0x15
  1014                           	global	___awdiv@sign
  1015  0035                     ___awdiv@sign:	; 1 bytes @ 0x15
  1016                           	global	___awmod@sign
  1017  0035                     ___awmod@sign:	; 1 bytes @ 0x15
  1018  0035                     	ds	1
  1019                           	global	??_lcd_writeThisStringAt
  1020  0036                     ??_lcd_writeThisStringAt:	; 0 bytes @ 0x16
  1021                           	global	___awdiv@quotient
  1022  0036                     ___awdiv@quotient:	; 2 bytes @ 0x16
  1023  0036                     	ds	1
  1024                           	global	lcd_writeThisStringAt@row
  1025  0037                     lcd_writeThisStringAt@row:	; 1 bytes @ 0x17
  1026  0037                     	ds	1
  1027                           	global	??_serveCoffee
  1028  0038                     ??_serveCoffee:	; 0 bytes @ 0x18
  1029                           	global	??_serveHalfQuantity
  1030  0038                     ??_serveHalfQuantity:	; 0 bytes @ 0x18
  1031                           	global	??_serveHotWater
  1032  0038                     ??_serveHotWater:	; 0 bytes @ 0x18
  1033                           	global	??_serveTea
  1034  0038                     ??_serveTea:	; 0 bytes @ 0x18
  1035                           	global	??_default_bootSequence
  1036  0038                     ??_default_bootSequence:	; 0 bytes @ 0x18
  1037                           	global	??_lcd_writeThisDigit
  1038  0038                     ??_lcd_writeThisDigit:	; 0 bytes @ 0x18
  1039  0038                     	ds	1
  1040                           	global	lcd_init@index
  1041  0039                     lcd_init@index:	; 1 bytes @ 0x19
  1042  0039                     	ds	1
  1043                           	global	??_peripheral_initialsation
  1044  003A                     ??_peripheral_initialsation:	; 0 bytes @ 0x1A
  1045  003A                     	ds	1
  1046                           	global	??_NormalModeOperations
  1047  003B                     ??_NormalModeOperations:	; 0 bytes @ 0x1B
  1048                           	global	NormalModeOperations@keyPressed
  1049  003B                     NormalModeOperations@keyPressed:	; 1 bytes @ 0x1B
  1050                           	global	lcd_writeThisDigit@string
  1051  003B                     lcd_writeThisDigit@string:	; 4 bytes @ 0x1B
  1052  003B                     	ds	4
  1053                           	global	lcd_writeThisDigit@data
  1054  003F                     lcd_writeThisDigit@data:	; 1 bytes @ 0x1F
  1055  003F                     	ds	1
  1056                           	global	??_UpdateScreen
  1057  0040                     ??_UpdateScreen:	; 0 bytes @ 0x20
  1058  0040                     	ds	3
  1059                           	global	??_PreviousButtonHandler
  1060  0043                     ??_PreviousButtonHandler:	; 0 bytes @ 0x23
  1061                           	global	??_UpbuttonHandler
  1062  0043                     ??_UpbuttonHandler:	; 0 bytes @ 0x23
  1063                           	global	??_DownButtonHandler
  1064  0043                     ??_DownButtonHandler:	; 0 bytes @ 0x23
  1065                           	global	??_NextButtonHandler
  1066  0043                     ??_NextButtonHandler:	; 0 bytes @ 0x23
  1067  0043                     	ds	3
  1068                           	global	??_handleEvent
  1069  0046                     ??_handleEvent:	; 0 bytes @ 0x26
  1070                           	global	??_SettingModeOperations
  1071  0046                     ??_SettingModeOperations:	; 0 bytes @ 0x26
  1072 ;;Data sizes: Strings 218, constant 0, data 17, bss 12, persistent 0 stack 0
  1073 ;;Auto spaces:   Size  Autos    Used
  1074 ;; COMMON          14     12      14
  1075 ;; BANK0           80     38      65
  1076 ;; BANK1           80      7       7
  1077 ;; BANK3           96      0       0
  1078 ;; BANK2           96      0       0
  1079                           
  1080 ;;
  1081 ;; Pointer list with targets:
  1082                           
  1083 ;; ?i1___awdiv	int  size(1) Largest target is 0
  1084 ;;
  1085 ;; ?i1___awmod	int  size(1) Largest target is 0
  1086 ;;
  1087 ;; i1lcd_puts@ptr	PTR unsigned char  size(2) Largest target is 17
  1088 ;;		 -> i1lcd_writeThisDigit@string(BANK0[4]), STR_22(CODE[16]), STR_21(CODE[14]), STR_20(CODE[15]), 
  1089 ;;		 -> STR_19(CODE[17]), STR_18(CODE[3]), STR_17(CODE[4]), STR_16(CODE[13]), 
  1090 ;;		 -> STR_15(CODE[3]), STR_14(CODE[3]), STR_13(CODE[16]), STR_12(CODE[3]), 
  1091 ;;		 -> STR_11(CODE[3]), STR_10(CODE[13]), STR_9(CODE[15]), STR_8(CODE[17]), 
  1092 ;;		 -> STR_7(CODE[15]), STR_6(CODE[16]), STR_5(CODE[13]), STR_4(CODE[8]), 
  1093 ;;		 -> STR_3(CODE[8]), STR_2(CODE[15]), STR_1(CODE[14]), 
  1094 ;;
  1095 ;; i1lcd_writeThisStringAt@ptr	PTR unsigned char  size(1) Largest target is 16
  1096 ;;		 -> STR_18(CODE[3]), STR_17(CODE[4]), STR_16(CODE[13]), STR_15(CODE[3]), 
  1097 ;;		 -> STR_14(CODE[3]), STR_13(CODE[16]), STR_12(CODE[3]), STR_11(CODE[3]), 
  1098 ;;		 -> STR_10(CODE[13]), STR_3(CODE[8]), STR_2(CODE[15]), STR_1(CODE[14]), 
  1099 ;;
  1100 ;; ?___awdiv	int  size(1) Largest target is 0
  1101 ;;
  1102 ;; ?___awmod	int  size(1) Largest target is 0
  1103 ;;
  1104 ;; lcd_writeThisStringAt@ptr	PTR unsigned char  size(1) Largest target is 17
  1105 ;;		 -> STR_22(CODE[16]), STR_21(CODE[14]), STR_20(CODE[15]), STR_19(CODE[17]), 
  1106 ;;		 -> STR_18(CODE[3]), STR_17(CODE[4]), STR_16(CODE[13]), STR_15(CODE[3]), 
  1107 ;;		 -> STR_14(CODE[3]), STR_13(CODE[16]), STR_12(CODE[3]), STR_11(CODE[3]), 
  1108 ;;		 -> STR_10(CODE[13]), STR_9(CODE[15]), STR_8(CODE[17]), STR_7(CODE[15]), 
  1109 ;;		 -> STR_6(CODE[16]), STR_5(CODE[13]), STR_4(CODE[8]), STR_3(CODE[8]), 
  1110 ;;		 -> STR_2(CODE[15]), STR_1(CODE[14]), 
  1111 ;;
  1112 ;; lcd_puts@ptr	PTR unsigned char  size(2) Largest target is 17
  1113 ;;		 -> STR_22(CODE[16]), STR_21(CODE[14]), STR_20(CODE[15]), STR_19(CODE[17]), 
  1114 ;;		 -> lcd_writeThisDigit@string(BANK0[4]), STR_18(CODE[3]), STR_17(CODE[4]), STR_16(CODE[13]), 
  1115 ;;		 -> STR_15(CODE[3]), STR_14(CODE[3]), STR_13(CODE[16]), STR_12(CODE[3]), 
  1116 ;;		 -> STR_11(CODE[3]), STR_10(CODE[13]), STR_9(CODE[15]), STR_8(CODE[17]), 
  1117 ;;		 -> STR_7(CODE[15]), STR_6(CODE[16]), STR_5(CODE[13]), STR_4(CODE[8]), 
  1118 ;;		 -> STR_3(CODE[8]), STR_2(CODE[15]), STR_1(CODE[14]), 
  1119 ;;
  1120                           
  1121                           
  1122 ;;
  1123 ;; Critical Paths under _main in COMMON
  1124 ;;
  1125 ;;   None.
  1126 ;;
  1127 ;; Critical Paths under _ISR in COMMON
  1128 ;;
  1129 ;;   i1_UpdateScreen->i1_lcd_writeThisDigit
  1130 ;;   i1_lcd_writeThisDigit->i1___awdiv
  1131 ;;   i1_lcd_writeThisStringAt->i1_goto_XY
  1132 ;;   i1_lcd_writeThisStringAt->i1_lcd_puts
  1133 ;;   i1_lcd_clear->i1_lcd_cmd
  1134 ;;   i1_goto_XY->i1_lcd_cmd
  1135 ;;   i1_lcd_puts->i1_lcd_write
  1136 ;;
  1137 ;; Critical Paths under _main in BANK0
  1138 ;;
  1139 ;;   _SettingModeOperations->_UpbuttonHandler
  1140 ;;   _SettingModeOperations->_DownButtonHandler
  1141 ;;   _NextButtonHandler->_UpdateScreen
  1142 ;;   _DownButtonHandler->_UpdateScreen
  1143 ;;   _UpbuttonHandler->_UpdateScreen
  1144 ;;   _PreviousButtonHandler->_UpdateScreen
  1145 ;;   _NormalModeOperations->_serveCoffee
  1146 ;;   _NormalModeOperations->_serveHalfQuantity
  1147 ;;   _NormalModeOperations->_serveHotWater
  1148 ;;   _NormalModeOperations->_serveTea
  1149 ;;   _UpdateScreen->_lcd_writeThisDigit
  1150 ;;   _default_bootSequence->_lcd_writeThisStringAt
  1151 ;;   _serveTea->_lcd_writeThisStringAt
  1152 ;;   _serveHotWater->_lcd_writeThisStringAt
  1153 ;;   _serveHalfQuantity->_lcd_writeThisStringAt
  1154 ;;   _serveCoffee->_lcd_writeThisStringAt
  1155 ;;   _lcd_writeThisDigit->___awdiv
  1156 ;;   _peripheral_initialsation->_lcd_init
  1157 ;;   _lcd_writeThisStringAt->_goto_XY
  1158 ;;   _lcd_writeThisStringAt->_lcd_puts
  1159 ;;   _goto_XY->_lcd_cmd
  1160 ;;   _lcd_puts->_lcd_write
  1161 ;;   _lcd_init->_lcd_cmd
  1162 ;;   _lcd_clear->_lcd_cmd
  1163 ;;
  1164 ;; Critical Paths under _ISR in BANK0
  1165 ;;
  1166 ;;   _InitialiseSettingMode->i1_UpdateScreen
  1167 ;;   i1_UpdateScreen->i1_lcd_writeThisDigit
  1168 ;;
  1169 ;; Critical Paths under _main in BANK1
  1170 ;;
  1171 ;;   _main->_IsKeyPressed
  1172 ;;   _IsKeyPressed->_handleEvent
  1173 ;;   _handleEvent->_SettingModeOperations
  1174 ;;
  1175 ;; Critical Paths under _ISR in BANK1
  1176 ;;
  1177 ;;   None.
  1178 ;;
  1179 ;; Critical Paths under _main in BANK3
  1180 ;;
  1181 ;;   None.
  1182 ;;
  1183 ;; Critical Paths under _ISR in BANK3
  1184 ;;
  1185 ;;   None.
  1186 ;;
  1187 ;; Critical Paths under _main in BANK2
  1188 ;;
  1189 ;;   None.
  1190 ;;
  1191 ;; Critical Paths under _ISR in BANK2
  1192 ;;
  1193 ;;   None.
  1194                           
  1195 ;;
  1196 ;;Main: autosize = 0, tempsize = 2, incstack = 0, save=0
  1197 ;;
  1198                           
  1199 ;;
  1200 ;;Call Graph Tables:
  1201 ;;
  1202 ;; ---------------------------------------------------------------------------------
  1203 ;; (Depth) Function   	        Calls       Base Space   Used Autos Params    Refs
  1204 ;; ---------------------------------------------------------------------------------
  1205 ;; (0) _main                                                 2     2      0   10986
  1206 ;;                                              5 BANK1      2     2      0
  1207 ;;            _default_initialisations
  1208 ;;           _peripheral_initialsation
  1209 ;;                      _isItFirstTime
  1210 ;;               _default_bootSequence
  1211 ;;                          _lcd_clear
  1212 ;;              _lcd_writeThisStringAt
  1213 ;;                       _IsKeyPressed
  1214 ;; ---------------------------------------------------------------------------------
  1215 ;; (1) _IsKeyPressed                                         3     3      0    9914
  1216 ;;                                              2 BANK1      3     3      0
  1217 ;;                        _handleEvent
  1218 ;; ---------------------------------------------------------------------------------
  1219 ;; (2) _handleEvent                                          1     1      0    9914
  1220 ;;                                              1 BANK1      1     1      0
  1221 ;;                          _lcd_clear
  1222 ;;              _SettingModeOperations
  1223 ;;               _NormalModeOperations
  1224 ;; ---------------------------------------------------------------------------------
  1225 ;; (3) _SettingModeOperations                                1     1      0    7887
  1226 ;;                                              0 BANK1      1     1      0
  1227 ;;              _PreviousButtonHandler
  1228 ;;                    _UpbuttonHandler
  1229 ;;                  _DownButtonHandler
  1230 ;;                  _NextButtonHandler
  1231 ;; ---------------------------------------------------------------------------------
  1232 ;; (4) _NextButtonHandler                                    1     1      0    1761
  1233 ;;                                             35 BANK0      1     1      0
  1234 ;;                       _UpdateScreen
  1235 ;; ---------------------------------------------------------------------------------
  1236 ;; (4) _DownButtonHandler                                    3     3      0    2167
  1237 ;;                                             35 BANK0      3     3      0
  1238 ;;              _lcd_writeThisStringAt
  1239 ;;                       _UpdateScreen
  1240 ;; ---------------------------------------------------------------------------------
  1241 ;; (4) _UpbuttonHandler                                      3     3      0    2167
  1242 ;;                                             35 BANK0      3     3      0
  1243 ;;              _lcd_writeThisStringAt
  1244 ;;                       _UpdateScreen
  1245 ;; ---------------------------------------------------------------------------------
  1246 ;; (4) _PreviousButtonHandler                                1     1      0    1761
  1247 ;;                                             35 BANK0      1     1      0
  1248 ;;                       _UpdateScreen
  1249 ;; ---------------------------------------------------------------------------------
  1250 ;; (3) _NormalModeOperations                                 1     1      0    1903
  1251 ;;                                             27 BANK0      1     1      0
  1252 ;;                        _serveCoffee
  1253 ;;                  _serveHalfQuantity
  1254 ;;                      _serveHotWater
  1255 ;;                           _serveTea
  1256 ;; ---------------------------------------------------------------------------------
  1257 ;; (5) _UpdateScreen                                         4     4      0    1761
  1258 ;;                                             32 BANK0      3     3      0
  1259 ;;                          _lcd_clear
  1260 ;;              _lcd_writeThisStringAt
  1261 ;;                 _lcd_writeThisDigit
  1262 ;; ---------------------------------------------------------------------------------
  1263 ;; (1) _default_bootSequence                                 3     3      0     406
  1264 ;;                                             24 BANK0      3     3      0
  1265 ;;              _lcd_writeThisStringAt
  1266 ;; ---------------------------------------------------------------------------------
  1267 ;; (4) _serveTea                                             3     3      0     468
  1268 ;;                                             24 BANK0      3     3      0
  1269 ;;              _lcd_writeThisStringAt
  1270 ;;                          _lcd_clear
  1271 ;; ---------------------------------------------------------------------------------
  1272 ;; (4) _serveHotWater                                        3     3      0     468
  1273 ;;                                             24 BANK0      3     3      0
  1274 ;;              _lcd_writeThisStringAt
  1275 ;;                          _lcd_clear
  1276 ;; ---------------------------------------------------------------------------------
  1277 ;; (4) _serveHalfQuantity                                    3     3      0     468
  1278 ;;                                             24 BANK0      3     3      0
  1279 ;;              _lcd_writeThisStringAt
  1280 ;;                          _lcd_clear
  1281 ;; ---------------------------------------------------------------------------------
  1282 ;; (4) _serveCoffee                                          3     3      0     468
  1283 ;;                                             24 BANK0      3     3      0
  1284 ;;              _lcd_writeThisStringAt
  1285 ;;                          _lcd_clear
  1286 ;; ---------------------------------------------------------------------------------
  1287 ;; (6) _lcd_writeThisDigit                                   8     8      0    1293
  1288 ;;                                             24 BANK0      8     8      0
  1289 ;;                            ___awmod
  1290 ;;                            ___awdiv
  1291 ;;                           _lcd_puts
  1292 ;; ---------------------------------------------------------------------------------
  1293 ;; (1) _peripheral_initialsation                             0     0      0     198
  1294 ;;                           _lcd_init
  1295 ;;                    _initialisePortB
  1296 ;;                _enableInterrupt_RB0
  1297 ;;        _PeripheralInterrupt_DISABLE
  1298 ;;             _GlobalInterrupt_ENABLE
  1299 ;; ---------------------------------------------------------------------------------
  1300 ;; (5) _lcd_writeThisStringAt                                4     2      2     406
  1301 ;;                                             20 BANK0      4     2      2
  1302 ;;                            _goto_XY
  1303 ;;                           _lcd_puts
  1304 ;; ---------------------------------------------------------------------------------
  1305 ;; (6) _goto_XY                                              2     1      1     186
  1306 ;;                                             18 BANK0      2     1      1
  1307 ;;                            _lcd_cmd
  1308 ;; ---------------------------------------------------------------------------------
  1309 ;; (6) _lcd_puts                                             2     0      2     127
  1310 ;;                                             18 BANK0      2     0      2
  1311 ;;                          _lcd_write
  1312 ;; ---------------------------------------------------------------------------------
  1313 ;; (2) _lcd_init                                             8     8      0     198
  1314 ;;                                             18 BANK0      8     8      0
  1315 ;;                            _lcd_cmd
  1316 ;; ---------------------------------------------------------------------------------
  1317 ;; (5) _lcd_clear                                            0     0      0      62
  1318 ;;                            _lcd_cmd
  1319 ;; ---------------------------------------------------------------------------------
  1320 ;; (7) _lcd_write                                            3     3      0      62
  1321 ;;                                             15 BANK0      3     3      0
  1322 ;; ---------------------------------------------------------------------------------
  1323 ;; (6) _lcd_cmd                                              3     3      0      62
  1324 ;;                                             15 BANK0      3     3      0
  1325 ;; ---------------------------------------------------------------------------------
  1326 ;; (1) _isItFirstTime                                        3     3      0       0
  1327 ;;                                             15 BANK0      3     3      0
  1328 ;; ---------------------------------------------------------------------------------
  1329 ;; (7) ___awmod                                              7     3      4     433
  1330 ;;                                             15 BANK0      7     3      4
  1331 ;; ---------------------------------------------------------------------------------
  1332 ;; (7) ___awdiv                                              9     5      4     445
  1333 ;;                                             15 BANK0      9     5      4
  1334 ;; ---------------------------------------------------------------------------------
  1335 ;; (2) _initialisePortB                                      0     0      0       0
  1336 ;; ---------------------------------------------------------------------------------
  1337 ;; (1) _default_initialisations                              0     0      0       0
  1338 ;; ---------------------------------------------------------------------------------
  1339 ;; (2) _enableInterrupt_RB0                                  0     0      0       0
  1340 ;; ---------------------------------------------------------------------------------
  1341 ;; (2) _PeripheralInterrupt_DISABLE                          0     0      0       0
  1342 ;; ---------------------------------------------------------------------------------
  1343 ;; (2) _GlobalInterrupt_ENABLE                               0     0      0       0
  1344 ;; ---------------------------------------------------------------------------------
  1345 ;; Estimated maximum stack depth 7
  1346 ;; ---------------------------------------------------------------------------------
  1347 ;; (Depth) Function   	        Calls       Base Space   Used Autos Params    Refs
  1348 ;; ---------------------------------------------------------------------------------
  1349 ;; (9) _ISR                                                  7     7      0    5034
  1350 ;;                                              8 BANK0      7     7      0
  1351 ;;               _disableInterrupt_RB0
  1352 ;;                        i1_lcd_clear
  1353 ;;            i1_lcd_writeThisStringAt
  1354 ;;              _InitialiseSettingMode
  1355 ;;              i1_enableInterrupt_RB0
  1356 ;; ---------------------------------------------------------------------------------
  1357 ;; (10) _InitialiseSettingMode                               0     0      0    3937
  1358 ;;                     i1_UpdateScreen
  1359 ;; ---------------------------------------------------------------------------------
  1360 ;; (11) i1_UpdateScreen                                      4     4      0    3937
  1361 ;;                                              5 BANK0      3     3      0
  1362 ;;                        i1_lcd_clear
  1363 ;;            i1_lcd_writeThisStringAt
  1364 ;;               i1_lcd_writeThisDigit
  1365 ;; ---------------------------------------------------------------------------------
  1366 ;; (12) i1_lcd_writeThisDigit                                8     8      0    2840
  1367 ;;                                              9 COMMON     3     3      0
  1368 ;;                                              0 BANK0      5     5      0
  1369 ;;                          i1___awmod
  1370 ;;                          i1___awdiv
  1371 ;;                         i1_lcd_puts
  1372 ;; ---------------------------------------------------------------------------------
  1373 ;; (12) i1_lcd_writeThisStringAt                             4     2      2     951
  1374 ;;                                              5 COMMON     4     2      2
  1375 ;;                          i1_goto_XY
  1376 ;;                         i1_lcd_puts
  1377 ;; ---------------------------------------------------------------------------------
  1378 ;; (12) i1_lcd_clear                                         0     0      0     146
  1379 ;;                          i1_lcd_cmd
  1380 ;; ---------------------------------------------------------------------------------
  1381 ;; (13) i1_goto_XY                                           2     1      1     438
  1382 ;;                                              3 COMMON     2     1      1
  1383 ;;                          i1_lcd_cmd
  1384 ;; ---------------------------------------------------------------------------------
  1385 ;; (13) i1_lcd_puts                                          2     0      2     294
  1386 ;;                                              3 COMMON     2     0      2
  1387 ;;                        i1_lcd_write
  1388 ;; ---------------------------------------------------------------------------------
  1389 ;; (14) i1_lcd_cmd                                           3     3      0     146
  1390 ;;                                              0 COMMON     3     3      0
  1391 ;; ---------------------------------------------------------------------------------
  1392 ;; (14) i1_lcd_write                                         3     3      0     146
  1393 ;;                                              0 COMMON     3     3      0
  1394 ;; ---------------------------------------------------------------------------------
  1395 ;; (13) i1___awmod                                           7     3      4     969
  1396 ;;                                              0 COMMON     7     3      4
  1397 ;; ---------------------------------------------------------------------------------
  1398 ;; (13) i1___awdiv                                           9     5      4     977
  1399 ;;                                              0 COMMON     9     5      4
  1400 ;; ---------------------------------------------------------------------------------
  1401 ;; (10) i1_enableInterrupt_RB0                               0     0      0       0
  1402 ;; ---------------------------------------------------------------------------------
  1403 ;; (10) _disableInterrupt_RB0                                0     0      0       0
  1404 ;; ---------------------------------------------------------------------------------
  1405 ;; Estimated maximum stack depth 14
  1406 ;; ---------------------------------------------------------------------------------
  1407                           
  1408 ;; Call Graph Graphs:
  1409                           
  1410 ;; _main (ROOT)
  1411 ;;   _default_initialisations
  1412 ;;   _peripheral_initialsation
  1413 ;;     _lcd_init
  1414 ;;       _lcd_cmd
  1415 ;;     _initialisePortB
  1416 ;;     _enableInterrupt_RB0
  1417 ;;     _PeripheralInterrupt_DISABLE
  1418 ;;     _GlobalInterrupt_ENABLE
  1419 ;;   _isItFirstTime
  1420 ;;   _default_bootSequence
  1421 ;;     _lcd_writeThisStringAt
  1422 ;;       _goto_XY
  1423 ;;         _lcd_cmd
  1424 ;;       _lcd_puts
  1425 ;;         _lcd_write
  1426 ;;   _lcd_clear
  1427 ;;     _lcd_cmd
  1428 ;;   _lcd_writeThisStringAt
  1429 ;;     _goto_XY
  1430 ;;       _lcd_cmd
  1431 ;;     _lcd_puts
  1432 ;;       _lcd_write
  1433 ;;   _IsKeyPressed
  1434 ;;     _handleEvent
  1435 ;;       _lcd_clear
  1436 ;;         _lcd_cmd
  1437 ;;       _SettingModeOperations
  1438 ;;         _PreviousButtonHandler
  1439 ;;           _UpdateScreen
  1440 ;;             _lcd_clear
  1441 ;;               _lcd_cmd
  1442 ;;             _lcd_writeThisStringAt
  1443 ;;               _goto_XY
  1444 ;;                 _lcd_cmd
  1445 ;;               _lcd_puts
  1446 ;;                 _lcd_write
  1447 ;;             _lcd_writeThisDigit
  1448 ;;               ___awmod
  1449 ;;               ___awdiv
  1450 ;;               _lcd_puts
  1451 ;;                 _lcd_write
  1452 ;;         _UpbuttonHandler
  1453 ;;           _lcd_writeThisStringAt
  1454 ;;             _goto_XY
  1455 ;;               _lcd_cmd
  1456 ;;             _lcd_puts
  1457 ;;               _lcd_write
  1458 ;;           _UpdateScreen
  1459 ;;             _lcd_clear
  1460 ;;               _lcd_cmd
  1461 ;;             _lcd_writeThisStringAt
  1462 ;;               _goto_XY
  1463 ;;                 _lcd_cmd
  1464 ;;               _lcd_puts
  1465 ;;                 _lcd_write
  1466 ;;             _lcd_writeThisDigit
  1467 ;;               ___awmod
  1468 ;;               ___awdiv
  1469 ;;               _lcd_puts
  1470 ;;                 _lcd_write
  1471 ;;         _DownButtonHandler
  1472 ;;           _lcd_writeThisStringAt
  1473 ;;             _goto_XY
  1474 ;;               _lcd_cmd
  1475 ;;             _lcd_puts
  1476 ;;               _lcd_write
  1477 ;;           _UpdateScreen
  1478 ;;             _lcd_clear
  1479 ;;               _lcd_cmd
  1480 ;;             _lcd_writeThisStringAt
  1481 ;;               _goto_XY
  1482 ;;                 _lcd_cmd
  1483 ;;               _lcd_puts
  1484 ;;                 _lcd_write
  1485 ;;             _lcd_writeThisDigit
  1486 ;;               ___awmod
  1487 ;;               ___awdiv
  1488 ;;               _lcd_puts
  1489 ;;                 _lcd_write
  1490 ;;         _NextButtonHandler
  1491 ;;           _UpdateScreen
  1492 ;;             _lcd_clear
  1493 ;;               _lcd_cmd
  1494 ;;             _lcd_writeThisStringAt
  1495 ;;               _goto_XY
  1496 ;;                 _lcd_cmd
  1497 ;;               _lcd_puts
  1498 ;;                 _lcd_write
  1499 ;;             _lcd_writeThisDigit
  1500 ;;               ___awmod
  1501 ;;               ___awdiv
  1502 ;;               _lcd_puts
  1503 ;;                 _lcd_write
  1504 ;;       _NormalModeOperations
  1505 ;;         _serveCoffee
  1506 ;;           _lcd_writeThisStringAt
  1507 ;;             _goto_XY
  1508 ;;               _lcd_cmd
  1509 ;;             _lcd_puts
  1510 ;;               _lcd_write
  1511 ;;           _lcd_clear
  1512 ;;             _lcd_cmd
  1513 ;;         _serveHalfQuantity
  1514 ;;           _lcd_writeThisStringAt
  1515 ;;             _goto_XY
  1516 ;;               _lcd_cmd
  1517 ;;             _lcd_puts
  1518 ;;               _lcd_write
  1519 ;;           _lcd_clear
  1520 ;;             _lcd_cmd
  1521 ;;         _serveHotWater
  1522 ;;           _lcd_writeThisStringAt
  1523 ;;             _goto_XY
  1524 ;;               _lcd_cmd
  1525 ;;             _lcd_puts
  1526 ;;               _lcd_write
  1527 ;;           _lcd_clear
  1528 ;;             _lcd_cmd
  1529 ;;         _serveTea
  1530 ;;           _lcd_writeThisStringAt
  1531 ;;             _goto_XY
  1532 ;;               _lcd_cmd
  1533 ;;             _lcd_puts
  1534 ;;               _lcd_write
  1535 ;;           _lcd_clear
  1536 ;;             _lcd_cmd
  1537 ;;
  1538 ;; _ISR (ROOT)
  1539 ;;   _disableInterrupt_RB0
  1540 ;;   i1_lcd_clear
  1541 ;;     i1_lcd_cmd
  1542 ;;   i1_lcd_writeThisStringAt
  1543 ;;     i1_goto_XY
  1544 ;;       i1_lcd_cmd
  1545 ;;     i1_lcd_puts
  1546 ;;       i1_lcd_write
  1547 ;;   _InitialiseSettingMode
  1548 ;;     i1_UpdateScreen
  1549 ;;       i1_lcd_clear
  1550 ;;         i1_lcd_cmd
  1551 ;;       i1_lcd_writeThisStringAt
  1552 ;;         i1_goto_XY
  1553 ;;           i1_lcd_cmd
  1554 ;;         i1_lcd_puts
  1555 ;;           i1_lcd_write
  1556 ;;       i1_lcd_writeThisDigit
  1557 ;;         i1___awmod
  1558 ;;         i1___awdiv
  1559 ;;         i1_lcd_puts
  1560 ;;           i1_lcd_write
  1561 ;;   i1_enableInterrupt_RB0
  1562 ;;
  1563                           
  1564 ;; Address spaces:
  1565                           
  1566 ;;Name               Size   Autos  Total    Cost      Usage
  1567 ;;BANK3               60      0       0       9        0.0%
  1568 ;;BITBANK3            60      0       0       8        0.0%
  1569 ;;SFR3                 0      0       0       4        0.0%
  1570 ;;BITSFR3              0      0       0       4        0.0%
  1571 ;;BANK2               60      0       0      11        0.0%
  1572 ;;BITBANK2            60      0       0      10        0.0%
  1573 ;;SFR2                 0      0       0       5        0.0%
  1574 ;;BITSFR2              0      0       0       5        0.0%
  1575 ;;SFR1                 0      0       0       2        0.0%
  1576 ;;BITSFR1              0      0       0       2        0.0%
  1577 ;;BANK1               50      7       7       7        8.8%
  1578 ;;BITBANK1            50      0       0       6        0.0%
  1579 ;;CODE                 0      0       0       0        0.0%
  1580 ;;DATA                 0      0      6A      12        0.0%
  1581 ;;ABS                  0      0      56       3        0.0%
  1582 ;;NULL                 0      0       0       0        0.0%
  1583 ;;STACK                0      0      14       2        0.0%
  1584 ;;BANK0               50     26      41       5       81.3%
  1585 ;;BITBANK0            50      0       0       4        0.0%
  1586 ;;SFR0                 0      0       0       1        0.0%
  1587 ;;BITSFR0              0      0       0       1        0.0%
  1588 ;;COMMON               E      C       E       1      100.0%
  1589 ;;BITCOMMON            E      0       0       0        0.0%
  1590 ;;EEDATA             100      0       0       0        0.0%
  1591                           
  1592                           	global	_main
  1593                           psect	maintext,global,class=CODE,delta=2
  1594                           global __pmaintext
  1595  0B65                     __pmaintext:
  1596                           
  1597 ;; *************** function _main *****************
  1598 ;; Defined at:
  1599 ;;		line 29 in file "MainCode.c"
  1600 ;; Parameters:    Size  Location     Type
  1601 ;;		None
  1602 ;; Auto vars:     Size  Location     Type
  1603 ;;		None
  1604 ;; Return value:  Size  Location     Type
  1605 ;;		None               void
  1606 ;; Registers used:
  1607 ;;		wreg, fsr0l, fsr0h, status,2, status,0, btemp+0, btemp+1, pclath, cstack
  1608 ;; Tracked objects:
  1609 ;;		On entry : 17F/0
  1610 ;;		On exit  : 0/0
  1611 ;;		Unchanged: 0/0
  1612 ;; Data sizes:     COMMON   BANK0   BANK1   BANK3   BANK2
  1613 ;;      Params:         0       0       0       0       0
  1614 ;;      Locals:         0       0       0       0       0
  1615 ;;      Temps:          0       0       2       0       0
  1616 ;;      Totals:         0       0       2       0       0
  1617 ;;Total ram usage:        2 bytes
  1618 ;; Hardware stack levels required when called:   14
  1619 ;; This function calls:
  1620 ;;		_default_initialisations
  1621 ;;		_peripheral_initialsation
  1622 ;;		_isItFirstTime
  1623 ;;		_default_bootSequence
  1624 ;;		_lcd_clear
  1625 ;;		_lcd_writeThisStringAt
  1626 ;;		_IsKeyPressed
  1627 ;; This function is called by:
  1628 ;;		Startup code after reset
  1629 ;; This function uses a non-reentrant model
  1630 ;;
  1631                           psect	maintext
  1632                           	file	"MainCode.c"
  1633                           	line	29
  1634                           	global	__size_of_main
  1635  0042                     	__size_of_main	equ	__end_of_main-_main
  1636                           	
  1637  0B65                     _main:	
  1638                           	opt	stack 8
  1639                           ; Regs used in _main: [wreg-fsr0h+status,2-btemp+1+pclath+cstack]
  1640                           	line	30
  1641                           	
  1642  0B65                     l10263:	
  1643                           ;MainCode.c: 30: default_initialisations();
  1644  0B65  120A  158A  2044   	fcall	_default_initialisations
              120A  158A         
  1645                           	line	31
  1646                           	
  1647  0B6A                     l10265:	
  1648                           ;MainCode.c: 31: peripheral_initialsation();
  1649  0B6A  120A  158A  2094   	fcall	_peripheral_initialsation
              120A  158A         
  1650                           	line	32
  1651                           	
  1652  0B6F                     l10267:	
  1653                           ;MainCode.c: 32: isItFirstTime();
  1654  0B6F  120A  118A  20FF   	fcall	_isItFirstTime
              120A  158A         
  1655                           	line	33
  1656                           	
  1657  0B74                     l10269:	
  1658                           ;MainCode.c: 33: default_bootSequence();
  1659  0B74  120A  158A  20EA   	fcall	_default_bootSequence
              120A  158A         
  1660                           	line	35
  1661                           	
  1662  0B79                     l10271:	
  1663                           ;MainCode.c: 35: lcd_clear();
  1664  0B79  120A  158A  2020   	fcall	_lcd_clear
              120A  158A         
  1665                           	line	39
  1666                           ;MainCode.c: 39: while (1)
  1667                           	
  1668  0B7E                     l3027:	
  1669                           	line	41
  1670                           	
  1671  0B7E                     l10273:	
  1672                           ;MainCode.c: 40: {
  1673                           ;MainCode.c: 41: PORTB = 0x01;
  1674  0B7E  3001               	movlw	(01h)
  1675  0B7F  1283               	bcf	status, 5	;RP0=0, select bank0
  1676  0B80  1303               	bcf	status, 6	;RP1=0, select bank0
  1677  0B81  0086               	movwf	(6)	;volatile
  1678                           	line	42
  1679                           	
  1680  0B82                     l10275:	
  1681                           ;MainCode.c: 42: if (1 == modeOfWorking)
  1682  0B82  0854               	movf	(_modeOfWorking),w
  1683  0B83  3A01               	xorlw	01h
  1684  0B84  1D03               	skipz
  1685  0B85  2B87               	goto	u6331
  1686  0B86  2B88               	goto	u6330
  1687  0B87                     u6331:
  1688  0B87  2B9E               	goto	l3028
  1689  0B88                     u6330:
  1690                           	line	44
  1691                           	
  1692  0B88                     l10277:	
  1693                           ;MainCode.c: 43: {
  1694                           ;MainCode.c: 44: lcd_writeThisStringAt(0, 4, "WELCOME");
  1695  0B88  3004               	movlw	(04h)
  1696  0B89  1683               	bsf	status, 5	;RP0=1, select bank1
  1697  0B8A  1303               	bcf	status, 6	;RP1=0, select bank1
  1698  0B8B  00A5               	movwf	(??_main+0)^080h+0
  1699  0B8C  0825               	movf	(??_main+0)^080h+0,w
  1700  0B8D  1283               	bcf	status, 5	;RP0=0, select bank0
  1701  0B8E  1303               	bcf	status, 6	;RP1=0, select bank0
  1702  0B8F  00B4               	movwf	(?_lcd_writeThisStringAt)
  1703  0B90  30C3               	movlw	((STR_4-__stringbase))&0ffh
  1704  0B91  1683               	bsf	status, 5	;RP0=1, select bank1
  1705  0B92  1303               	bcf	status, 6	;RP1=0, select bank1
  1706  0B93  00A6               	movwf	(??_main+1)^080h+0
  1707  0B94  0826               	movf	(??_main+1)^080h+0,w
  1708  0B95  1283               	bcf	status, 5	;RP0=0, select bank0
  1709  0B96  1303               	bcf	status, 6	;RP1=0, select bank0
  1710  0B97  00B5               	movwf	(0+?_lcd_writeThisStringAt+01h)
  1711  0B98  3000               	movlw	(0)
  1712  0B99  120A  158A  207B   	fcall	_lcd_writeThisStringAt
              120A  158A         
  1713                           	line	45
  1714                           	
  1715  0B9E                     l3028:	
  1716                           	line	46
  1717                           ;MainCode.c: 45: }
  1718                           ;MainCode.c: 46: IsKeyPressed();
  1719  0B9E  120A  118A  261D   	fcall	_IsKeyPressed
              120A  158A         
  1720                           	line	53
  1721                           	
  1722  0BA3                     l3029:	
  1723                           	line	39
  1724  0BA3  2B7E               	goto	l3027
  1725                           	
  1726  0BA4                     l3030:	
  1727                           	line	54
  1728                           	
  1729  0BA4                     l3031:	
  1730                           	global	start
  1731  0BA4  120A  118A  2812   	ljmp	start
  1732                           	opt stack 0
  1733                           GLOBAL	__end_of_main
  1734  0BA7                     	__end_of_main:
  1735 ;; =============== function _main ends ============
  1736                           
  1737                           	signat	_main,88
  1738                           	global	_IsKeyPressed
  1739                           psect	text1460,local,class=CODE,delta=2
  1740                           global __ptext1460
  1741  061D                     __ptext1460:
  1742                           
  1743 ;; *************** function _IsKeyPressed *****************
  1744 ;; Defined at:
  1745 ;;		line 11 in file "EventHandler.c"
  1746 ;; Parameters:    Size  Location     Type
  1747 ;;		None
  1748 ;; Auto vars:     Size  Location     Type
  1749 ;;		None
  1750 ;; Return value:  Size  Location     Type
  1751 ;;		None               void
  1752 ;; Registers used:
  1753 ;;		wreg, fsr0l, fsr0h, status,2, status,0, btemp+0, btemp+1, pclath, cstack
  1754 ;; Tracked objects:
  1755 ;;		On entry : 0/0
  1756 ;;		On exit  : 0/0
  1757 ;;		Unchanged: 0/0
  1758 ;; Data sizes:     COMMON   BANK0   BANK1   BANK3   BANK2
  1759 ;;      Params:         0       0       0       0       0
  1760 ;;      Locals:         0       0       0       0       0
  1761 ;;      Temps:          0       0       3       0       0
  1762 ;;      Totals:         0       0       3       0       0
  1763 ;;Total ram usage:        3 bytes
  1764 ;; Hardware stack levels used:    1
  1765 ;; Hardware stack levels required when called:   13
  1766 ;; This function calls:
  1767 ;;		_handleEvent
  1768 ;; This function is called by:
  1769 ;;		_main
  1770 ;; This function uses a non-reentrant model
  1771 ;;
  1772                           psect	text1460
  1773                           	file	"EventHandler.c"
  1774                           	line	11
  1775                           	global	__size_of_IsKeyPressed
  1776  00DF                     	__size_of_IsKeyPressed	equ	__end_of_IsKeyPressed-_IsKeyPressed
  1777                           	
  1778  061D                     _IsKeyPressed:	
  1779                           	opt	stack 7
  1780                           ; Regs used in _IsKeyPressed: [wreg-fsr0h+status,2-btemp+1+pclath+cstack]
  1781                           	line	12
  1782                           	
  1783  061D                     l10209:	
  1784                           ;EventHandler.c: 12: keyPressed = 0;
  1785  061D  1003               	clrc
  1786  061E  3000               	movlw	0
  1787  061F  1803               	btfsc	status,0
  1788  0620  3001               	movlw	1
  1789  0621  1283               	bcf	status, 5	;RP0=0, select bank0
  1790  0622  1303               	bcf	status, 6	;RP1=0, select bank0
  1791  0623  00DE               	movwf	(_keyPressed)
  1792                           	line	13
  1793                           	
  1794  0624                     l10211:	
  1795                           ;EventHandler.c: 13: PORTA = 0x00;
  1796  0624  0185               	clrf	(5)	;volatile
  1797                           	line	15
  1798                           	
  1799  0625                     l10213:	
  1800                           ;EventHandler.c: 15: isKeyPressed = 0;
  1801  0625  1003               	clrc
  1802  0626  3000               	movlw	0
  1803  0627  1803               	btfsc	status,0
  1804  0628  3001               	movlw	1
  1805  0629  00DD               	movwf	(_isKeyPressed)
  1806                           	line	17
  1807                           ;EventHandler.c: 17: while (isKeyPressed == 0 && keyPressed == 0)
  1808  062A  2EC6               	goto	l2377
  1809                           	
  1810  062B                     l2378:	
  1811                           	line	54
  1812                           	
  1813  062B                     l10215:	
  1814                           ;EventHandler.c: 18: {
  1815                           ;EventHandler.c: 54: if (0b00000010 == PORTA) {
  1816  062B  0805               	movf	(5),w	;volatile
  1817  062C  3A02               	xorlw	02h
  1818  062D  1D03               	skipz
  1819  062E  2E30               	goto	u6201
  1820  062F  2E31               	goto	u6200
  1821  0630                     u6201:
  1822  0630  2E4E               	goto	l2379
  1823  0631                     u6200:
  1824                           	line	55
  1825                           	
  1826  0631                     l10217:	
  1827                           ;EventHandler.c: 55: _delay((unsigned long)((500)*(20000000/4000.0)));
  1828                           	opt asmopt_off
  1829  0631  300D               movlw  13
  1830  0632  1683               	bsf	status, 5	;RP0=1, select bank1
  1831  0633  1303               	bcf	status, 6	;RP1=0, select bank1
  1832  0634  00A4               movwf	((??_IsKeyPressed+0)^080h+0+2),f
  1833  0635  30A3               movlw	163
  1834  0636  00A3               movwf	((??_IsKeyPressed+0)^080h+0+1),f
  1835  0637  30BD               	movlw	189
  1836  0638  00A2               movwf	((??_IsKeyPressed+0)^080h+0),f
  1837  0639                     u6347:
  1838  0639  0BA2               	decfsz	((??_IsKeyPressed+0)^080h+0),f
  1839  063A  2E39               	goto	u6347
  1840  063B  0BA3               	decfsz	((??_IsKeyPressed+0)^080h+0+1),f
  1841  063C  2E39               	goto	u6347
  1842  063D  0BA4               	decfsz	((??_IsKeyPressed+0)^080h+0+2),f
  1843  063E  2E39               	goto	u6347
  1844  063F  0064               	clrwdt
  1845                           opt asmopt_on
  1846                           
  1847                           	line	56
  1848                           ;EventHandler.c: 56: if (0b00000010 == PORTA) {
  1849  0640  1283               	bcf	status, 5	;RP0=0, select bank0
  1850  0641  1303               	bcf	status, 6	;RP1=0, select bank0
  1851  0642  0805               	movf	(5),w	;volatile
  1852  0643  3A02               	xorlw	02h
  1853  0644  1D03               	skipz
  1854  0645  2E47               	goto	u6211
  1855  0646  2E48               	goto	u6210
  1856  0647                     u6211:
  1857  0647  2E4E               	goto	l2380
  1858  0648                     u6210:
  1859                           	line	57
  1860                           	
  1861  0648                     l10219:	
  1862                           ;EventHandler.c: 57: isKeyPressed = 1;
  1863  0648  01DD               	clrf	(_isKeyPressed)
  1864  0649  1403               	bsf	status,0
  1865  064A  0DDD               	rlf	(_isKeyPressed),f
  1866                           	line	58
  1867                           ;EventHandler.c: 58: keyPressed = 1;
  1868  064B  01DE               	clrf	(_keyPressed)
  1869  064C  1403               	bsf	status,0
  1870  064D  0DDE               	rlf	(_keyPressed),f
  1871                           	line	59
  1872                           	
  1873  064E                     l2380:	
  1874                           	line	60
  1875                           	
  1876  064E                     l2379:	
  1877                           	line	61
  1878                           	
  1879  064E                     l10221:	
  1880                           ;EventHandler.c: 59: }
  1881                           ;EventHandler.c: 60: }
  1882                           ;EventHandler.c: 61: if (0b00000100 == PORTA) {
  1883  064E  0805               	movf	(5),w	;volatile
  1884  064F  3A04               	xorlw	04h
  1885  0650  1D03               	skipz
  1886  0651  2E53               	goto	u6221
  1887  0652  2E54               	goto	u6220
  1888  0653                     u6221:
  1889  0653  2E76               	goto	l2381
  1890  0654                     u6220:
  1891                           	line	62
  1892                           	
  1893  0654                     l10223:	
  1894                           ;EventHandler.c: 62: _delay((unsigned long)((500)*(20000000/4000.0)));
  1895                           	opt asmopt_off
  1896  0654  300D               movlw  13
  1897  0655  1683               	bsf	status, 5	;RP0=1, select bank1
  1898  0656  1303               	bcf	status, 6	;RP1=0, select bank1
  1899  0657  00A4               movwf	((??_IsKeyPressed+0)^080h+0+2),f
  1900  0658  30A3               movlw	163
  1901  0659  00A3               movwf	((??_IsKeyPressed+0)^080h+0+1),f
  1902  065A  30BD               	movlw	189
  1903  065B  00A2               movwf	((??_IsKeyPressed+0)^080h+0),f
  1904  065C                     u6357:
  1905  065C  0BA2               	decfsz	((??_IsKeyPressed+0)^080h+0),f
  1906  065D  2E5C               	goto	u6357
  1907  065E  0BA3               	decfsz	((??_IsKeyPressed+0)^080h+0+1),f
  1908  065F  2E5C               	goto	u6357
  1909  0660  0BA4               	decfsz	((??_IsKeyPressed+0)^080h+0+2),f
  1910  0661  2E5C               	goto	u6357
  1911  0662  0064               	clrwdt
  1912                           opt asmopt_on
  1913                           
  1914                           	line	63
  1915                           ;EventHandler.c: 63: if (0b00000100 == PORTA) {
  1916  0663  1283               	bcf	status, 5	;RP0=0, select bank0
  1917  0664  1303               	bcf	status, 6	;RP1=0, select bank0
  1918  0665  0805               	movf	(5),w	;volatile
  1919  0666  3A04               	xorlw	04h
  1920  0667  1D03               	skipz
  1921  0668  2E6A               	goto	u6231
  1922  0669  2E6B               	goto	u6230
  1923  066A                     u6231:
  1924  066A  2E76               	goto	l2382
  1925  066B                     u6230:
  1926                           	line	64
  1927                           	
  1928  066B                     l10225:	
  1929                           ;EventHandler.c: 64: isKeyPressed = 1;
  1930  066B  01DD               	clrf	(_isKeyPressed)
  1931  066C  1403               	bsf	status,0
  1932  066D  0DDD               	rlf	(_isKeyPressed),f
  1933                           	line	65
  1934                           	
  1935  066E                     l10227:	
  1936                           ;EventHandler.c: 65: keyPressed = 2;
  1937  066E  3002               	movlw	(02h)
  1938  066F  1683               	bsf	status, 5	;RP0=1, select bank1
  1939  0670  1303               	bcf	status, 6	;RP1=0, select bank1
  1940  0671  00A2               	movwf	(??_IsKeyPressed+0)^080h+0
  1941  0672  0822               	movf	(??_IsKeyPressed+0)^080h+0,w
  1942  0673  1283               	bcf	status, 5	;RP0=0, select bank0
  1943  0674  1303               	bcf	status, 6	;RP1=0, select bank0
  1944  0675  00DE               	movwf	(_keyPressed)
  1945                           	line	66
  1946                           	
  1947  0676                     l2382:	
  1948                           	line	68
  1949                           	
  1950  0676                     l2381:	
  1951                           	line	69
  1952                           	
  1953  0676                     l10229:	
  1954                           ;EventHandler.c: 66: }
  1955                           ;EventHandler.c: 68: }
  1956                           ;EventHandler.c: 69: if (0b00001000 == PORTA) {
  1957  0676  0805               	movf	(5),w	;volatile
  1958  0677  3A08               	xorlw	08h
  1959  0678  1D03               	skipz
  1960  0679  2E7B               	goto	u6241
  1961  067A  2E7C               	goto	u6240
  1962  067B                     u6241:
  1963  067B  2E9E               	goto	l2383
  1964  067C                     u6240:
  1965                           	line	70
  1966                           	
  1967  067C                     l10231:	
  1968                           ;EventHandler.c: 70: _delay((unsigned long)((500)*(20000000/4000.0)));
  1969                           	opt asmopt_off
  1970  067C  300D               movlw  13
  1971  067D  1683               	bsf	status, 5	;RP0=1, select bank1
  1972  067E  1303               	bcf	status, 6	;RP1=0, select bank1
  1973  067F  00A4               movwf	((??_IsKeyPressed+0)^080h+0+2),f
  1974  0680  30A3               movlw	163
  1975  0681  00A3               movwf	((??_IsKeyPressed+0)^080h+0+1),f
  1976  0682  30BD               	movlw	189
  1977  0683  00A2               movwf	((??_IsKeyPressed+0)^080h+0),f
  1978  0684                     u6367:
  1979  0684  0BA2               	decfsz	((??_IsKeyPressed+0)^080h+0),f
  1980  0685  2E84               	goto	u6367
  1981  0686  0BA3               	decfsz	((??_IsKeyPressed+0)^080h+0+1),f
  1982  0687  2E84               	goto	u6367
  1983  0688  0BA4               	decfsz	((??_IsKeyPressed+0)^080h+0+2),f
  1984  0689  2E84               	goto	u6367
  1985  068A  0064               	clrwdt
  1986                           opt asmopt_on
  1987                           
  1988                           	line	71
  1989                           ;EventHandler.c: 71: if (0b00001000 == PORTA) {
  1990  068B  1283               	bcf	status, 5	;RP0=0, select bank0
  1991  068C  1303               	bcf	status, 6	;RP1=0, select bank0
  1992  068D  0805               	movf	(5),w	;volatile
  1993  068E  3A08               	xorlw	08h
  1994  068F  1D03               	skipz
  1995  0690  2E92               	goto	u6251
  1996  0691  2E93               	goto	u6250
  1997  0692                     u6251:
  1998  0692  2E9E               	goto	l2384
  1999  0693                     u6250:
  2000                           	line	72
  2001                           	
  2002  0693                     l10233:	
  2003                           ;EventHandler.c: 72: isKeyPressed = 1;
  2004  0693  01DD               	clrf	(_isKeyPressed)
  2005  0694  1403               	bsf	status,0
  2006  0695  0DDD               	rlf	(_isKeyPressed),f
  2007                           	line	73
  2008                           	
  2009  0696                     l10235:	
  2010                           ;EventHandler.c: 73: keyPressed = 3;
  2011  0696  3003               	movlw	(03h)
  2012  0697  1683               	bsf	status, 5	;RP0=1, select bank1
  2013  0698  1303               	bcf	status, 6	;RP1=0, select bank1
  2014  0699  00A2               	movwf	(??_IsKeyPressed+0)^080h+0
  2015  069A  0822               	movf	(??_IsKeyPressed+0)^080h+0,w
  2016  069B  1283               	bcf	status, 5	;RP0=0, select bank0
  2017  069C  1303               	bcf	status, 6	;RP1=0, select bank0
  2018  069D  00DE               	movwf	(_keyPressed)
  2019                           	line	74
  2020                           	
  2021  069E                     l2384:	
  2022                           	line	76
  2023                           	
  2024  069E                     l2383:	
  2025                           	line	77
  2026                           	
  2027  069E                     l10237:	
  2028                           ;EventHandler.c: 74: }
  2029                           ;EventHandler.c: 76: }
  2030                           ;EventHandler.c: 77: if (0b00010000 == PORTA) {
  2031  069E  0805               	movf	(5),w	;volatile
  2032  069F  3A10               	xorlw	010h
  2033  06A0  1D03               	skipz
  2034  06A1  2EA3               	goto	u6261
  2035  06A2  2EA4               	goto	u6260
  2036  06A3                     u6261:
  2037  06A3  2EC6               	goto	l2385
  2038  06A4                     u6260:
  2039                           	line	78
  2040                           	
  2041  06A4                     l10239:	
  2042                           ;EventHandler.c: 78: _delay((unsigned long)((500)*(20000000/4000.0)));
  2043                           	opt asmopt_off
  2044  06A4  300D               movlw  13
  2045  06A5  1683               	bsf	status, 5	;RP0=1, select bank1
  2046  06A6  1303               	bcf	status, 6	;RP1=0, select bank1
  2047  06A7  00A4               movwf	((??_IsKeyPressed+0)^080h+0+2),f
  2048  06A8  30A3               movlw	163
  2049  06A9  00A3               movwf	((??_IsKeyPressed+0)^080h+0+1),f
  2050  06AA  30BD               	movlw	189
  2051  06AB  00A2               movwf	((??_IsKeyPressed+0)^080h+0),f
  2052  06AC                     u6377:
  2053  06AC  0BA2               	decfsz	((??_IsKeyPressed+0)^080h+0),f
  2054  06AD  2EAC               	goto	u6377
  2055  06AE  0BA3               	decfsz	((??_IsKeyPressed+0)^080h+0+1),f
  2056  06AF  2EAC               	goto	u6377
  2057  06B0  0BA4               	decfsz	((??_IsKeyPressed+0)^080h+0+2),f
  2058  06B1  2EAC               	goto	u6377
  2059  06B2  0064               	clrwdt
  2060                           opt asmopt_on
  2061                           
  2062                           	line	79
  2063                           ;EventHandler.c: 79: if (0b00010000 == PORTA) {
  2064  06B3  1283               	bcf	status, 5	;RP0=0, select bank0
  2065  06B4  1303               	bcf	status, 6	;RP1=0, select bank0
  2066  06B5  0805               	movf	(5),w	;volatile
  2067  06B6  3A10               	xorlw	010h
  2068  06B7  1D03               	skipz
  2069  06B8  2EBA               	goto	u6271
  2070  06B9  2EBB               	goto	u6270
  2071  06BA                     u6271:
  2072  06BA  2EC6               	goto	l2386
  2073  06BB                     u6270:
  2074                           	line	80
  2075                           	
  2076  06BB                     l10241:	
  2077                           ;EventHandler.c: 80: isKeyPressed = 1;
  2078  06BB  01DD               	clrf	(_isKeyPressed)
  2079  06BC  1403               	bsf	status,0
  2080  06BD  0DDD               	rlf	(_isKeyPressed),f
  2081                           	line	81
  2082                           	
  2083  06BE                     l10243:	
  2084                           ;EventHandler.c: 81: keyPressed = 4;
  2085  06BE  3004               	movlw	(04h)
  2086  06BF  1683               	bsf	status, 5	;RP0=1, select bank1
  2087  06C0  1303               	bcf	status, 6	;RP1=0, select bank1
  2088  06C1  00A2               	movwf	(??_IsKeyPressed+0)^080h+0
  2089  06C2  0822               	movf	(??_IsKeyPressed+0)^080h+0,w
  2090  06C3  1283               	bcf	status, 5	;RP0=0, select bank0
  2091  06C4  1303               	bcf	status, 6	;RP1=0, select bank0
  2092  06C5  00DE               	movwf	(_keyPressed)
  2093                           	line	82
  2094                           	
  2095  06C6                     l2386:	
  2096                           	line	83
  2097                           	
  2098  06C6                     l2385:	
  2099                           	line	85
  2100                           	
  2101  06C6                     l2377:	
  2102                           	line	17
  2103                           	
  2104  06C6                     l10245:	
  2105  06C6  08DD               	movf	(_isKeyPressed),f
  2106  06C7  1D03               	skipz
  2107  06C8  2ECA               	goto	u6281
  2108  06C9  2ECB               	goto	u6280
  2109  06CA                     u6281:
  2110  06CA  2ECF               	goto	l2388
  2111  06CB                     u6280:
  2112                           	
  2113  06CB                     l10247:	
  2114  06CB  085E               	movf	(_keyPressed),w
  2115  06CC  1D03               	skipz
  2116  06CD  2ECF               	goto	u6290
  2117  06CE  2E2B               	goto	l2378
  2118  06CF                     u6290:
  2119                           	
  2120  06CF                     l2388:	
  2121                           	
  2122  06CF                     l2389:	
  2123                           	line	87
  2124                           	
  2125  06CF                     l10249:	
  2126                           ;EventHandler.c: 82: }
  2127                           ;EventHandler.c: 83: }
  2128                           ;EventHandler.c: 85: }
  2129                           ;EventHandler.c: 87: if (isKeyPressed == 1)
  2130  06CF  085D               	movf	(_isKeyPressed),w
  2131  06D0  3A01               	xorlw	01h
  2132  06D1  1D03               	skipz
  2133  06D2  2ED4               	goto	u6301
  2134  06D3  2ED5               	goto	u6300
  2135  06D4                     u6301:
  2136  06D4  2EEF               	goto	l2390
  2137  06D5                     u6300:
  2138                           	line	89
  2139                           	
  2140  06D5                     l10251:	
  2141                           ;EventHandler.c: 88: {
  2142                           ;EventHandler.c: 89: if (0 == modeOfWorking) {
  2143  06D5  08D4               	movf	(_modeOfWorking),f
  2144  06D6  1D03               	skipz
  2145  06D7  2ED9               	goto	u6311
  2146  06D8  2EDA               	goto	u6310
  2147  06D9                     u6311:
  2148  06D9  2EE1               	goto	l2391
  2149  06DA                     u6310:
  2150                           	line	90
  2151                           	
  2152  06DA                     l10253:	
  2153                           ;EventHandler.c: 90: handleEvent(keyPressed);
  2154  06DA  085E               	movf	(_keyPressed),w
  2155  06DB  120A  158A  2156   	fcall	_handleEvent
              120A  118A         
  2156                           	line	91
  2157                           ;EventHandler.c: 91: } else if (1 == modeOfWorking) {
  2158  06E0  2EEF               	goto	l2392
  2159                           	
  2160  06E1                     l2391:	
  2161                           	
  2162  06E1                     l10255:	
  2163  06E1  1283               	bcf	status, 5	;RP0=0, select bank0
  2164  06E2  1303               	bcf	status, 6	;RP1=0, select bank0
  2165  06E3  0854               	movf	(_modeOfWorking),w
  2166  06E4  3A01               	xorlw	01h
  2167  06E5  1D03               	skipz
  2168  06E6  2EE8               	goto	u6321
  2169  06E7  2EE9               	goto	u6320
  2170  06E8                     u6321:
  2171  06E8  2EEF               	goto	l2393
  2172  06E9                     u6320:
  2173                           	line	92
  2174                           	
  2175  06E9                     l10257:	
  2176                           ;EventHandler.c: 92: handleEvent(keyPressed);
  2177  06E9  085E               	movf	(_keyPressed),w
  2178  06EA  120A  158A  2156   	fcall	_handleEvent
              120A  118A         
  2179                           	line	93
  2180                           	
  2181  06EF                     l2393:	
  2182                           	line	94
  2183                           	
  2184  06EF                     l2392:	
  2185                           	
  2186  06EF                     l2390:	
  2187                           	line	96
  2188                           	
  2189  06EF                     l10259:	
  2190                           ;EventHandler.c: 93: }
  2191                           ;EventHandler.c: 94: }
  2192                           ;EventHandler.c: 96: isKeyPressed = 0;
  2193  06EF  1003               	clrc
  2194  06F0  3000               	movlw	0
  2195  06F1  1803               	btfsc	status,0
  2196  06F2  3001               	movlw	1
  2197  06F3  1283               	bcf	status, 5	;RP0=0, select bank0
  2198  06F4  1303               	bcf	status, 6	;RP1=0, select bank0
  2199  06F5  00DD               	movwf	(_isKeyPressed)
  2200                           	line	97
  2201                           	
  2202  06F6                     l10261:	
  2203                           ;EventHandler.c: 97: keyPressed = 0;
  2204  06F6  1003               	clrc
  2205  06F7  3000               	movlw	0
  2206  06F8  1803               	btfsc	status,0
  2207  06F9  3001               	movlw	1
  2208  06FA  00DE               	movwf	(_keyPressed)
  2209                           	line	98
  2210                           	
  2211  06FB                     l2394:	
  2212  06FB  0008               	return
  2213                           	opt stack 0
  2214                           GLOBAL	__end_of_IsKeyPressed
  2215  06FC                     	__end_of_IsKeyPressed:
  2216 ;; =============== function _IsKeyPressed ends ============
  2217                           
  2218                           	signat	_IsKeyPressed,88
  2219                           	global	_handleEvent
  2220                           psect	text1461,local,class=CODE,delta=2
  2221                           global __ptext1461
  2222  0956                     __ptext1461:
  2223                           
  2224 ;; *************** function _handleEvent *****************
  2225 ;; Defined at:
  2226 ;;		line 100 in file "EventHandler.c"
  2227 ;; Parameters:    Size  Location     Type
  2228 ;;  keyPressed      1    wreg     unsigned char 
  2229 ;; Auto vars:     Size  Location     Type
  2230 ;;  keyPressed      1    1[BANK1 ] unsigned char 
  2231 ;; Return value:  Size  Location     Type
  2232 ;;		None               void
  2233 ;; Registers used:
  2234 ;;		wreg, fsr0l, fsr0h, status,2, status,0, btemp+0, btemp+1, pclath, cstack
  2235 ;; Tracked objects:
  2236 ;;		On entry : 0/0
  2237 ;;		On exit  : 0/0
  2238 ;;		Unchanged: 0/0
  2239 ;; Data sizes:     COMMON   BANK0   BANK1   BANK3   BANK2
  2240 ;;      Params:         0       0       0       0       0
  2241 ;;      Locals:         0       0       1       0       0
  2242 ;;      Temps:          0       0       0       0       0
  2243 ;;      Totals:         0       0       1       0       0
  2244 ;;Total ram usage:        1 bytes
  2245 ;; Hardware stack levels used:    1
  2246 ;; Hardware stack levels required when called:   12
  2247 ;; This function calls:
  2248 ;;		_lcd_clear
  2249 ;;		_SettingModeOperations
  2250 ;;		_NormalModeOperations
  2251 ;; This function is called by:
  2252 ;;		_IsKeyPressed
  2253 ;; This function uses a non-reentrant model
  2254 ;;
  2255                           psect	text1461
  2256                           	file	"EventHandler.c"
  2257                           	line	100
  2258                           	global	__size_of_handleEvent
  2259  0029                     	__size_of_handleEvent	equ	__end_of_handleEvent-_handleEvent
  2260                           	
  2261  0956                     _handleEvent:	
  2262                           	opt	stack 6
  2263                           ; Regs used in _handleEvent: [wreg-fsr0h+status,2-btemp+1+pclath+cstack]
  2264                           ;handleEvent@keyPressed stored from wreg
  2265                           	line	102
  2266  0956  1683               	bsf	status, 5	;RP0=1, select bank1
  2267  0957  1303               	bcf	status, 6	;RP1=0, select bank1
  2268  0958  00A1               	movwf	(handleEvent@keyPressed)^080h
  2269                           	
  2270  0959                     l10199:	
  2271                           ;EventHandler.c: 102: lcd_clear();
  2272  0959  120A  158A  2020   	fcall	_lcd_clear
              120A  158A         
  2273                           	line	103
  2274                           	
  2275  095E                     l10201:	
  2276                           ;EventHandler.c: 103: if (0 == modeOfWorking) {
  2277  095E  1283               	bcf	status, 5	;RP0=0, select bank0
  2278  095F  1303               	bcf	status, 6	;RP1=0, select bank0
  2279  0960  08D4               	movf	(_modeOfWorking),f
  2280  0961  1D03               	skipz
  2281  0962  2964               	goto	u6181
  2282  0963  2965               	goto	u6180
  2283  0964                     u6181:
  2284  0964  296E               	goto	l2397
  2285  0965                     u6180:
  2286                           	line	105
  2287                           	
  2288  0965                     l10203:	
  2289                           ;EventHandler.c: 105: SettingModeOperations(keyPressed);
  2290  0965  1683               	bsf	status, 5	;RP0=1, select bank1
  2291  0966  1303               	bcf	status, 6	;RP1=0, select bank1
  2292  0967  0821               	movf	(handleEvent@keyPressed)^080h,w
  2293  0968  120A  158A  2290   	fcall	_SettingModeOperations
              120A  158A         
  2294                           	line	106
  2295                           ;EventHandler.c: 106: } else if (1 == modeOfWorking) {
  2296  096D  297E               	goto	l2398
  2297                           	
  2298  096E                     l2397:	
  2299                           	
  2300  096E                     l10205:	
  2301  096E  1283               	bcf	status, 5	;RP0=0, select bank0
  2302  096F  1303               	bcf	status, 6	;RP1=0, select bank0
  2303  0970  0854               	movf	(_modeOfWorking),w
  2304  0971  3A01               	xorlw	01h
  2305  0972  1D03               	skipz
  2306  0973  2975               	goto	u6191
  2307  0974  2976               	goto	u6190
  2308  0975                     u6191:
  2309  0975  297E               	goto	l2399
  2310  0976                     u6190:
  2311                           	line	108
  2312                           	
  2313  0976                     l10207:	
  2314                           ;EventHandler.c: 108: NormalModeOperations(keyPressed);
  2315  0976  1683               	bsf	status, 5	;RP0=1, select bank1
  2316  0977  1303               	bcf	status, 6	;RP1=0, select bank1
  2317  0978  0821               	movf	(handleEvent@keyPressed)^080h,w
  2318  0979  120A  158A  2261   	fcall	_NormalModeOperations
              120A  158A         
  2319                           	line	109
  2320                           	
  2321  097E                     l2399:	
  2322                           	line	111
  2323                           	
  2324  097E                     l2398:	
  2325                           	
  2326  097E                     l2400:	
  2327  097E  0008               	return
  2328                           	opt stack 0
  2329                           GLOBAL	__end_of_handleEvent
  2330  097F                     	__end_of_handleEvent:
  2331 ;; =============== function _handleEvent ends ============
  2332                           
  2333                           	signat	_handleEvent,4216
  2334                           	global	_SettingModeOperations
  2335                           psect	text1462,local,class=CODE,delta=2
  2336                           global __ptext1462
  2337  0A90                     __ptext1462:
  2338                           
  2339 ;; *************** function _SettingModeOperations *****************
  2340 ;; Defined at:
  2341 ;;		line 113 in file "EventHandler.c"
  2342 ;; Parameters:    Size  Location     Type
  2343 ;;  keyPressed      1    wreg     unsigned char 
  2344 ;; Auto vars:     Size  Location     Type
  2345 ;;  keyPressed      1    0[BANK1 ] unsigned char 
  2346 ;; Return value:  Size  Location     Type
  2347 ;;		None               void
  2348 ;; Registers used:
  2349 ;;		wreg, fsr0l, fsr0h, status,2, status,0, btemp+0, btemp+1, pclath, cstack
  2350 ;; Tracked objects:
  2351 ;;		On entry : 0/0
  2352 ;;		On exit  : 0/0
  2353 ;;		Unchanged: 0/0
  2354 ;; Data sizes:     COMMON   BANK0   BANK1   BANK3   BANK2
  2355 ;;      Params:         0       0       0       0       0
  2356 ;;      Locals:         0       0       1       0       0
  2357 ;;      Temps:          0       0       0       0       0
  2358 ;;      Totals:         0       0       1       0       0
  2359 ;;Total ram usage:        1 bytes
  2360 ;; Hardware stack levels used:    1
  2361 ;; Hardware stack levels required when called:   11
  2362 ;; This function calls:
  2363 ;;		_PreviousButtonHandler
  2364 ;;		_UpbuttonHandler
  2365 ;;		_DownButtonHandler
  2366 ;;		_NextButtonHandler
  2367 ;; This function is called by:
  2368 ;;		_handleEvent
  2369 ;; This function uses a non-reentrant model
  2370 ;;
  2371                           psect	text1462
  2372                           	file	"EventHandler.c"
  2373                           	line	113
  2374                           	global	__size_of_SettingModeOperations
  2375  002F                     	__size_of_SettingModeOperations	equ	__end_of_SettingModeOperations-_SettingModeOperatio
                                 ns
  2376                           	
  2377  0A90                     _SettingModeOperations:	
  2378                           	opt	stack 5
  2379                           ; Regs used in _SettingModeOperations: [wreg-fsr0h+status,2-btemp+1+pclath+cstack]
  2380                           ;SettingModeOperations@keyPressed stored from wreg
  2381  0A90  1683               	bsf	status, 5	;RP0=1, select bank1
  2382  0A91  1303               	bcf	status, 6	;RP1=0, select bank1
  2383  0A92  00A0               	movwf	(SettingModeOperations@keyPressed)^080h
  2384                           	line	114
  2385                           	
  2386  0A93                     l10185:	
  2387                           ;EventHandler.c: 114: switch (keyPressed) {
  2388  0A93  2AAE               	goto	l2403
  2389                           	line	115
  2390                           ;EventHandler.c: 115: case 1:
  2391                           	
  2392  0A94                     l2404:	
  2393                           	line	117
  2394                           	
  2395  0A94                     l10187:	
  2396                           ;EventHandler.c: 117: PreviousButtonHandler();
  2397  0A94  120A  118A  27B4   	fcall	_PreviousButtonHandler
              120A  158A         
  2398                           	line	118
  2399                           ;EventHandler.c: 118: break;
  2400  0A99  2ABE               	goto	l2405
  2401                           	line	120
  2402                           ;EventHandler.c: 120: case 2:
  2403                           	
  2404  0A9A                     l2406:	
  2405                           	line	122
  2406                           	
  2407  0A9A                     l10189:	
  2408                           ;EventHandler.c: 122: UpbuttonHandler();
  2409  0A9A  120A  118A  26FC   	fcall	_UpbuttonHandler
              120A  158A         
  2410                           	line	123
  2411                           ;EventHandler.c: 123: break;
  2412  0A9F  2ABE               	goto	l2405
  2413                           	line	125
  2414                           ;EventHandler.c: 125: case 3:
  2415                           	
  2416  0AA0                     l2407:	
  2417                           	line	127
  2418                           	
  2419  0AA0                     l10191:	
  2420                           ;EventHandler.c: 127: DownButtonHandler();
  2421  0AA0  120A  158A  275E   	fcall	_DownButtonHandler
              120A  158A         
  2422                           	line	128
  2423                           ;EventHandler.c: 128: break;
  2424  0AA5  2ABE               	goto	l2405
  2425                           	line	130
  2426                           ;EventHandler.c: 130: case 4:
  2427                           	
  2428  0AA6                     l2408:	
  2429                           	line	132
  2430                           	
  2431  0AA6                     l10193:	
  2432                           ;EventHandler.c: 132: NextButtonHandler();
  2433  0AA6  120A  158A  23A7   	fcall	_NextButtonHandler
              120A  158A         
  2434                           	line	133
  2435                           ;EventHandler.c: 133: break;
  2436  0AAB  2ABE               	goto	l2405
  2437                           	line	135
  2438                           ;EventHandler.c: 135: default:
  2439                           	
  2440  0AAC                     l2409:	
  2441                           	line	137
  2442                           ;EventHandler.c: 137: break;
  2443  0AAC  2ABE               	goto	l2405
  2444                           	line	138
  2445                           	
  2446  0AAD                     l10195:	
  2447                           ;EventHandler.c: 138: }
  2448  0AAD  2ABE               	goto	l2405
  2449                           	line	114
  2450                           	
  2451  0AAE                     l2403:	
  2452                           	
  2453  0AAE                     l10197:	
  2454  0AAE  1683               	bsf	status, 5	;RP0=1, select bank1
  2455  0AAF  1303               	bcf	status, 6	;RP1=0, select bank1
  2456  0AB0  0820               	movf	(SettingModeOperations@keyPressed)^080h,w
  2457                           	; Switch size 1, requested type "space"
  2458                           ; Number of cases is 4, Range of values is 1 to 4
  2459                           ; switch strategies available:
  2460                           ; Name         Bytes Cycles
  2461                           ; simple_byte    13     7 (average)
  2462                           ; direct_byte    34    22 (fixed)
  2463                           ;	Chosen strategy is simple_byte
  2464                           
  2465  0AB1  3A01               	xorlw	1^0	; case 1
  2466  0AB2  1903               	skipnz
  2467  0AB3  2A94               	goto	l2404
  2468  0AB4  3A03               	xorlw	2^1	; case 2
  2469  0AB5  1903               	skipnz
  2470  0AB6  2A9A               	goto	l2406
  2471  0AB7  3A01               	xorlw	3^2	; case 3
  2472  0AB8  1903               	skipnz
  2473  0AB9  2AA0               	goto	l2407
  2474  0ABA  3A07               	xorlw	4^3	; case 4
  2475  0ABB  1903               	skipnz
  2476  0ABC  2AA6               	goto	l2408
  2477  0ABD  2AAC               	goto	l2409
  2478                           
  2479                           	line	138
  2480                           	
  2481  0ABE                     l2405:	
  2482                           	line	139
  2483                           	
  2484  0ABE                     l2410:	
  2485  0ABE  0008               	return
  2486                           	opt stack 0
  2487                           GLOBAL	__end_of_SettingModeOperations
  2488  0ABF                     	__end_of_SettingModeOperations:
  2489 ;; =============== function _SettingModeOperations ends ============
  2490                           
  2491                           	signat	_SettingModeOperations,4216
  2492                           	global	_NextButtonHandler
  2493                           psect	text1463,local,class=CODE,delta=2
  2494                           global __ptext1463
  2495  0BA7                     __ptext1463:
  2496                           
  2497 ;; *************** function _NextButtonHandler *****************
  2498 ;; Defined at:
  2499 ;;		line 36 in file "SettingModeHandler.c"
  2500 ;; Parameters:    Size  Location     Type
  2501 ;;		None
  2502 ;; Auto vars:     Size  Location     Type
  2503 ;;		None
  2504 ;; Return value:  Size  Location     Type
  2505 ;;		None               void
  2506 ;; Registers used:
  2507 ;;		wreg, fsr0l, fsr0h, status,2, status,0, btemp+0, btemp+1, pclath, cstack
  2508 ;; Tracked objects:
  2509 ;;		On entry : 0/0
  2510 ;;		On exit  : 0/0
  2511 ;;		Unchanged: 0/0
  2512 ;; Data sizes:     COMMON   BANK0   BANK1   BANK3   BANK2
  2513 ;;      Params:         0       0       0       0       0
  2514 ;;      Locals:         0       0       0       0       0
  2515 ;;      Temps:          0       1       0       0       0
  2516 ;;      Totals:         0       1       0       0       0
  2517 ;;Total ram usage:        1 bytes
  2518 ;; Hardware stack levels used:    1
  2519 ;; Hardware stack levels required when called:   10
  2520 ;; This function calls:
  2521 ;;		_UpdateScreen
  2522 ;; This function is called by:
  2523 ;;		_SettingModeOperations
  2524 ;; This function uses a non-reentrant model
  2525 ;;
  2526                           psect	text1463
  2527                           	file	"SettingModeHandler.c"
  2528                           	line	36
  2529                           	global	__size_of_NextButtonHandler
  2530  0047                     	__size_of_NextButtonHandler	equ	__end_of_NextButtonHandler-_NextButtonHandler
  2531                           	
  2532  0BA7                     _NextButtonHandler:	
  2533                           	opt	stack 4
  2534                           ; Regs used in _NextButtonHandler: [wreg-fsr0h+status,2-btemp+1+pclath+cstack]
  2535                           	line	37
  2536                           	
  2537  0BA7                     l10159:	
  2538                           ;SettingModeHandler.c: 37: if (0 == ScreenIndex) {
  2539  0BA7  1283               	bcf	status, 5	;RP0=0, select bank0
  2540  0BA8  1303               	bcf	status, 6	;RP1=0, select bank0
  2541  0BA9  08D8               	movf	(_ScreenIndex),f
  2542  0BAA  1D03               	skipz
  2543  0BAB  2BAD               	goto	u6111
  2544  0BAC  2BAE               	goto	u6110
  2545  0BAD                     u6111:
  2546  0BAD  2BC5               	goto	l4280
  2547  0BAE                     u6110:
  2548                           	line	38
  2549                           	
  2550  0BAE                     l10161:	
  2551                           ;SettingModeHandler.c: 38: if (0 == ParameterIndex) {
  2552  0BAE  08D7               	movf	(_ParameterIndex),f
  2553  0BAF  1D03               	skipz
  2554  0BB0  2BB2               	goto	u6121
  2555  0BB1  2BB3               	goto	u6120
  2556  0BB2                     u6121:
  2557  0BB2  2BB7               	goto	l4281
  2558  0BB3                     u6120:
  2559                           	line	39
  2560                           	
  2561  0BB3                     l10163:	
  2562                           ;SettingModeHandler.c: 39: ParameterIndex = 1;
  2563  0BB3  01D7               	clrf	(_ParameterIndex)
  2564  0BB4  1403               	bsf	status,0
  2565  0BB5  0DD7               	rlf	(_ParameterIndex),f
  2566                           	line	40
  2567                           ;SettingModeHandler.c: 40: } else if (1 == ParameterIndex) {
  2568  0BB6  2BC4               	goto	l4282
  2569                           	
  2570  0BB7                     l4281:	
  2571                           	
  2572  0BB7                     l10165:	
  2573  0BB7  0857               	movf	(_ParameterIndex),w
  2574  0BB8  3A01               	xorlw	01h
  2575  0BB9  1D03               	skipz
  2576  0BBA  2BBC               	goto	u6131
  2577  0BBB  2BBD               	goto	u6130
  2578  0BBC                     u6131:
  2579  0BBC  2BC4               	goto	l4283
  2580  0BBD                     u6130:
  2581                           	line	41
  2582                           	
  2583  0BBD                     l10167:	
  2584                           ;SettingModeHandler.c: 41: ParameterIndex = 3;
  2585  0BBD  3003               	movlw	(03h)
  2586  0BBE  00C3               	movwf	(??_NextButtonHandler+0)+0
  2587  0BBF  0843               	movf	(??_NextButtonHandler+0)+0,w
  2588  0BC0  00D7               	movwf	(_ParameterIndex)
  2589                           	line	42
  2590                           	
  2591  0BC1                     l10169:	
  2592                           ;SettingModeHandler.c: 42: ScreenIndex = 1;
  2593  0BC1  01D8               	clrf	(_ScreenIndex)
  2594  0BC2  1403               	bsf	status,0
  2595  0BC3  0DD8               	rlf	(_ScreenIndex),f
  2596                           	line	43
  2597                           	
  2598  0BC4                     l4283:	
  2599                           	line	44
  2600                           	
  2601  0BC4                     l4282:	
  2602                           ;SettingModeHandler.c: 43: }
  2603                           ;SettingModeHandler.c: 44: } else if (1 == ScreenIndex) {
  2604  0BC4  2BE7               	goto	l4284
  2605                           	
  2606  0BC5                     l4280:	
  2607                           	
  2608  0BC5                     l10171:	
  2609  0BC5  0858               	movf	(_ScreenIndex),w
  2610  0BC6  3A01               	xorlw	01h
  2611  0BC7  1D03               	skipz
  2612  0BC8  2BCA               	goto	u6141
  2613  0BC9  2BCB               	goto	u6140
  2614  0BCA                     u6141:
  2615  0BCA  2BE1               	goto	l4285
  2616  0BCB                     u6140:
  2617                           	line	45
  2618                           	
  2619  0BCB                     l10173:	
  2620                           ;SettingModeHandler.c: 45: if (3 == ParameterIndex) {
  2621  0BCB  0857               	movf	(_ParameterIndex),w
  2622  0BCC  3A03               	xorlw	03h
  2623  0BCD  1D03               	skipz
  2624  0BCE  2BD0               	goto	u6151
  2625  0BCF  2BD1               	goto	u6150
  2626  0BD0                     u6151:
  2627  0BD0  2BD6               	goto	l4286
  2628  0BD1                     u6150:
  2629                           	line	46
  2630                           	
  2631  0BD1                     l10175:	
  2632                           ;SettingModeHandler.c: 46: ParameterIndex = 4;
  2633  0BD1  3004               	movlw	(04h)
  2634  0BD2  00C3               	movwf	(??_NextButtonHandler+0)+0
  2635  0BD3  0843               	movf	(??_NextButtonHandler+0)+0,w
  2636  0BD4  00D7               	movwf	(_ParameterIndex)
  2637                           	line	47
  2638                           ;SettingModeHandler.c: 47: } else if (4 == ParameterIndex) {
  2639  0BD5  2BE0               	goto	l4287
  2640                           	
  2641  0BD6                     l4286:	
  2642                           	
  2643  0BD6                     l10177:	
  2644  0BD6  0857               	movf	(_ParameterIndex),w
  2645  0BD7  3A04               	xorlw	04h
  2646  0BD8  1D03               	skipz
  2647  0BD9  2BDB               	goto	u6161
  2648  0BDA  2BDC               	goto	u6160
  2649  0BDB                     u6161:
  2650  0BDB  2BE0               	goto	l4288
  2651  0BDC                     u6160:
  2652                           	line	48
  2653                           	
  2654  0BDC                     l10179:	
  2655                           ;SettingModeHandler.c: 48: ScreenIndex = 2;
  2656  0BDC  3002               	movlw	(02h)
  2657  0BDD  00C3               	movwf	(??_NextButtonHandler+0)+0
  2658  0BDE  0843               	movf	(??_NextButtonHandler+0)+0,w
  2659  0BDF  00D8               	movwf	(_ScreenIndex)
  2660                           	line	49
  2661                           	
  2662  0BE0                     l4288:	
  2663                           	line	51
  2664                           	
  2665  0BE0                     l4287:	
  2666                           ;SettingModeHandler.c: 49: }
  2667                           ;SettingModeHandler.c: 51: } else if (2 == ScreenIndex) {
  2668  0BE0  2BE7               	goto	l4289
  2669                           	
  2670  0BE1                     l4285:	
  2671                           	
  2672  0BE1                     l10181:	
  2673  0BE1  0858               	movf	(_ScreenIndex),w
  2674  0BE2  3A02               	xorlw	02h
  2675  0BE3  1D03               	skipz
  2676  0BE4  2BE6               	goto	u6171
  2677  0BE5  2BE7               	goto	u6170
  2678  0BE6                     u6171:
  2679  0BE6  2BE7               	goto	l4290
  2680  0BE7                     u6170:
  2681                           	line	53
  2682                           	
  2683  0BE7                     l4290:	
  2684                           	line	56
  2685                           	
  2686  0BE7                     l4289:	
  2687                           	
  2688  0BE7                     l4284:	
  2689                           	
  2690  0BE7                     l10183:	
  2691                           ;SettingModeHandler.c: 53: }
  2692                           ;SettingModeHandler.c: 56: UpdateScreen(1);
  2693  0BE7  3001               	movlw	(01h)
  2694  0BE8  120A  118A  243D   	fcall	_UpdateScreen
              120A  158A         
  2695                           	line	57
  2696                           	
  2697  0BED                     l4291:	
  2698  0BED  0008               	return
  2699                           	opt stack 0
  2700                           GLOBAL	__end_of_NextButtonHandler
  2701  0BEE                     	__end_of_NextButtonHandler:
  2702 ;; =============== function _NextButtonHandler ends ============
  2703                           
  2704                           	signat	_NextButtonHandler,88
  2705                           	global	_DownButtonHandler
  2706                           psect	text1464,local,class=CODE,delta=2
  2707                           global __ptext1464
  2708  0F5E                     __ptext1464:
  2709                           
  2710 ;; *************** function _DownButtonHandler *****************
  2711 ;; Defined at:
  2712 ;;		line 95 in file "SettingModeHandler.c"
  2713 ;; Parameters:    Size  Location     Type
  2714 ;;		None
  2715 ;; Auto vars:     Size  Location     Type
  2716 ;;		None
  2717 ;; Return value:  Size  Location     Type
  2718 ;;		None               void
  2719 ;; Registers used:
  2720 ;;		wreg, fsr0l, fsr0h, status,2, status,0, btemp+0, btemp+1, pclath, cstack
  2721 ;; Tracked objects:
  2722 ;;		On entry : 0/0
  2723 ;;		On exit  : 0/0
  2724 ;;		Unchanged: 0/0
  2725 ;; Data sizes:     COMMON   BANK0   BANK1   BANK3   BANK2
  2726 ;;      Params:         0       0       0       0       0
  2727 ;;      Locals:         0       0       0       0       0
  2728 ;;      Temps:          0       3       0       0       0
  2729 ;;      Totals:         0       3       0       0       0
  2730 ;;Total ram usage:        3 bytes
  2731 ;; Hardware stack levels used:    1
  2732 ;; Hardware stack levels required when called:   10
  2733 ;; This function calls:
  2734 ;;		_lcd_writeThisStringAt
  2735 ;;		_UpdateScreen
  2736 ;; This function is called by:
  2737 ;;		_SettingModeOperations
  2738 ;; This function uses a non-reentrant model
  2739 ;;
  2740                           psect	text1464
  2741                           	file	"SettingModeHandler.c"
  2742                           	line	95
  2743                           	global	__size_of_DownButtonHandler
  2744  00A2                     	__size_of_DownButtonHandler	equ	__end_of_DownButtonHandler-_DownButtonHandler
  2745                           	
  2746  0F5E                     _DownButtonHandler:	
  2747                           	opt	stack 4
  2748                           ; Regs used in _DownButtonHandler: [wreg-fsr0h+status,2-btemp+1+pclath+cstack]
  2749                           	line	96
  2750                           	
  2751  0F5E                     l10119:	
  2752                           ;SettingModeHandler.c: 96: if ((0 == ParameterIndex) && (0 == ScreenIndex)) {
  2753  0F5E  1283               	bcf	status, 5	;RP0=0, select bank0
  2754  0F5F  1303               	bcf	status, 6	;RP1=0, select bank0
  2755  0F60  08D7               	movf	(_ParameterIndex),f
  2756  0F61  1D03               	skipz
  2757  0F62  2F64               	goto	u5991
  2758  0F63  2F65               	goto	u5990
  2759  0F64                     u5991:
  2760  0F64  2F70               	goto	l4310
  2761  0F65                     u5990:
  2762                           	
  2763  0F65                     l10121:	
  2764                           ;SettingModeHandler.c: 97: if (CurrentTeaQuantity >= 0) {
  2765  0F65  08D8               	movf	(_ScreenIndex),f
  2766  0F66  1D03               	skipz
  2767  0F67  2F69               	goto	u6001
  2768  0F68  2F6A               	goto	u6000
  2769  0F69                     u6001:
  2770  0F69  2F70               	goto	l4310
  2771  0F6A                     u6000:
  2772                           	line	98
  2773                           	
  2774  0F6A                     l10123:	
  2775                           ;SettingModeHandler.c: 98: CurrentTeaQuantity = CurrentTeaQuantity - 1;
  2776  0F6A  0851               	movf	(_CurrentTeaQuantity),w
  2777  0F6B  3EFF               	addlw	0FFh
  2778  0F6C  00C3               	movwf	(??_DownButtonHandler+0)+0
  2779  0F6D  0843               	movf	(??_DownButtonHandler+0)+0,w
  2780  0F6E  00D1               	movwf	(_CurrentTeaQuantity)
  2781                           	line	99
  2782                           	
  2783  0F6F                     l4311:	
  2784                           	line	100
  2785                           ;SettingModeHandler.c: 99: }
  2786                           ;SettingModeHandler.c: 100: } else if ((1 == ParameterIndex) && (0 == ScreenIndex)) {
  2787  0F6F  2FF9               	goto	l4312
  2788                           	
  2789  0F70                     l4310:	
  2790                           	
  2791  0F70                     l10125:	
  2792  0F70  0857               	movf	(_ParameterIndex),w
  2793  0F71  3A01               	xorlw	01h
  2794  0F72  1D03               	skipz
  2795  0F73  2F75               	goto	u6011
  2796  0F74  2F76               	goto	u6010
  2797  0F75                     u6011:
  2798  0F75  2F87               	goto	l4313
  2799  0F76                     u6010:
  2800                           	
  2801  0F76                     l10127:	
  2802  0F76  08D8               	movf	(_ScreenIndex),f
  2803  0F77  1D03               	skipz
  2804  0F78  2F7A               	goto	u6021
  2805  0F79  2F7B               	goto	u6020
  2806  0F7A                     u6021:
  2807  0F7A  2F87               	goto	l4313
  2808  0F7B                     u6020:
  2809                           	line	101
  2810                           	
  2811  0F7B                     l10129:	
  2812                           ;SettingModeHandler.c: 101: if (CurrentWaterQuantity_forTea <= 15) {
  2813  0F7B  3010               	movlw	(010h)
  2814  0F7C  0253               	subwf	(_CurrentWaterQuantity_forTea),w
  2815  0F7D  1803               	skipnc
  2816  0F7E  2F80               	goto	u6031
  2817  0F7F  2F81               	goto	u6030
  2818  0F80                     u6031:
  2819  0F80  2F86               	goto	l4314
  2820  0F81                     u6030:
  2821                           	line	102
  2822                           	
  2823  0F81                     l10131:	
  2824                           ;SettingModeHandler.c: 102: CurrentWaterQuantity_forTea = CurrentWaterQuantity_forTea - 
                                 1;
  2825  0F81  0853               	movf	(_CurrentWaterQuantity_forTea),w
  2826  0F82  3EFF               	addlw	0FFh
  2827  0F83  00C3               	movwf	(??_DownButtonHandler+0)+0
  2828  0F84  0843               	movf	(??_DownButtonHandler+0)+0,w
  2829  0F85  00D3               	movwf	(_CurrentWaterQuantity_forTea)
  2830                           	line	103
  2831                           	
  2832  0F86                     l4314:	
  2833                           	line	104
  2834                           ;SettingModeHandler.c: 103: }
  2835                           ;SettingModeHandler.c: 104: } else if ((3 == ParameterIndex) && (1 == ScreenIndex)) {
  2836  0F86  2FF9               	goto	l4315
  2837                           	
  2838  0F87                     l4313:	
  2839                           	
  2840  0F87                     l10133:	
  2841  0F87  0857               	movf	(_ParameterIndex),w
  2842  0F88  3A03               	xorlw	03h
  2843  0F89  1D03               	skipz
  2844  0F8A  2F8C               	goto	u6041
  2845  0F8B  2F8D               	goto	u6040
  2846  0F8C                     u6041:
  2847  0F8C  2F9F               	goto	l4316
  2848  0F8D                     u6040:
  2849                           	
  2850  0F8D                     l10135:	
  2851  0F8D  0858               	movf	(_ScreenIndex),w
  2852  0F8E  3A01               	xorlw	01h
  2853  0F8F  1D03               	skipz
  2854  0F90  2F92               	goto	u6051
  2855  0F91  2F93               	goto	u6050
  2856  0F92                     u6051:
  2857  0F92  2F9F               	goto	l4316
  2858  0F93                     u6050:
  2859                           	line	105
  2860                           	
  2861  0F93                     l10137:	
  2862                           ;SettingModeHandler.c: 105: if (CurrentCoffeeQuantity <= 15) {
  2863  0F93  3010               	movlw	(010h)
  2864  0F94  0250               	subwf	(_CurrentCoffeeQuantity),w
  2865  0F95  1803               	skipnc
  2866  0F96  2F98               	goto	u6061
  2867  0F97  2F99               	goto	u6060
  2868  0F98                     u6061:
  2869  0F98  2F9E               	goto	l4317
  2870  0F99                     u6060:
  2871                           	line	106
  2872                           	
  2873  0F99                     l10139:	
  2874                           ;SettingModeHandler.c: 106: CurrentCoffeeQuantity = CurrentCoffeeQuantity - 1;
  2875  0F99  0850               	movf	(_CurrentCoffeeQuantity),w
  2876  0F9A  3EFF               	addlw	0FFh
  2877  0F9B  00C3               	movwf	(??_DownButtonHandler+0)+0
  2878  0F9C  0843               	movf	(??_DownButtonHandler+0)+0,w
  2879  0F9D  00D0               	movwf	(_CurrentCoffeeQuantity)
  2880                           	line	107
  2881                           	
  2882  0F9E                     l4317:	
  2883                           	line	108
  2884                           ;SettingModeHandler.c: 107: }
  2885                           ;SettingModeHandler.c: 108: } else if ((4 == ParameterIndex) && (1 == ScreenIndex)) {
  2886  0F9E  2FF9               	goto	l4318
  2887                           	
  2888  0F9F                     l4316:	
  2889                           	
  2890  0F9F                     l10141:	
  2891  0F9F  0857               	movf	(_ParameterIndex),w
  2892  0FA0  3A04               	xorlw	04h
  2893  0FA1  1D03               	skipz
  2894  0FA2  2FA4               	goto	u6071
  2895  0FA3  2FA5               	goto	u6070
  2896  0FA4                     u6071:
  2897  0FA4  2FB7               	goto	l4319
  2898  0FA5                     u6070:
  2899                           	
  2900  0FA5                     l10143:	
  2901  0FA5  0858               	movf	(_ScreenIndex),w
  2902  0FA6  3A01               	xorlw	01h
  2903  0FA7  1D03               	skipz
  2904  0FA8  2FAA               	goto	u6081
  2905  0FA9  2FAB               	goto	u6080
  2906  0FAA                     u6081:
  2907  0FAA  2FB7               	goto	l4319
  2908  0FAB                     u6080:
  2909                           	line	109
  2910                           	
  2911  0FAB                     l10145:	
  2912                           ;SettingModeHandler.c: 109: if (CurrentWaterQuantity_forCoffee <= 15) {
  2913  0FAB  3010               	movlw	(010h)
  2914  0FAC  0252               	subwf	(_CurrentWaterQuantity_forCoffee),w
  2915  0FAD  1803               	skipnc
  2916  0FAE  2FB0               	goto	u6091
  2917  0FAF  2FB1               	goto	u6090
  2918  0FB0                     u6091:
  2919  0FB0  2FB6               	goto	l4320
  2920  0FB1                     u6090:
  2921                           	line	110
  2922                           	
  2923  0FB1                     l10147:	
  2924                           ;SettingModeHandler.c: 110: CurrentWaterQuantity_forCoffee = CurrentWaterQuantity_forCof
                                 fee - 1;
  2925  0FB1  0852               	movf	(_CurrentWaterQuantity_forCoffee),w
  2926  0FB2  3EFF               	addlw	0FFh
  2927  0FB3  00C3               	movwf	(??_DownButtonHandler+0)+0
  2928  0FB4  0843               	movf	(??_DownButtonHandler+0)+0,w
  2929  0FB5  00D2               	movwf	(_CurrentWaterQuantity_forCoffee)
  2930                           	line	111
  2931                           	
  2932  0FB6                     l4320:	
  2933                           	line	112
  2934                           ;SettingModeHandler.c: 111: }
  2935                           ;SettingModeHandler.c: 112: } else if (2 == ScreenIndex) {
  2936  0FB6  2FF9               	goto	l4321
  2937                           	
  2938  0FB7                     l4319:	
  2939                           	
  2940  0FB7                     l10149:	
  2941  0FB7  0858               	movf	(_ScreenIndex),w
  2942  0FB8  3A02               	xorlw	02h
  2943  0FB9  1D03               	skipz
  2944  0FBA  2FBC               	goto	u6101
  2945  0FBB  2FBD               	goto	u6100
  2946  0FBC                     u6101:
  2947  0FBC  2FF9               	goto	l4322
  2948  0FBD                     u6100:
  2949                           	line	113
  2950                           	
  2951  0FBD                     l10151:	
  2952                           ;SettingModeHandler.c: 113: lcd_writeThisStringAt(1,0,"SETTINGS UPDATED");
  2953  0FBD  1003               	clrc
  2954  0FBE  3000               	movlw	0
  2955  0FBF  1803               	btfsc	status,0
  2956  0FC0  3001               	movlw	1
  2957  0FC1  00B4               	movwf	(?_lcd_writeThisStringAt)
  2958  0FC2  3012               	movlw	((STR_8-__stringbase))&0ffh
  2959  0FC3  00C3               	movwf	(??_DownButtonHandler+0)+0
  2960  0FC4  0843               	movf	(??_DownButtonHandler+0)+0,w
  2961  0FC5  00B5               	movwf	(0+?_lcd_writeThisStringAt+01h)
  2962  0FC6  3001               	movlw	(01h)
  2963  0FC7  120A  158A  207B   	fcall	_lcd_writeThisStringAt
              120A  158A         
  2964                           	line	114
  2965                           	
  2966  0FCC                     l10153:	
  2967                           ;SettingModeHandler.c: 114: _delay((unsigned long)((2000)*(20000000/4000.0)));
  2968                           	opt asmopt_off
  2969  0FCC  3033               movlw  51
  2970  0FCD  1283               	bcf	status, 5	;RP0=0, select bank0
  2971  0FCE  1303               	bcf	status, 6	;RP1=0, select bank0
  2972  0FCF  00C5               movwf	((??_DownButtonHandler+0)+0+2),f
  2973  0FD0  3089               movlw	137
  2974  0FD1  00C4               movwf	((??_DownButtonHandler+0)+0+1),f
  2975  0FD2  3000               	movlw	256
  2976  0FD3  00C3               movwf	((??_DownButtonHandler+0)+0),f
  2977  0FD4                     u6387:
  2978  0FD4  0BC3               	decfsz	((??_DownButtonHandler+0)+0),f
  2979  0FD5  2FD4               	goto	u6387
  2980  0FD6  0BC4               	decfsz	((??_DownButtonHandler+0)+0+1),f
  2981  0FD7  2FD4               	goto	u6387
  2982  0FD8  0BC5               	decfsz	((??_DownButtonHandler+0)+0+2),f
  2983  0FD9  2FD4               	goto	u6387
  2984                           opt asmopt_on
  2985                           
  2986                           	line	115
  2987                           	
  2988  0FDA                     l10155:	
  2989                           ;SettingModeHandler.c: 115: lcd_writeThisStringAt(1,0,"PRESS EXIT KEY");
  2990  0FDA  1003               	clrc
  2991  0FDB  3000               	movlw	0
  2992  0FDC  1803               	btfsc	status,0
  2993  0FDD  3001               	movlw	1
  2994  0FDE  1283               	bcf	status, 5	;RP0=0, select bank0
  2995  0FDF  1303               	bcf	status, 6	;RP1=0, select bank0
  2996  0FE0  00B4               	movwf	(?_lcd_writeThisStringAt)
  2997  0FE1  3062               	movlw	((STR_9-__stringbase))&0ffh
  2998  0FE2  00C3               	movwf	(??_DownButtonHandler+0)+0
  2999  0FE3  0843               	movf	(??_DownButtonHandler+0)+0,w
  3000  0FE4  00B5               	movwf	(0+?_lcd_writeThisStringAt+01h)
  3001  0FE5  3001               	movlw	(01h)
  3002  0FE6  120A  158A  207B   	fcall	_lcd_writeThisStringAt
              120A  158A         
  3003                           	line	116
  3004                           ;SettingModeHandler.c: 116: _delay((unsigned long)((2000)*(20000000/4000.0)));
  3005                           	opt asmopt_off
  3006  0FEB  3033               movlw  51
  3007  0FEC  1283               	bcf	status, 5	;RP0=0, select bank0
  3008  0FED  1303               	bcf	status, 6	;RP1=0, select bank0
  3009  0FEE  00C5               movwf	((??_DownButtonHandler+0)+0+2),f
  3010  0FEF  3089               movlw	137
  3011  0FF0  00C4               movwf	((??_DownButtonHandler+0)+0+1),f
  3012  0FF1  3000               	movlw	256
  3013  0FF2  00C3               movwf	((??_DownButtonHandler+0)+0),f
  3014  0FF3                     u6397:
  3015  0FF3  0BC3               	decfsz	((??_DownButtonHandler+0)+0),f
  3016  0FF4  2FF3               	goto	u6397
  3017  0FF5  0BC4               	decfsz	((??_DownButtonHandler+0)+0+1),f
  3018  0FF6  2FF3               	goto	u6397
  3019  0FF7  0BC5               	decfsz	((??_DownButtonHandler+0)+0+2),f
  3020  0FF8  2FF3               	goto	u6397
  3021                           opt asmopt_on
  3022                           
  3023                           	line	118
  3024                           ;SettingModeHandler.c: 117: break;
  3025                           	
  3026  0FF9                     l4322:	
  3027                           	line	119
  3028                           	
  3029  0FF9                     l4321:	
  3030                           	
  3031  0FF9                     l4318:	
  3032                           	
  3033  0FF9                     l4315:	
  3034                           	
  3035  0FF9                     l4312:	
  3036                           	
  3037  0FF9                     l10157:	
  3038                           ;SettingModeHandler.c: 118: }
  3039                           ;SettingModeHandler.c: 119: UpdateScreen(0);
  3040  0FF9  3000               	movlw	(0)
  3041  0FFA  120A  118A  243D   	fcall	_UpdateScreen
              120A  158A         
  3042                           	line	120
  3043                           	
  3044  0FFF                     l4323:	
  3045  0FFF  0008               	return
  3046                           	opt stack 0
  3047                           GLOBAL	__end_of_DownButtonHandler
  3048  1000                     	__end_of_DownButtonHandler:
  3049 ;; =============== function _DownButtonHandler ends ============
  3050                           
  3051                           	signat	_DownButtonHandler,88
  3052                           	global	_UpbuttonHandler
  3053                           psect	text1465,local,class=CODE,delta=2
  3054                           global __ptext1465
  3055  06FC                     __ptext1465:
  3056                           
  3057 ;; *************** function _UpbuttonHandler *****************
  3058 ;; Defined at:
  3059 ;;		line 59 in file "SettingModeHandler.c"
  3060 ;; Parameters:    Size  Location     Type
  3061 ;;		None
  3062 ;; Auto vars:     Size  Location     Type
  3063 ;;		None
  3064 ;; Return value:  Size  Location     Type
  3065 ;;		None               void
  3066 ;; Registers used:
  3067 ;;		wreg, fsr0l, fsr0h, status,2, status,0, btemp+0, btemp+1, pclath, cstack
  3068 ;; Tracked objects:
  3069 ;;		On entry : 0/0
  3070 ;;		On exit  : 0/0
  3071 ;;		Unchanged: 0/0
  3072 ;; Data sizes:     COMMON   BANK0   BANK1   BANK3   BANK2
  3073 ;;      Params:         0       0       0       0       0
  3074 ;;      Locals:         0       0       0       0       0
  3075 ;;      Temps:          0       3       0       0       0
  3076 ;;      Totals:         0       3       0       0       0
  3077 ;;Total ram usage:        3 bytes
  3078 ;; Hardware stack levels used:    1
  3079 ;; Hardware stack levels required when called:   10
  3080 ;; This function calls:
  3081 ;;		_lcd_writeThisStringAt
  3082 ;;		_UpdateScreen
  3083 ;; This function is called by:
  3084 ;;		_SettingModeOperations
  3085 ;; This function uses a non-reentrant model
  3086 ;;
  3087                           psect	text1465
  3088                           	file	"SettingModeHandler.c"
  3089                           	line	59
  3090                           	global	__size_of_UpbuttonHandler
  3091  00B8                     	__size_of_UpbuttonHandler	equ	__end_of_UpbuttonHandler-_UpbuttonHandler
  3092                           	
  3093  06FC                     _UpbuttonHandler:	
  3094                           	opt	stack 4
  3095                           ; Regs used in _UpbuttonHandler: [wreg-fsr0h+status,2-btemp+1+pclath+cstack]
  3096                           	line	62
  3097                           	
  3098  06FC                     l10075:	
  3099                           ;SettingModeHandler.c: 62: if ((0 == ParameterIndex) && (0 == ScreenIndex)) {
  3100  06FC  1283               	bcf	status, 5	;RP0=0, select bank0
  3101  06FD  1303               	bcf	status, 6	;RP1=0, select bank0
  3102  06FE  08D7               	movf	(_ParameterIndex),f
  3103  06FF  1D03               	skipz
  3104  0700  2F02               	goto	u5861
  3105  0701  2F03               	goto	u5860
  3106  0702                     u5861:
  3107  0702  2F14               	goto	l4294
  3108  0703                     u5860:
  3109                           	
  3110  0703                     l10077:	
  3111  0703  08D8               	movf	(_ScreenIndex),f
  3112  0704  1D03               	skipz
  3113  0705  2F07               	goto	u5871
  3114  0706  2F08               	goto	u5870
  3115  0707                     u5871:
  3116  0707  2F14               	goto	l4294
  3117  0708                     u5870:
  3118                           	line	63
  3119                           	
  3120  0708                     l10079:	
  3121                           ;SettingModeHandler.c: 63: if (CurrentTeaQuantity <= 15)
  3122  0708  3010               	movlw	(010h)
  3123  0709  0251               	subwf	(_CurrentTeaQuantity),w
  3124  070A  1803               	skipnc
  3125  070B  2F0D               	goto	u5881
  3126  070C  2F0E               	goto	u5880
  3127  070D                     u5881:
  3128  070D  2F13               	goto	l4295
  3129  070E                     u5880:
  3130                           	line	65
  3131                           	
  3132  070E                     l10081:	
  3133                           ;SettingModeHandler.c: 64: {
  3134                           ;SettingModeHandler.c: 65: CurrentTeaQuantity = CurrentTeaQuantity + 1;
  3135  070E  0851               	movf	(_CurrentTeaQuantity),w
  3136  070F  3E01               	addlw	01h
  3137  0710  00C3               	movwf	(??_UpbuttonHandler+0)+0
  3138  0711  0843               	movf	(??_UpbuttonHandler+0)+0,w
  3139  0712  00D1               	movwf	(_CurrentTeaQuantity)
  3140                           	line	66
  3141                           	
  3142  0713                     l4295:	
  3143                           	line	67
  3144                           ;SettingModeHandler.c: 66: }
  3145                           ;SettingModeHandler.c: 67: } else if ((1 == ParameterIndex) && (0 == ScreenIndex)) {
  3146  0713  2FAD               	goto	l4296
  3147                           	
  3148  0714                     l4294:	
  3149                           	
  3150  0714                     l10083:	
  3151  0714  0857               	movf	(_ParameterIndex),w
  3152  0715  3A01               	xorlw	01h
  3153  0716  1D03               	skipz
  3154  0717  2F19               	goto	u5891
  3155  0718  2F1A               	goto	u5890
  3156  0719                     u5891:
  3157  0719  2F2B               	goto	l4297
  3158  071A                     u5890:
  3159                           	
  3160  071A                     l10085:	
  3161  071A  08D8               	movf	(_ScreenIndex),f
  3162  071B  1D03               	skipz
  3163  071C  2F1E               	goto	u5901
  3164  071D  2F1F               	goto	u5900
  3165  071E                     u5901:
  3166  071E  2F2B               	goto	l4297
  3167  071F                     u5900:
  3168                           	line	68
  3169                           	
  3170  071F                     l10087:	
  3171                           ;SettingModeHandler.c: 68: if (CurrentWaterQuantity_forTea <= 15) {
  3172  071F  3010               	movlw	(010h)
  3173  0720  0253               	subwf	(_CurrentWaterQuantity_forTea),w
  3174  0721  1803               	skipnc
  3175  0722  2F24               	goto	u5911
  3176  0723  2F25               	goto	u5910
  3177  0724                     u5911:
  3178  0724  2F2A               	goto	l4298
  3179  0725                     u5910:
  3180                           	line	69
  3181                           	
  3182  0725                     l10089:	
  3183                           ;SettingModeHandler.c: 69: CurrentWaterQuantity_forTea = CurrentWaterQuantity_forTea + 1
                                 ;
  3184  0725  0853               	movf	(_CurrentWaterQuantity_forTea),w
  3185  0726  3E01               	addlw	01h
  3186  0727  00C3               	movwf	(??_UpbuttonHandler+0)+0
  3187  0728  0843               	movf	(??_UpbuttonHandler+0)+0,w
  3188  0729  00D3               	movwf	(_CurrentWaterQuantity_forTea)
  3189                           	line	70
  3190                           	
  3191  072A                     l4298:	
  3192                           	line	71
  3193                           ;SettingModeHandler.c: 70: }
  3194                           ;SettingModeHandler.c: 71: } else if ((3 == ParameterIndex) && (1 == ScreenIndex)) {
  3195  072A  2FAD               	goto	l4299
  3196                           	
  3197  072B                     l4297:	
  3198                           	
  3199  072B                     l10091:	
  3200  072B  0857               	movf	(_ParameterIndex),w
  3201  072C  3A03               	xorlw	03h
  3202  072D  1D03               	skipz
  3203  072E  2F30               	goto	u5921
  3204  072F  2F31               	goto	u5920
  3205  0730                     u5921:
  3206  0730  2F43               	goto	l4300
  3207  0731                     u5920:
  3208                           	
  3209  0731                     l10093:	
  3210  0731  0858               	movf	(_ScreenIndex),w
  3211  0732  3A01               	xorlw	01h
  3212  0733  1D03               	skipz
  3213  0734  2F36               	goto	u5931
  3214  0735  2F37               	goto	u5930
  3215  0736                     u5931:
  3216  0736  2F43               	goto	l4300
  3217  0737                     u5930:
  3218                           	line	72
  3219                           	
  3220  0737                     l10095:	
  3221                           ;SettingModeHandler.c: 72: if (CurrentCoffeeQuantity <= 15) {
  3222  0737  3010               	movlw	(010h)
  3223  0738  0250               	subwf	(_CurrentCoffeeQuantity),w
  3224  0739  1803               	skipnc
  3225  073A  2F3C               	goto	u5941
  3226  073B  2F3D               	goto	u5940
  3227  073C                     u5941:
  3228  073C  2F42               	goto	l4301
  3229  073D                     u5940:
  3230                           	line	73
  3231                           	
  3232  073D                     l10097:	
  3233                           ;SettingModeHandler.c: 73: CurrentCoffeeQuantity = CurrentCoffeeQuantity + 1;
  3234  073D  0850               	movf	(_CurrentCoffeeQuantity),w
  3235  073E  3E01               	addlw	01h
  3236  073F  00C3               	movwf	(??_UpbuttonHandler+0)+0
  3237  0740  0843               	movf	(??_UpbuttonHandler+0)+0,w
  3238  0741  00D0               	movwf	(_CurrentCoffeeQuantity)
  3239                           	line	74
  3240                           	
  3241  0742                     l4301:	
  3242                           	line	75
  3243                           ;SettingModeHandler.c: 74: }
  3244                           ;SettingModeHandler.c: 75: } else if ((4 == ParameterIndex) && (1 == ScreenIndex)) {
  3245  0742  2FAD               	goto	l4302
  3246                           	
  3247  0743                     l4300:	
  3248                           	
  3249  0743                     l10099:	
  3250  0743  0857               	movf	(_ParameterIndex),w
  3251  0744  3A04               	xorlw	04h
  3252  0745  1D03               	skipz
  3253  0746  2F48               	goto	u5951
  3254  0747  2F49               	goto	u5950
  3255  0748                     u5951:
  3256  0748  2F5B               	goto	l4303
  3257  0749                     u5950:
  3258                           	
  3259  0749                     l10101:	
  3260  0749  0858               	movf	(_ScreenIndex),w
  3261  074A  3A01               	xorlw	01h
  3262  074B  1D03               	skipz
  3263  074C  2F4E               	goto	u5961
  3264  074D  2F4F               	goto	u5960
  3265  074E                     u5961:
  3266  074E  2F5B               	goto	l4303
  3267  074F                     u5960:
  3268                           	line	76
  3269                           	
  3270  074F                     l10103:	
  3271                           ;SettingModeHandler.c: 76: if (CurrentWaterQuantity_forCoffee <= 15) {
  3272  074F  3010               	movlw	(010h)
  3273  0750  0252               	subwf	(_CurrentWaterQuantity_forCoffee),w
  3274  0751  1803               	skipnc
  3275  0752  2F54               	goto	u5971
  3276  0753  2F55               	goto	u5970
  3277  0754                     u5971:
  3278  0754  2F5A               	goto	l4304
  3279  0755                     u5970:
  3280                           	line	77
  3281                           	
  3282  0755                     l10105:	
  3283                           ;SettingModeHandler.c: 77: CurrentWaterQuantity_forCoffee = CurrentWaterQuantity_forCoff
                                 ee + 1;
  3284  0755  0852               	movf	(_CurrentWaterQuantity_forCoffee),w
  3285  0756  3E01               	addlw	01h
  3286  0757  00C3               	movwf	(??_UpbuttonHandler+0)+0
  3287  0758  0843               	movf	(??_UpbuttonHandler+0)+0,w
  3288  0759  00D2               	movwf	(_CurrentWaterQuantity_forCoffee)
  3289                           	line	78
  3290                           	
  3291  075A                     l4304:	
  3292                           	line	80
  3293                           ;SettingModeHandler.c: 78: }
  3294                           ;SettingModeHandler.c: 80: } else if (2 == ScreenIndex) {
  3295  075A  2FAD               	goto	l4305
  3296                           	
  3297  075B                     l4303:	
  3298                           	
  3299  075B                     l10107:	
  3300  075B  0858               	movf	(_ScreenIndex),w
  3301  075C  3A02               	xorlw	02h
  3302  075D  1D03               	skipz
  3303  075E  2F60               	goto	u5981
  3304  075F  2F61               	goto	u5980
  3305  0760                     u5981:
  3306  0760  2FAD               	goto	l4306
  3307  0761                     u5980:
  3308                           	line	81
  3309                           	
  3310  0761                     l10109:	
  3311                           ;SettingModeHandler.c: 81: CurrentCoffeeQuantity = 0x10;
  3312  0761  3010               	movlw	(010h)
  3313  0762  00C3               	movwf	(??_UpbuttonHandler+0)+0
  3314  0763  0843               	movf	(??_UpbuttonHandler+0)+0,w
  3315  0764  00D0               	movwf	(_CurrentCoffeeQuantity)
  3316                           	line	82
  3317                           ;SettingModeHandler.c: 82: CurrentWaterQuantity_forCoffee = 0x10;
  3318  0765  3010               	movlw	(010h)
  3319  0766  00C3               	movwf	(??_UpbuttonHandler+0)+0
  3320  0767  0843               	movf	(??_UpbuttonHandler+0)+0,w
  3321  0768  00D2               	movwf	(_CurrentWaterQuantity_forCoffee)
  3322                           	line	83
  3323                           ;SettingModeHandler.c: 83: CurrentTeaQuantity = 0x10;
  3324  0769  3010               	movlw	(010h)
  3325  076A  00C3               	movwf	(??_UpbuttonHandler+0)+0
  3326  076B  0843               	movf	(??_UpbuttonHandler+0)+0,w
  3327  076C  00D1               	movwf	(_CurrentTeaQuantity)
  3328                           	line	84
  3329                           ;SettingModeHandler.c: 84: CurrentWaterQuantity_forTea = 0x10;
  3330  076D  3010               	movlw	(010h)
  3331  076E  00C3               	movwf	(??_UpbuttonHandler+0)+0
  3332  076F  0843               	movf	(??_UpbuttonHandler+0)+0,w
  3333  0770  00D3               	movwf	(_CurrentWaterQuantity_forTea)
  3334                           	line	86
  3335                           	
  3336  0771                     l10111:	
  3337                           ;SettingModeHandler.c: 86: lcd_writeThisStringAt(1,0,"DEFAULT UPDATED");
  3338  0771  1003               	clrc
  3339  0772  3000               	movlw	0
  3340  0773  1803               	btfsc	status,0
  3341  0774  3001               	movlw	1
  3342  0775  00B4               	movwf	(?_lcd_writeThisStringAt)
  3343  0776  3033               	movlw	((STR_6-__stringbase))&0ffh
  3344  0777  00C3               	movwf	(??_UpbuttonHandler+0)+0
  3345  0778  0843               	movf	(??_UpbuttonHandler+0)+0,w
  3346  0779  00B5               	movwf	(0+?_lcd_writeThisStringAt+01h)
  3347  077A  3001               	movlw	(01h)
  3348  077B  120A  158A  207B   	fcall	_lcd_writeThisStringAt
              120A  118A         
  3349                           	line	87
  3350                           	
  3351  0780                     l10113:	
  3352                           ;SettingModeHandler.c: 87: _delay((unsigned long)((2000)*(20000000/4000.0)));
  3353                           	opt asmopt_off
  3354  0780  3033               movlw  51
  3355  0781  1283               	bcf	status, 5	;RP0=0, select bank0
  3356  0782  1303               	bcf	status, 6	;RP1=0, select bank0
  3357  0783  00C5               movwf	((??_UpbuttonHandler+0)+0+2),f
  3358  0784  3089               movlw	137
  3359  0785  00C4               movwf	((??_UpbuttonHandler+0)+0+1),f
  3360  0786  3000               	movlw	256
  3361  0787  00C3               movwf	((??_UpbuttonHandler+0)+0),f
  3362  0788                     u6407:
  3363  0788  0BC3               	decfsz	((??_UpbuttonHandler+0)+0),f
  3364  0789  2F88               	goto	u6407
  3365  078A  0BC4               	decfsz	((??_UpbuttonHandler+0)+0+1),f
  3366  078B  2F88               	goto	u6407
  3367  078C  0BC5               	decfsz	((??_UpbuttonHandler+0)+0+2),f
  3368  078D  2F88               	goto	u6407
  3369                           opt asmopt_on
  3370                           
  3371                           	line	88
  3372                           ;SettingModeHandler.c: 88: lcd_writeThisStringAt(1,0,"PRESS EXIT KEY");
  3373  078E  1003               	clrc
  3374  078F  3000               	movlw	0
  3375  0790  1803               	btfsc	status,0
  3376  0791  3001               	movlw	1
  3377  0792  1283               	bcf	status, 5	;RP0=0, select bank0
  3378  0793  1303               	bcf	status, 6	;RP1=0, select bank0
  3379  0794  00B4               	movwf	(?_lcd_writeThisStringAt)
  3380  0795  3062               	movlw	((STR_7-__stringbase))&0ffh
  3381  0796  00C3               	movwf	(??_UpbuttonHandler+0)+0
  3382  0797  0843               	movf	(??_UpbuttonHandler+0)+0,w
  3383  0798  00B5               	movwf	(0+?_lcd_writeThisStringAt+01h)
  3384  0799  3001               	movlw	(01h)
  3385  079A  120A  158A  207B   	fcall	_lcd_writeThisStringAt
              120A  118A         
  3386                           	line	89
  3387                           	
  3388  079F                     l10115:	
  3389                           ;SettingModeHandler.c: 89: _delay((unsigned long)((2000)*(20000000/4000.0)));
  3390                           	opt asmopt_off
  3391  079F  3033               movlw  51
  3392  07A0  1283               	bcf	status, 5	;RP0=0, select bank0
  3393  07A1  1303               	bcf	status, 6	;RP1=0, select bank0
  3394  07A2  00C5               movwf	((??_UpbuttonHandler+0)+0+2),f
  3395  07A3  3089               movlw	137
  3396  07A4  00C4               movwf	((??_UpbuttonHandler+0)+0+1),f
  3397  07A5  3000               	movlw	256
  3398  07A6  00C3               movwf	((??_UpbuttonHandler+0)+0),f
  3399  07A7                     u6417:
  3400  07A7  0BC3               	decfsz	((??_UpbuttonHandler+0)+0),f
  3401  07A8  2FA7               	goto	u6417
  3402  07A9  0BC4               	decfsz	((??_UpbuttonHandler+0)+0+1),f
  3403  07AA  2FA7               	goto	u6417
  3404  07AB  0BC5               	decfsz	((??_UpbuttonHandler+0)+0+2),f
  3405  07AC  2FA7               	goto	u6417
  3406                           opt asmopt_on
  3407                           
  3408                           	line	91
  3409                           ;SettingModeHandler.c: 90: break;
  3410                           	
  3411  07AD                     l4306:	
  3412                           	line	92
  3413                           	
  3414  07AD                     l4305:	
  3415                           	
  3416  07AD                     l4302:	
  3417                           	
  3418  07AD                     l4299:	
  3419                           	
  3420  07AD                     l4296:	
  3421                           	
  3422  07AD                     l10117:	
  3423                           ;SettingModeHandler.c: 91: }
  3424                           ;SettingModeHandler.c: 92: UpdateScreen(0);
  3425  07AD  3000               	movlw	(0)
  3426  07AE  120A  118A  243D   	fcall	_UpdateScreen
              120A  118A         
  3427                           	line	93
  3428                           	
  3429  07B3                     l4307:	
  3430  07B3  0008               	return
  3431                           	opt stack 0
  3432                           GLOBAL	__end_of_UpbuttonHandler
  3433  07B4                     	__end_of_UpbuttonHandler:
  3434 ;; =============== function _UpbuttonHandler ends ============
  3435                           
  3436                           	signat	_UpbuttonHandler,88
  3437                           	global	_PreviousButtonHandler
  3438                           psect	text1466,local,class=CODE,delta=2
  3439                           global __ptext1466
  3440  07B4                     __ptext1466:
  3441                           
  3442 ;; *************** function _PreviousButtonHandler *****************
  3443 ;; Defined at:
  3444 ;;		line 15 in file "SettingModeHandler.c"
  3445 ;; Parameters:    Size  Location     Type
  3446 ;;		None
  3447 ;; Auto vars:     Size  Location     Type
  3448 ;;		None
  3449 ;; Return value:  Size  Location     Type
  3450 ;;		None               void
  3451 ;; Registers used:
  3452 ;;		wreg, fsr0l, fsr0h, status,2, status,0, btemp+0, btemp+1, pclath, cstack
  3453 ;; Tracked objects:
  3454 ;;		On entry : 0/0
  3455 ;;		On exit  : 0/0
  3456 ;;		Unchanged: 0/0
  3457 ;; Data sizes:     COMMON   BANK0   BANK1   BANK3   BANK2
  3458 ;;      Params:         0       0       0       0       0
  3459 ;;      Locals:         0       0       0       0       0
  3460 ;;      Temps:          0       1       0       0       0
  3461 ;;      Totals:         0       1       0       0       0
  3462 ;;Total ram usage:        1 bytes
  3463 ;; Hardware stack levels used:    1
  3464 ;; Hardware stack levels required when called:   10
  3465 ;; This function calls:
  3466 ;;		_UpdateScreen
  3467 ;; This function is called by:
  3468 ;;		_SettingModeOperations
  3469 ;; This function uses a non-reentrant model
  3470 ;;
  3471                           psect	text1466
  3472                           	file	"SettingModeHandler.c"
  3473                           	line	15
  3474                           	global	__size_of_PreviousButtonHandler
  3475  0049                     	__size_of_PreviousButtonHandler	equ	__end_of_PreviousButtonHandler-_PreviousButtonHandl
                                 er
  3476                           	
  3477  07B4                     _PreviousButtonHandler:	
  3478                           	opt	stack 4
  3479                           ; Regs used in _PreviousButtonHandler: [wreg-fsr0h+status,2-btemp+1+pclath+cstack]
  3480                           	line	16
  3481                           	
  3482  07B4                     l10047:	
  3483                           ;SettingModeHandler.c: 16: if (0 == ScreenIndex) {
  3484  07B4  1283               	bcf	status, 5	;RP0=0, select bank0
  3485  07B5  1303               	bcf	status, 6	;RP1=0, select bank0
  3486  07B6  08D8               	movf	(_ScreenIndex),f
  3487  07B7  1D03               	skipz
  3488  07B8  2FBA               	goto	u5791
  3489  07B9  2FBB               	goto	u5790
  3490  07BA                     u5791:
  3491  07BA  2FCD               	goto	l4266
  3492  07BB                     u5790:
  3493                           	line	17
  3494                           	
  3495  07BB                     l10049:	
  3496                           ;SettingModeHandler.c: 17: if (0 == ParameterIndex) {
  3497  07BB  08D7               	movf	(_ParameterIndex),f
  3498  07BC  1D03               	skipz
  3499  07BD  2FBF               	goto	u5801
  3500  07BE  2FC0               	goto	u5800
  3501  07BF                     u5801:
  3502  07BF  2FC1               	goto	l4267
  3503  07C0                     u5800:
  3504                           	line	19
  3505                           	
  3506  07C0                     l10051:	
  3507                           ;SettingModeHandler.c: 19: } else if (1 == ParameterIndex) {
  3508  07C0  2FCC               	goto	l4268
  3509                           	
  3510  07C1                     l4267:	
  3511                           	
  3512  07C1                     l10053:	
  3513  07C1  0857               	movf	(_ParameterIndex),w
  3514  07C2  3A01               	xorlw	01h
  3515  07C3  1D03               	skipz
  3516  07C4  2FC6               	goto	u5811
  3517  07C5  2FC7               	goto	u5810
  3518  07C6                     u5811:
  3519  07C6  2FCC               	goto	l4269
  3520  07C7                     u5810:
  3521                           	line	20
  3522                           	
  3523  07C7                     l10055:	
  3524                           ;SettingModeHandler.c: 20: ParameterIndex = 0;
  3525  07C7  1003               	clrc
  3526  07C8  3000               	movlw	0
  3527  07C9  1803               	btfsc	status,0
  3528  07CA  3001               	movlw	1
  3529  07CB  00D7               	movwf	(_ParameterIndex)
  3530                           	line	21
  3531                           	
  3532  07CC                     l4269:	
  3533                           	line	22
  3534                           	
  3535  07CC                     l4268:	
  3536                           ;SettingModeHandler.c: 21: }
  3537                           ;SettingModeHandler.c: 22: } else if (1 == ScreenIndex) {
  3538  07CC  2FF6               	goto	l4270
  3539                           	
  3540  07CD                     l4266:	
  3541                           	
  3542  07CD                     l10057:	
  3543  07CD  0858               	movf	(_ScreenIndex),w
  3544  07CE  3A01               	xorlw	01h
  3545  07CF  1D03               	skipz
  3546  07D0  2FD2               	goto	u5821
  3547  07D1  2FD3               	goto	u5820
  3548  07D2                     u5821:
  3549  07D2  2FED               	goto	l4271
  3550  07D3                     u5820:
  3551                           	line	23
  3552                           	
  3553  07D3                     l10059:	
  3554                           ;SettingModeHandler.c: 23: if (4 == ParameterIndex) {
  3555  07D3  0857               	movf	(_ParameterIndex),w
  3556  07D4  3A04               	xorlw	04h
  3557  07D5  1D03               	skipz
  3558  07D6  2FD8               	goto	u5831
  3559  07D7  2FD9               	goto	u5830
  3560  07D8                     u5831:
  3561  07D8  2FDE               	goto	l4272
  3562  07D9                     u5830:
  3563                           	line	24
  3564                           	
  3565  07D9                     l10061:	
  3566                           ;SettingModeHandler.c: 24: ParameterIndex = 3;
  3567  07D9  3003               	movlw	(03h)
  3568  07DA  00C3               	movwf	(??_PreviousButtonHandler+0)+0
  3569  07DB  0843               	movf	(??_PreviousButtonHandler+0)+0,w
  3570  07DC  00D7               	movwf	(_ParameterIndex)
  3571                           	line	25
  3572                           ;SettingModeHandler.c: 25: } else if (3 == ParameterIndex) {
  3573  07DD  2FEC               	goto	l4273
  3574                           	
  3575  07DE                     l4272:	
  3576                           	
  3577  07DE                     l10063:	
  3578  07DE  0857               	movf	(_ParameterIndex),w
  3579  07DF  3A03               	xorlw	03h
  3580  07E0  1D03               	skipz
  3581  07E1  2FE3               	goto	u5841
  3582  07E2  2FE4               	goto	u5840
  3583  07E3                     u5841:
  3584  07E3  2FEC               	goto	l4274
  3585  07E4                     u5840:
  3586                           	line	26
  3587                           	
  3588  07E4                     l10065:	
  3589                           ;SettingModeHandler.c: 26: ScreenIndex = 0;
  3590  07E4  1003               	clrc
  3591  07E5  3000               	movlw	0
  3592  07E6  1803               	btfsc	status,0
  3593  07E7  3001               	movlw	1
  3594  07E8  00D8               	movwf	(_ScreenIndex)
  3595                           	line	27
  3596                           	
  3597  07E9                     l10067:	
  3598                           ;SettingModeHandler.c: 27: ParameterIndex = 1;
  3599  07E9  01D7               	clrf	(_ParameterIndex)
  3600  07EA  1403               	bsf	status,0
  3601  07EB  0DD7               	rlf	(_ParameterIndex),f
  3602                           	line	28
  3603                           	
  3604  07EC                     l4274:	
  3605                           	line	29
  3606                           	
  3607  07EC                     l4273:	
  3608                           ;SettingModeHandler.c: 28: }
  3609                           ;SettingModeHandler.c: 29: } else if (2 == ScreenIndex) {
  3610  07EC  2FF6               	goto	l4275
  3611                           	
  3612  07ED                     l4271:	
  3613                           	
  3614  07ED                     l10069:	
  3615  07ED  0858               	movf	(_ScreenIndex),w
  3616  07EE  3A02               	xorlw	02h
  3617  07EF  1D03               	skipz
  3618  07F0  2FF2               	goto	u5851
  3619  07F1  2FF3               	goto	u5850
  3620  07F2                     u5851:
  3621  07F2  2FF6               	goto	l4276
  3622  07F3                     u5850:
  3623                           	line	30
  3624                           	
  3625  07F3                     l10071:	
  3626                           ;SettingModeHandler.c: 30: ScreenIndex = 1;
  3627  07F3  01D8               	clrf	(_ScreenIndex)
  3628  07F4  1403               	bsf	status,0
  3629  07F5  0DD8               	rlf	(_ScreenIndex),f
  3630                           	line	32
  3631                           	
  3632  07F6                     l4276:	
  3633                           	line	33
  3634                           	
  3635  07F6                     l4275:	
  3636                           	
  3637  07F6                     l4270:	
  3638                           	
  3639  07F6                     l10073:	
  3640                           ;SettingModeHandler.c: 32: }
  3641                           ;SettingModeHandler.c: 33: UpdateScreen(1);
  3642  07F6  3001               	movlw	(01h)
  3643  07F7  120A  118A  243D   	fcall	_UpdateScreen
              120A  118A         
  3644                           	line	34
  3645                           	
  3646  07FC                     l4277:	
  3647  07FC  0008               	return
  3648                           	opt stack 0
  3649                           GLOBAL	__end_of_PreviousButtonHandler
  3650  07FD                     	__end_of_PreviousButtonHandler:
  3651 ;; =============== function _PreviousButtonHandler ends ============
  3652                           
  3653                           	signat	_PreviousButtonHandler,88
  3654                           	global	_NormalModeOperations
  3655                           psect	text1467,local,class=CODE,delta=2
  3656                           global __ptext1467
  3657  0A61                     __ptext1467:
  3658                           
  3659 ;; *************** function _NormalModeOperations *****************
  3660 ;; Defined at:
  3661 ;;		line 141 in file "EventHandler.c"
  3662 ;; Parameters:    Size  Location     Type
  3663 ;;  keyPressed      1    wreg     unsigned char 
  3664 ;; Auto vars:     Size  Location     Type
  3665 ;;  keyPressed      1   27[BANK0 ] unsigned char 
  3666 ;; Return value:  Size  Location     Type
  3667 ;;		None               void
  3668 ;; Registers used:
  3669 ;;		wreg, fsr0l, fsr0h, status,2, status,0, btemp+0, btemp+1, pclath, cstack
  3670 ;; Tracked objects:
  3671 ;;		On entry : 0/0
  3672 ;;		On exit  : 0/0
  3673 ;;		Unchanged: 0/0
  3674 ;; Data sizes:     COMMON   BANK0   BANK1   BANK3   BANK2
  3675 ;;      Params:         0       0       0       0       0
  3676 ;;      Locals:         0       1       0       0       0
  3677 ;;      Temps:          0       0       0       0       0
  3678 ;;      Totals:         0       1       0       0       0
  3679 ;;Total ram usage:        1 bytes
  3680 ;; Hardware stack levels used:    1
  3681 ;; Hardware stack levels required when called:   10
  3682 ;; This function calls:
  3683 ;;		_serveCoffee
  3684 ;;		_serveHalfQuantity
  3685 ;;		_serveHotWater
  3686 ;;		_serveTea
  3687 ;; This function is called by:
  3688 ;;		_handleEvent
  3689 ;; This function uses a non-reentrant model
  3690 ;;
  3691                           psect	text1467
  3692                           	file	"EventHandler.c"
  3693                           	line	141
  3694                           	global	__size_of_NormalModeOperations
  3695  002F                     	__size_of_NormalModeOperations	equ	__end_of_NormalModeOperations-_NormalModeOperations
  3696                           	
  3697  0A61                     _NormalModeOperations:	
  3698                           	opt	stack 5
  3699                           ; Regs used in _NormalModeOperations: [wreg-fsr0h+status,2-btemp+1+pclath+cstack]
  3700                           ;NormalModeOperations@keyPressed stored from wreg
  3701  0A61  1283               	bcf	status, 5	;RP0=0, select bank0
  3702  0A62  1303               	bcf	status, 6	;RP1=0, select bank0
  3703  0A63  00BB               	movwf	(NormalModeOperations@keyPressed)
  3704                           	line	142
  3705                           	
  3706  0A64                     l10033:	
  3707                           ;EventHandler.c: 142: switch (keyPressed) {
  3708  0A64  2A7F               	goto	l2413
  3709                           	line	143
  3710                           ;EventHandler.c: 143: case 1:
  3711                           	
  3712  0A65                     l2414:	
  3713                           	line	145
  3714                           	
  3715  0A65                     l10035:	
  3716                           ;EventHandler.c: 145: serveCoffee();
  3717  0A65  120A  158A  23EE   	fcall	_serveCoffee
              120A  158A         
  3718                           	line	146
  3719                           ;EventHandler.c: 146: break;
  3720  0A6A  2A8F               	goto	l2415
  3721                           	line	148
  3722                           ;EventHandler.c: 148: case 2:
  3723                           	
  3724  0A6B                     l2416:	
  3725                           	line	150
  3726                           	
  3727  0A6B                     l10037:	
  3728                           ;EventHandler.c: 150: serveHalfQuantity();
  3729  0A6B  120A  158A  22BF   	fcall	_serveHalfQuantity
              120A  158A         
  3730                           	line	151
  3731                           ;EventHandler.c: 151: break;
  3732  0A70  2A8F               	goto	l2415
  3733                           	line	153
  3734                           ;EventHandler.c: 153: case 3:
  3735                           	
  3736  0A71                     l2417:	
  3737                           	line	155
  3738                           	
  3739  0A71                     l10039:	
  3740                           ;EventHandler.c: 155: serveHotWater();
  3741  0A71  120A  158A  22F6   	fcall	_serveHotWater
              120A  158A         
  3742                           	line	156
  3743                           ;EventHandler.c: 156: break;
  3744  0A76  2A8F               	goto	l2415
  3745                           	line	158
  3746                           ;EventHandler.c: 158: case 4:
  3747                           	
  3748  0A77                     l2418:	
  3749                           	line	160
  3750                           	
  3751  0A77                     l10041:	
  3752                           ;EventHandler.c: 160: serveTea();
  3753  0A77  120A  158A  2509   	fcall	_serveTea
              120A  158A         
  3754                           	line	161
  3755                           ;EventHandler.c: 161: break;
  3756  0A7C  2A8F               	goto	l2415
  3757                           	line	163
  3758                           ;EventHandler.c: 163: default:
  3759                           	
  3760  0A7D                     l2419:	
  3761                           	line	166
  3762                           ;EventHandler.c: 166: break;
  3763  0A7D  2A8F               	goto	l2415
  3764                           	line	167
  3765                           	
  3766  0A7E                     l10043:	
  3767                           ;EventHandler.c: 167: }
  3768  0A7E  2A8F               	goto	l2415
  3769                           	line	142
  3770                           	
  3771  0A7F                     l2413:	
  3772                           	
  3773  0A7F                     l10045:	
  3774  0A7F  1283               	bcf	status, 5	;RP0=0, select bank0
  3775  0A80  1303               	bcf	status, 6	;RP1=0, select bank0
  3776  0A81  083B               	movf	(NormalModeOperations@keyPressed),w
  3777                           	; Switch size 1, requested type "space"
  3778                           ; Number of cases is 4, Range of values is 1 to 4
  3779                           ; switch strategies available:
  3780                           ; Name         Bytes Cycles
  3781                           ; simple_byte    13     7 (average)
  3782                           ; direct_byte    34    22 (fixed)
  3783                           ;	Chosen strategy is simple_byte
  3784                           
  3785  0A82  3A01               	xorlw	1^0	; case 1
  3786  0A83  1903               	skipnz
  3787  0A84  2A65               	goto	l2414
  3788  0A85  3A03               	xorlw	2^1	; case 2
  3789  0A86  1903               	skipnz
  3790  0A87  2A6B               	goto	l2416
  3791  0A88  3A01               	xorlw	3^2	; case 3
  3792  0A89  1903               	skipnz
  3793  0A8A  2A71               	goto	l2417
  3794  0A8B  3A07               	xorlw	4^3	; case 4
  3795  0A8C  1903               	skipnz
  3796  0A8D  2A77               	goto	l2418
  3797  0A8E  2A7D               	goto	l2419
  3798                           
  3799                           	line	167
  3800                           	
  3801  0A8F                     l2415:	
  3802                           	line	169
  3803                           	
  3804  0A8F                     l2420:	
  3805  0A8F  0008               	return
  3806                           	opt stack 0
  3807                           GLOBAL	__end_of_NormalModeOperations
  3808  0A90                     	__end_of_NormalModeOperations:
  3809 ;; =============== function _NormalModeOperations ends ============
  3810                           
  3811                           	signat	_NormalModeOperations,4216
  3812                           	global	_UpdateScreen
  3813                           psect	text1468,local,class=CODE,delta=2
  3814                           global __ptext1468
  3815  043D                     __ptext1468:
  3816                           
  3817 ;; *************** function _UpdateScreen *****************
  3818 ;; Defined at:
  3819 ;;		line 123 in file "SettingModeHandler.c"
  3820 ;; Parameters:    Size  Location     Type
  3821 ;;  Mode            1    wreg     unsigned char 
  3822 ;; Auto vars:     Size  Location     Type
  3823 ;;  Mode            1    0[COMMON] unsigned char 
  3824 ;; Return value:  Size  Location     Type
  3825 ;;		None               void
  3826 ;; Registers used:
  3827 ;;		wreg, fsr0l, fsr0h, status,2, status,0, btemp+0, btemp+1, pclath, cstack
  3828 ;; Tracked objects:
  3829 ;;		On entry : 0/0
  3830 ;;		On exit  : 0/0
  3831 ;;		Unchanged: 0/0
  3832 ;; Data sizes:     COMMON   BANK0   BANK1   BANK3   BANK2
  3833 ;;      Params:         0       0       0       0       0
  3834 ;;      Locals:         0       0       0       0       0
  3835 ;;      Temps:          0       3       0       0       0
  3836 ;;      Totals:         0       3       0       0       0
  3837 ;;Total ram usage:        3 bytes
  3838 ;; Hardware stack levels used:    1
  3839 ;; Hardware stack levels required when called:    9
  3840 ;; This function calls:
  3841 ;;		_lcd_clear
  3842 ;;		_lcd_writeThisStringAt
  3843 ;;		_lcd_writeThisDigit
  3844 ;; This function is called by:
  3845 ;;		_PreviousButtonHandler
  3846 ;;		_NextButtonHandler
  3847 ;;		_UpbuttonHandler
  3848 ;;		_DownButtonHandler
  3849 ;; This function uses a non-reentrant model
  3850 ;;
  3851                           psect	text1468
  3852                           	file	"SettingModeHandler.c"
  3853                           	line	123
  3854                           	global	__size_of_UpdateScreen
  3855  00F0                     	__size_of_UpdateScreen	equ	__end_of_UpdateScreen-_UpdateScreen
  3856                           	
  3857  043D                     _UpdateScreen:	
  3858                           	opt	stack 3
  3859                           ; Regs used in _UpdateScreen: [wreg-fsr0h+status,2-btemp+1+pclath+cstack]
  3860                           	line	124
  3861                           	
  3862  043D                     l10001:	
  3863                           ;SettingModeHandler.c: 124: lcd_clear();
  3864  043D  120A  158A  2020   	fcall	_lcd_clear
              120A  118A         
  3865                           	line	125
  3866                           	
  3867  0442                     l10003:	
  3868                           ;SettingModeHandler.c: 125: if (0 == ScreenIndex) {
  3869  0442  1283               	bcf	status, 5	;RP0=0, select bank0
  3870  0443  1303               	bcf	status, 6	;RP1=0, select bank0
  3871  0444  08D8               	movf	(_ScreenIndex),f
  3872  0445  1D03               	skipz
  3873  0446  2C48               	goto	u5721
  3874  0447  2C49               	goto	u5720
  3875  0448                     u5721:
  3876  0448  2C92               	goto	l4326
  3877  0449                     u5720:
  3878                           	line	126
  3879                           	
  3880  0449                     l10005:	
  3881                           ;SettingModeHandler.c: 126: lcd_writeThisStringAt(0, 2, "TEA SETTINGS");
  3882  0449  3002               	movlw	(02h)
  3883  044A  00C0               	movwf	(??_UpdateScreen+0)+0
  3884  044B  0840               	movf	(??_UpdateScreen+0)+0,w
  3885  044C  00B4               	movwf	(?_lcd_writeThisStringAt)
  3886  044D  309C               	movlw	((STR_10-__stringbase))&0ffh
  3887  044E  00C1               	movwf	(??_UpdateScreen+1)+0
  3888  044F  0841               	movf	(??_UpdateScreen+1)+0,w
  3889  0450  00B5               	movwf	(0+?_lcd_writeThisStringAt+01h)
  3890  0451  3000               	movlw	(0)
  3891  0452  120A  158A  207B   	fcall	_lcd_writeThisStringAt
              120A  118A         
  3892                           	line	127
  3893                           	
  3894  0457                     l10007:	
  3895                           ;SettingModeHandler.c: 127: if (0 == ParameterIndex) {
  3896  0457  1283               	bcf	status, 5	;RP0=0, select bank0
  3897  0458  1303               	bcf	status, 6	;RP1=0, select bank0
  3898  0459  08D7               	movf	(_ParameterIndex),f
  3899  045A  1D03               	skipz
  3900  045B  2C5D               	goto	u5731
  3901  045C  2C5E               	goto	u5730
  3902  045D                     u5731:
  3903  045D  2C74               	goto	l4327
  3904  045E                     u5730:
  3905                           	line	128
  3906                           	
  3907  045E                     l10009:	
  3908                           ;SettingModeHandler.c: 128: lcd_writeThisStringAt(1, 1, "T:");
  3909  045E  01B4               	clrf	(?_lcd_writeThisStringAt)
  3910  045F  1403               	bsf	status,0
  3911  0460  0DB4               	rlf	(?_lcd_writeThisStringAt),f
  3912  0461  30D2               	movlw	((STR_11-__stringbase))&0ffh
  3913  0462  00C0               	movwf	(??_UpdateScreen+0)+0
  3914  0463  0840               	movf	(??_UpdateScreen+0)+0,w
  3915  0464  00B5               	movwf	(0+?_lcd_writeThisStringAt+01h)
  3916  0465  3001               	movlw	(01h)
  3917  0466  120A  158A  207B   	fcall	_lcd_writeThisStringAt
              120A  118A         
  3918                           	line	129
  3919                           ;SettingModeHandler.c: 129: lcd_writeThisDigit(CurrentTeaQuantity);
  3920  046B  1283               	bcf	status, 5	;RP0=0, select bank0
  3921  046C  1303               	bcf	status, 6	;RP1=0, select bank0
  3922  046D  0851               	movf	(_CurrentTeaQuantity),w
  3923  046E  120A  158A  26D8   	fcall	_lcd_writeThisDigit
              120A  118A         
  3924                           	line	130
  3925                           ;SettingModeHandler.c: 130: } else if (1 == ParameterIndex) {
  3926  0473  2C92               	goto	l4328
  3927                           	
  3928  0474                     l4327:	
  3929                           	
  3930  0474                     l10011:	
  3931  0474  1283               	bcf	status, 5	;RP0=0, select bank0
  3932  0475  1303               	bcf	status, 6	;RP1=0, select bank0
  3933  0476  0857               	movf	(_ParameterIndex),w
  3934  0477  3A01               	xorlw	01h
  3935  0478  1D03               	skipz
  3936  0479  2C7B               	goto	u5741
  3937  047A  2C7C               	goto	u5740
  3938  047B                     u5741:
  3939  047B  2C92               	goto	l4329
  3940  047C                     u5740:
  3941                           	line	131
  3942                           	
  3943  047C                     l10013:	
  3944                           ;SettingModeHandler.c: 131: lcd_writeThisStringAt(1, 10, "W:");
  3945  047C  300A               	movlw	(0Ah)
  3946  047D  00C0               	movwf	(??_UpdateScreen+0)+0
  3947  047E  0840               	movf	(??_UpdateScreen+0)+0,w
  3948  047F  00B4               	movwf	(?_lcd_writeThisStringAt)
  3949  0480  30D5               	movlw	((STR_12-__stringbase))&0ffh
  3950  0481  00C1               	movwf	(??_UpdateScreen+1)+0
  3951  0482  0841               	movf	(??_UpdateScreen+1)+0,w
  3952  0483  00B5               	movwf	(0+?_lcd_writeThisStringAt+01h)
  3953  0484  3001               	movlw	(01h)
  3954  0485  120A  158A  207B   	fcall	_lcd_writeThisStringAt
              120A  118A         
  3955                           	line	132
  3956                           ;SettingModeHandler.c: 132: lcd_writeThisDigit(CurrentWaterQuantity_forTea);
  3957  048A  1283               	bcf	status, 5	;RP0=0, select bank0
  3958  048B  1303               	bcf	status, 6	;RP1=0, select bank0
  3959  048C  0853               	movf	(_CurrentWaterQuantity_forTea),w
  3960  048D  120A  158A  26D8   	fcall	_lcd_writeThisDigit
              120A  118A         
  3961                           	line	133
  3962                           	
  3963  0492                     l4329:	
  3964                           	line	134
  3965                           	
  3966  0492                     l4328:	
  3967                           	
  3968  0492                     l4326:	
  3969                           	line	135
  3970                           	
  3971  0492                     l10015:	
  3972                           ;SettingModeHandler.c: 133: }
  3973                           ;SettingModeHandler.c: 134: }
  3974                           ;SettingModeHandler.c: 135: if (1 == ScreenIndex) {
  3975  0492  1283               	bcf	status, 5	;RP0=0, select bank0
  3976  0493  1303               	bcf	status, 6	;RP1=0, select bank0
  3977  0494  0858               	movf	(_ScreenIndex),w
  3978  0495  3A01               	xorlw	01h
  3979  0496  1D03               	skipz
  3980  0497  2C99               	goto	u5751
  3981  0498  2C9A               	goto	u5750
  3982  0499                     u5751:
  3983  0499  2CE7               	goto	l4330
  3984  049A                     u5750:
  3985                           	line	136
  3986                           	
  3987  049A                     l10017:	
  3988                           ;SettingModeHandler.c: 136: lcd_writeThisStringAt(0, 0, "COFFEE SETTINGS");
  3989  049A  1003               	clrc
  3990  049B  3000               	movlw	0
  3991  049C  1803               	btfsc	status,0
  3992  049D  3001               	movlw	1
  3993  049E  00B4               	movwf	(?_lcd_writeThisStringAt)
  3994  049F  3043               	movlw	((STR_13-__stringbase))&0ffh
  3995  04A0  00C0               	movwf	(??_UpdateScreen+0)+0
  3996  04A1  0840               	movf	(??_UpdateScreen+0)+0,w
  3997  04A2  00B5               	movwf	(0+?_lcd_writeThisStringAt+01h)
  3998  04A3  3000               	movlw	(0)
  3999  04A4  120A  158A  207B   	fcall	_lcd_writeThisStringAt
              120A  118A         
  4000                           	line	137
  4001                           	
  4002  04A9                     l10019:	
  4003                           ;SettingModeHandler.c: 137: if (3 == ParameterIndex) {
  4004  04A9  1283               	bcf	status, 5	;RP0=0, select bank0
  4005  04AA  1303               	bcf	status, 6	;RP1=0, select bank0
  4006  04AB  0857               	movf	(_ParameterIndex),w
  4007  04AC  3A03               	xorlw	03h
  4008  04AD  1D03               	skipz
  4009  04AE  2CB0               	goto	u5761
  4010  04AF  2CB1               	goto	u5760
  4011  04B0                     u5761:
  4012  04B0  2CC9               	goto	l4331
  4013  04B1                     u5760:
  4014                           	line	138
  4015                           	
  4016  04B1                     l10021:	
  4017                           ;SettingModeHandler.c: 138: lcd_writeThisStringAt(1, 0, "C:");
  4018  04B1  1003               	clrc
  4019  04B2  3000               	movlw	0
  4020  04B3  1803               	btfsc	status,0
  4021  04B4  3001               	movlw	1
  4022  04B5  00B4               	movwf	(?_lcd_writeThisStringAt)
  4023  04B6  30CF               	movlw	((STR_14-__stringbase))&0ffh
  4024  04B7  00C0               	movwf	(??_UpdateScreen+0)+0
  4025  04B8  0840               	movf	(??_UpdateScreen+0)+0,w
  4026  04B9  00B5               	movwf	(0+?_lcd_writeThisStringAt+01h)
  4027  04BA  3001               	movlw	(01h)
  4028  04BB  120A  158A  207B   	fcall	_lcd_writeThisStringAt
              120A  118A         
  4029                           	line	139
  4030                           ;SettingModeHandler.c: 139: lcd_writeThisDigit(CurrentCoffeeQuantity);
  4031  04C0  1283               	bcf	status, 5	;RP0=0, select bank0
  4032  04C1  1303               	bcf	status, 6	;RP1=0, select bank0
  4033  04C2  0850               	movf	(_CurrentCoffeeQuantity),w
  4034  04C3  120A  158A  26D8   	fcall	_lcd_writeThisDigit
              120A  118A         
  4035                           	line	141
  4036                           ;SettingModeHandler.c: 141: } else if (4 == ParameterIndex) {
  4037  04C8  2CE7               	goto	l4332
  4038                           	
  4039  04C9                     l4331:	
  4040                           	
  4041  04C9                     l10023:	
  4042  04C9  1283               	bcf	status, 5	;RP0=0, select bank0
  4043  04CA  1303               	bcf	status, 6	;RP1=0, select bank0
  4044  04CB  0857               	movf	(_ParameterIndex),w
  4045  04CC  3A04               	xorlw	04h
  4046  04CD  1D03               	skipz
  4047  04CE  2CD0               	goto	u5771
  4048  04CF  2CD1               	goto	u5770
  4049  04D0                     u5771:
  4050  04D0  2CE7               	goto	l4333
  4051  04D1                     u5770:
  4052                           	line	142
  4053                           	
  4054  04D1                     l10025:	
  4055                           ;SettingModeHandler.c: 142: lcd_writeThisStringAt(1, 10, "W:");
  4056  04D1  300A               	movlw	(0Ah)
  4057  04D2  00C0               	movwf	(??_UpdateScreen+0)+0
  4058  04D3  0840               	movf	(??_UpdateScreen+0)+0,w
  4059  04D4  00B4               	movwf	(?_lcd_writeThisStringAt)
  4060  04D5  30D5               	movlw	((STR_15-__stringbase))&0ffh
  4061  04D6  00C1               	movwf	(??_UpdateScreen+1)+0
  4062  04D7  0841               	movf	(??_UpdateScreen+1)+0,w
  4063  04D8  00B5               	movwf	(0+?_lcd_writeThisStringAt+01h)
  4064  04D9  3001               	movlw	(01h)
  4065  04DA  120A  158A  207B   	fcall	_lcd_writeThisStringAt
              120A  118A         
  4066                           	line	143
  4067                           ;SettingModeHandler.c: 143: lcd_writeThisDigit(CurrentWaterQuantity_forCoffee);
  4068  04DF  1283               	bcf	status, 5	;RP0=0, select bank0
  4069  04E0  1303               	bcf	status, 6	;RP1=0, select bank0
  4070  04E1  0852               	movf	(_CurrentWaterQuantity_forCoffee),w
  4071  04E2  120A  158A  26D8   	fcall	_lcd_writeThisDigit
              120A  118A         
  4072                           	line	144
  4073                           	
  4074  04E7                     l4333:	
  4075                           	line	145
  4076                           	
  4077  04E7                     l4332:	
  4078                           	
  4079  04E7                     l4330:	
  4080                           	line	146
  4081                           	
  4082  04E7                     l10027:	
  4083                           ;SettingModeHandler.c: 144: }
  4084                           ;SettingModeHandler.c: 145: }
  4085                           ;SettingModeHandler.c: 146: if (2 == ScreenIndex) {
  4086  04E7  1283               	bcf	status, 5	;RP0=0, select bank0
  4087  04E8  1303               	bcf	status, 6	;RP1=0, select bank0
  4088  04E9  0858               	movf	(_ScreenIndex),w
  4089  04EA  3A02               	xorlw	02h
  4090  04EB  1D03               	skipz
  4091  04EC  2CEE               	goto	u5781
  4092  04ED  2CEF               	goto	u5780
  4093  04EE                     u5781:
  4094  04EE  2D1D               	goto	l4334
  4095  04EF                     u5780:
  4096                           	line	147
  4097                           	
  4098  04EF                     l10029:	
  4099                           ;SettingModeHandler.c: 147: lcd_writeThisStringAt(0, 2, "SET DEFAULTS");
  4100  04EF  3002               	movlw	(02h)
  4101  04F0  00C0               	movwf	(??_UpdateScreen+0)+0
  4102  04F1  0840               	movf	(??_UpdateScreen+0)+0,w
  4103  04F2  00B4               	movwf	(?_lcd_writeThisStringAt)
  4104  04F3  30A9               	movlw	((STR_16-__stringbase))&0ffh
  4105  04F4  00C1               	movwf	(??_UpdateScreen+1)+0
  4106  04F5  0841               	movf	(??_UpdateScreen+1)+0,w
  4107  04F6  00B5               	movwf	(0+?_lcd_writeThisStringAt+01h)
  4108  04F7  3000               	movlw	(0)
  4109  04F8  120A  158A  207B   	fcall	_lcd_writeThisStringAt
              120A  118A         
  4110                           	line	148
  4111                           ;SettingModeHandler.c: 148: lcd_writeThisStringAt(1, 2, "YES");
  4112  04FD  3002               	movlw	(02h)
  4113  04FE  1283               	bcf	status, 5	;RP0=0, select bank0
  4114  04FF  1303               	bcf	status, 6	;RP1=0, select bank0
  4115  0500  00C0               	movwf	(??_UpdateScreen+0)+0
  4116  0501  0840               	movf	(??_UpdateScreen+0)+0,w
  4117  0502  00B4               	movwf	(?_lcd_writeThisStringAt)
  4118  0503  30CB               	movlw	((STR_17-__stringbase))&0ffh
  4119  0504  00C1               	movwf	(??_UpdateScreen+1)+0
  4120  0505  0841               	movf	(??_UpdateScreen+1)+0,w
  4121  0506  00B5               	movwf	(0+?_lcd_writeThisStringAt+01h)
  4122  0507  3001               	movlw	(01h)
  4123  0508  120A  158A  207B   	fcall	_lcd_writeThisStringAt
              120A  118A         
  4124                           	line	149
  4125                           ;SettingModeHandler.c: 149: lcd_writeThisStringAt(1, 10, "NO");
  4126  050D  300A               	movlw	(0Ah)
  4127  050E  1283               	bcf	status, 5	;RP0=0, select bank0
  4128  050F  1303               	bcf	status, 6	;RP1=0, select bank0
  4129  0510  00C0               	movwf	(??_UpdateScreen+0)+0
  4130  0511  0840               	movf	(??_UpdateScreen+0)+0,w
  4131  0512  00B4               	movwf	(?_lcd_writeThisStringAt)
  4132  0513  30D8               	movlw	((STR_18-__stringbase))&0ffh
  4133  0514  00C1               	movwf	(??_UpdateScreen+1)+0
  4134  0515  0841               	movf	(??_UpdateScreen+1)+0,w
  4135  0516  00B5               	movwf	(0+?_lcd_writeThisStringAt+01h)
  4136  0517  3001               	movlw	(01h)
  4137  0518  120A  158A  207B   	fcall	_lcd_writeThisStringAt
              120A  118A         
  4138                           	line	150
  4139                           	
  4140  051D                     l4334:	
  4141                           	line	152
  4142                           	
  4143  051D                     l10031:	
  4144                           ;SettingModeHandler.c: 150: }
  4145                           ;SettingModeHandler.c: 152: _delay((unsigned long)((3000)*(20000000/4000.0)));
  4146                           	opt asmopt_off
  4147  051D  304C               movlw  76
  4148  051E  1283               	bcf	status, 5	;RP0=0, select bank0
  4149  051F  1303               	bcf	status, 6	;RP1=0, select bank0
  4150  0520  00C2               movwf	((??_UpdateScreen+0)+0+2),f
  4151  0521  30CE               movlw	206
  4152  0522  00C1               movwf	((??_UpdateScreen+0)+0+1),f
  4153  0523  3081               	movlw	129
  4154  0524  00C0               movwf	((??_UpdateScreen+0)+0),f
  4155  0525                     u6427:
  4156  0525  0BC0               	decfsz	((??_UpdateScreen+0)+0),f
  4157  0526  2D25               	goto	u6427
  4158  0527  0BC1               	decfsz	((??_UpdateScreen+0)+0+1),f
  4159  0528  2D25               	goto	u6427
  4160  0529  0BC2               	decfsz	((??_UpdateScreen+0)+0+2),f
  4161  052A  2D25               	goto	u6427
  4162  052B  0064               	clrwdt
  4163                           opt asmopt_on
  4164                           
  4165                           	line	153
  4166                           	
  4167  052C                     l4335:	
  4168  052C  0008               	return
  4169                           	opt stack 0
  4170                           GLOBAL	__end_of_UpdateScreen
  4171  052D                     	__end_of_UpdateScreen:
  4172 ;; =============== function _UpdateScreen ends ============
  4173                           
  4174                           	signat	_UpdateScreen,4216
  4175                           	global	_default_bootSequence
  4176                           psect	text1469,local,class=CODE,delta=2
  4177                           global __ptext1469
  4178  08EA                     __ptext1469:
  4179                           
  4180 ;; *************** function _default_bootSequence *****************
  4181 ;; Defined at:
  4182 ;;		line 81 in file "MainCode.c"
  4183 ;; Parameters:    Size  Location     Type
  4184 ;;		None
  4185 ;; Auto vars:     Size  Location     Type
  4186 ;;		None
  4187 ;; Return value:  Size  Location     Type
  4188 ;;		None               void
  4189 ;; Registers used:
  4190 ;;		wreg, fsr0l, fsr0h, status,2, status,0, btemp+0, btemp+1, pclath, cstack
  4191 ;; Tracked objects:
  4192 ;;		On entry : 0/0
  4193 ;;		On exit  : 0/0
  4194 ;;		Unchanged: 0/0
  4195 ;; Data sizes:     COMMON   BANK0   BANK1   BANK3   BANK2
  4196 ;;      Params:         0       0       0       0       0
  4197 ;;      Locals:         0       0       0       0       0
  4198 ;;      Temps:          0       3       0       0       0
  4199 ;;      Totals:         0       3       0       0       0
  4200 ;;Total ram usage:        3 bytes
  4201 ;; Hardware stack levels used:    1
  4202 ;; Hardware stack levels required when called:    9
  4203 ;; This function calls:
  4204 ;;		_lcd_writeThisStringAt
  4205 ;; This function is called by:
  4206 ;;		_main
  4207 ;; This function uses a non-reentrant model
  4208 ;;
  4209                           psect	text1469
  4210                           	file	"MainCode.c"
  4211                           	line	81
  4212                           	global	__size_of_default_bootSequence
  4213  0020                     	__size_of_default_bootSequence	equ	__end_of_default_bootSequence-_default_bootSequence
  4214                           	
  4215  08EA                     _default_bootSequence:	
  4216                           	opt	stack 7
  4217                           ; Regs used in _default_bootSequence: [wreg-fsr0h+status,2-btemp+1+pclath+cstack]
  4218                           	line	82
  4219                           	
  4220  08EA                     l9997:	
  4221                           ;MainCode.c: 82: lcd_writeThisStringAt(0, 0, "Starting....");
  4222  08EA  1003               	clrc
  4223  08EB  3000               	movlw	0
  4224  08EC  1803               	btfsc	status,0
  4225  08ED  3001               	movlw	1
  4226  08EE  1283               	bcf	status, 5	;RP0=0, select bank0
  4227  08EF  1303               	bcf	status, 6	;RP1=0, select bank0
  4228  08F0  00B4               	movwf	(?_lcd_writeThisStringAt)
  4229  08F1  30B6               	movlw	((STR_5-__stringbase))&0ffh
  4230  08F2  00B8               	movwf	(??_default_bootSequence+0)+0
  4231  08F3  0838               	movf	(??_default_bootSequence+0)+0,w
  4232  08F4  00B5               	movwf	(0+?_lcd_writeThisStringAt+01h)
  4233  08F5  3000               	movlw	(0)
  4234  08F6  120A  158A  207B   	fcall	_lcd_writeThisStringAt
              120A  158A         
  4235                           	line	83
  4236                           	
  4237  08FB                     l9999:	
  4238                           ;MainCode.c: 83: _delay((unsigned long)((1000)*(20000000/4000.0)));
  4239                           	opt asmopt_off
  4240  08FB  301A               movlw  26
  4241  08FC  1283               	bcf	status, 5	;RP0=0, select bank0
  4242  08FD  1303               	bcf	status, 6	;RP1=0, select bank0
  4243  08FE  00BA               movwf	((??_default_bootSequence+0)+0+2),f
  4244  08FF  3045               movlw	69
  4245  0900  00B9               movwf	((??_default_bootSequence+0)+0+1),f
  4246  0901  307E               	movlw	126
  4247  0902  00B8               movwf	((??_default_bootSequence+0)+0),f
  4248  0903                     u6437:
  4249  0903  0BB8               	decfsz	((??_default_bootSequence+0)+0),f
  4250  0904  2903               	goto	u6437
  4251  0905  0BB9               	decfsz	((??_default_bootSequence+0)+0+1),f
  4252  0906  2903               	goto	u6437
  4253  0907  0BBA               	decfsz	((??_default_bootSequence+0)+0+2),f
  4254  0908  2903               	goto	u6437
  4255                           opt asmopt_on
  4256                           
  4257                           	line	84
  4258                           	
  4259  0909                     l3040:	
  4260  0909  0008               	return
  4261                           	opt stack 0
  4262                           GLOBAL	__end_of_default_bootSequence
  4263  090A                     	__end_of_default_bootSequence:
  4264 ;; =============== function _default_bootSequence ends ============
  4265                           
  4266                           	signat	_default_bootSequence,88
  4267                           	global	_serveTea
  4268                           psect	text1470,local,class=CODE,delta=2
  4269                           global __ptext1470
  4270  0D09                     __ptext1470:
  4271                           
  4272 ;; *************** function _serveTea *****************
  4273 ;; Defined at:
  4274 ;;		line 32 in file "serveMethods.c"
  4275 ;; Parameters:    Size  Location     Type
  4276 ;;		None
  4277 ;; Auto vars:     Size  Location     Type
  4278 ;;		None
  4279 ;; Return value:  Size  Location     Type
  4280 ;;		None               void
  4281 ;; Registers used:
  4282 ;;		wreg, fsr0l, fsr0h, status,2, status,0, btemp+0, btemp+1, pclath, cstack
  4283 ;; Tracked objects:
  4284 ;;		On entry : 0/0
  4285 ;;		On exit  : 0/0
  4286 ;;		Unchanged: 0/0
  4287 ;; Data sizes:     COMMON   BANK0   BANK1   BANK3   BANK2
  4288 ;;      Params:         0       0       0       0       0
  4289 ;;      Locals:         0       0       0       0       0
  4290 ;;      Temps:          0       3       0       0       0
  4291 ;;      Totals:         0       3       0       0       0
  4292 ;;Total ram usage:        3 bytes
  4293 ;; Hardware stack levels used:    1
  4294 ;; Hardware stack levels required when called:    9
  4295 ;; This function calls:
  4296 ;;		_lcd_writeThisStringAt
  4297 ;;		_lcd_clear
  4298 ;; This function is called by:
  4299 ;;		_NormalModeOperations
  4300 ;; This function uses a non-reentrant model
  4301 ;;
  4302                           psect	text1470
  4303                           	file	"serveMethods.c"
  4304                           	line	32
  4305                           	global	__size_of_serveTea
  4306  0067                     	__size_of_serveTea	equ	__end_of_serveTea-_serveTea
  4307                           	
  4308  0D09                     _serveTea:	
  4309                           	opt	stack 4
  4310                           ; Regs used in _serveTea: [wreg-fsr0h+status,2-btemp+1+pclath+cstack]
  4311                           	line	33
  4312                           	
  4313  0D09                     l9967:	
  4314                           ;serveMethods.c: 33: lcd_writeThisStringAt(0, 0, "Serving Tea..");
  4315  0D09  1003               	clrc
  4316  0D0A  3000               	movlw	0
  4317  0D0B  1803               	btfsc	status,0
  4318  0D0C  3001               	movlw	1
  4319  0D0D  1283               	bcf	status, 5	;RP0=0, select bank0
  4320  0D0E  1303               	bcf	status, 6	;RP1=0, select bank0
  4321  0D0F  00B4               	movwf	(?_lcd_writeThisStringAt)
  4322  0D10  3080               	movlw	((STR_21-__stringbase))&0ffh
  4323  0D11  00B8               	movwf	(??_serveTea+0)+0
  4324  0D12  0838               	movf	(??_serveTea+0)+0,w
  4325  0D13  00B5               	movwf	(0+?_lcd_writeThisStringAt+01h)
  4326  0D14  3000               	movlw	(0)
  4327  0D15  120A  158A  207B   	fcall	_lcd_writeThisStringAt
              120A  158A         
  4328                           	line	34
  4329                           	
  4330  0D1A                     l9969:	
  4331                           ;serveMethods.c: 34: _delay((unsigned long)((1000)*(20000000/4000.0)));
  4332                           	opt asmopt_off
  4333  0D1A  301A               movlw  26
  4334  0D1B  1283               	bcf	status, 5	;RP0=0, select bank0
  4335  0D1C  1303               	bcf	status, 6	;RP1=0, select bank0
  4336  0D1D  00BA               movwf	((??_serveTea+0)+0+2),f
  4337  0D1E  3045               movlw	69
  4338  0D1F  00B9               movwf	((??_serveTea+0)+0+1),f
  4339  0D20  307E               	movlw	126
  4340  0D21  00B8               movwf	((??_serveTea+0)+0),f
  4341  0D22                     u6447:
  4342  0D22  0BB8               	decfsz	((??_serveTea+0)+0),f
  4343  0D23  2D22               	goto	u6447
  4344  0D24  0BB9               	decfsz	((??_serveTea+0)+0+1),f
  4345  0D25  2D22               	goto	u6447
  4346  0D26  0BBA               	decfsz	((??_serveTea+0)+0+2),f
  4347  0D27  2D22               	goto	u6447
  4348                           opt asmopt_on
  4349                           
  4350                           	line	36
  4351                           	
  4352  0D28                     l9971:	
  4353                           ;serveMethods.c: 36: RB7 = 1;
  4354  0D28  1283               	bcf	status, 5	;RP0=0, select bank0
  4355  0D29  1303               	bcf	status, 6	;RP1=0, select bank0
  4356  0D2A  1786               	bsf	(55/8),(55)&7
  4357                           	line	37
  4358                           	
  4359  0D2B                     l9973:	
  4360                           ;serveMethods.c: 37: _delay((unsigned long)((200)*(20000000/4000.0)));
  4361                           	opt asmopt_off
  4362  0D2B  3006               movlw  6
  4363  0D2C  00BA               movwf	((??_serveTea+0)+0+2),f
  4364  0D2D  300E               movlw	14
  4365  0D2E  00B9               movwf	((??_serveTea+0)+0+1),f
  4366  0D2F  30B0               	movlw	176
  4367  0D30  00B8               movwf	((??_serveTea+0)+0),f
  4368  0D31                     u6457:
  4369  0D31  0BB8               	decfsz	((??_serveTea+0)+0),f
  4370  0D32  2D31               	goto	u6457
  4371  0D33  0BB9               	decfsz	((??_serveTea+0)+0+1),f
  4372  0D34  2D31               	goto	u6457
  4373  0D35  0BBA               	decfsz	((??_serveTea+0)+0+2),f
  4374  0D36  2D31               	goto	u6457
  4375                           opt asmopt_on
  4376                           
  4377                           	line	38
  4378                           	
  4379  0D37                     l9975:	
  4380                           ;serveMethods.c: 38: RB7 = 0;
  4381  0D37  1283               	bcf	status, 5	;RP0=0, select bank0
  4382  0D38  1303               	bcf	status, 6	;RP1=0, select bank0
  4383  0D39  1386               	bcf	(55/8),(55)&7
  4384                           	line	39
  4385                           	
  4386  0D3A                     l9977:	
  4387                           ;serveMethods.c: 39: RB6 = 1;
  4388  0D3A  1706               	bsf	(54/8),(54)&7
  4389                           	line	40
  4390                           	
  4391  0D3B                     l9979:	
  4392                           ;serveMethods.c: 40: _delay((unsigned long)((200)*(20000000/4000.0)));
  4393                           	opt asmopt_off
  4394  0D3B  3006               movlw  6
  4395  0D3C  00BA               movwf	((??_serveTea+0)+0+2),f
  4396  0D3D  300E               movlw	14
  4397  0D3E  00B9               movwf	((??_serveTea+0)+0+1),f
  4398  0D3F  30B0               	movlw	176
  4399  0D40  00B8               movwf	((??_serveTea+0)+0),f
  4400  0D41                     u6467:
  4401  0D41  0BB8               	decfsz	((??_serveTea+0)+0),f
  4402  0D42  2D41               	goto	u6467
  4403  0D43  0BB9               	decfsz	((??_serveTea+0)+0+1),f
  4404  0D44  2D41               	goto	u6467
  4405  0D45  0BBA               	decfsz	((??_serveTea+0)+0+2),f
  4406  0D46  2D41               	goto	u6467
  4407                           opt asmopt_on
  4408                           
  4409                           	line	41
  4410                           	
  4411  0D47                     l9981:	
  4412                           ;serveMethods.c: 41: RB6 = 0;
  4413  0D47  1283               	bcf	status, 5	;RP0=0, select bank0
  4414  0D48  1303               	bcf	status, 6	;RP1=0, select bank0
  4415  0D49  1306               	bcf	(54/8),(54)&7
  4416                           	line	42
  4417                           	
  4418  0D4A                     l9983:	
  4419                           ;serveMethods.c: 42: RB5 = 1;
  4420  0D4A  1686               	bsf	(53/8),(53)&7
  4421                           	line	43
  4422                           	
  4423  0D4B                     l9985:	
  4424                           ;serveMethods.c: 43: _delay((unsigned long)((200)*(20000000/4000.0)));
  4425                           	opt asmopt_off
  4426  0D4B  3006               movlw  6
  4427  0D4C  00BA               movwf	((??_serveTea+0)+0+2),f
  4428  0D4D  300E               movlw	14
  4429  0D4E  00B9               movwf	((??_serveTea+0)+0+1),f
  4430  0D4F  30B0               	movlw	176
  4431  0D50  00B8               movwf	((??_serveTea+0)+0),f
  4432  0D51                     u6477:
  4433  0D51  0BB8               	decfsz	((??_serveTea+0)+0),f
  4434  0D52  2D51               	goto	u6477
  4435  0D53  0BB9               	decfsz	((??_serveTea+0)+0+1),f
  4436  0D54  2D51               	goto	u6477
  4437  0D55  0BBA               	decfsz	((??_serveTea+0)+0+2),f
  4438  0D56  2D51               	goto	u6477
  4439                           opt asmopt_on
  4440                           
  4441                           	line	44
  4442                           	
  4443  0D57                     l9987:	
  4444                           ;serveMethods.c: 44: RB5 = 0;
  4445  0D57  1283               	bcf	status, 5	;RP0=0, select bank0
  4446  0D58  1303               	bcf	status, 6	;RP1=0, select bank0
  4447  0D59  1286               	bcf	(53/8),(53)&7
  4448                           	line	45
  4449                           	
  4450  0D5A                     l9989:	
  4451                           ;serveMethods.c: 45: RB4 = 1;
  4452  0D5A  1606               	bsf	(52/8),(52)&7
  4453                           	line	46
  4454                           	
  4455  0D5B                     l9991:	
  4456                           ;serveMethods.c: 46: _delay((unsigned long)((200)*(20000000/4000.0)));
  4457                           	opt asmopt_off
  4458  0D5B  3006               movlw  6
  4459  0D5C  00BA               movwf	((??_serveTea+0)+0+2),f
  4460  0D5D  300E               movlw	14
  4461  0D5E  00B9               movwf	((??_serveTea+0)+0+1),f
  4462  0D5F  30B0               	movlw	176
  4463  0D60  00B8               movwf	((??_serveTea+0)+0),f
  4464  0D61                     u6487:
  4465  0D61  0BB8               	decfsz	((??_serveTea+0)+0),f
  4466  0D62  2D61               	goto	u6487
  4467  0D63  0BB9               	decfsz	((??_serveTea+0)+0+1),f
  4468  0D64  2D61               	goto	u6487
  4469  0D65  0BBA               	decfsz	((??_serveTea+0)+0+2),f
  4470  0D66  2D61               	goto	u6487
  4471                           opt asmopt_on
  4472                           
  4473                           	line	47
  4474                           	
  4475  0D67                     l9993:	
  4476                           ;serveMethods.c: 47: RB4 = 0;
  4477  0D67  1283               	bcf	status, 5	;RP0=0, select bank0
  4478  0D68  1303               	bcf	status, 6	;RP1=0, select bank0
  4479  0D69  1206               	bcf	(52/8),(52)&7
  4480                           	line	49
  4481                           	
  4482  0D6A                     l9995:	
  4483                           ;serveMethods.c: 49: lcd_clear();
  4484  0D6A  120A  158A  2020   	fcall	_lcd_clear
              120A  158A         
  4485                           	line	50
  4486                           	
  4487  0D6F                     l5530:	
  4488  0D6F  0008               	return
  4489                           	opt stack 0
  4490                           GLOBAL	__end_of_serveTea
  4491  0D70                     	__end_of_serveTea:
  4492 ;; =============== function _serveTea ends ============
  4493                           
  4494                           	signat	_serveTea,88
  4495                           	global	_serveHotWater
  4496                           psect	text1471,local,class=CODE,delta=2
  4497                           global __ptext1471
  4498  0AF6                     __ptext1471:
  4499                           
  4500 ;; *************** function _serveHotWater *****************
  4501 ;; Defined at:
  4502 ;;		line 52 in file "serveMethods.c"
  4503 ;; Parameters:    Size  Location     Type
  4504 ;;		None
  4505 ;; Auto vars:     Size  Location     Type
  4506 ;;		None
  4507 ;; Return value:  Size  Location     Type
  4508 ;;		None               void
  4509 ;; Registers used:
  4510 ;;		wreg, fsr0l, fsr0h, status,2, status,0, btemp+0, btemp+1, pclath, cstack
  4511 ;; Tracked objects:
  4512 ;;		On entry : 0/0
  4513 ;;		On exit  : 0/0
  4514 ;;		Unchanged: 0/0
  4515 ;; Data sizes:     COMMON   BANK0   BANK1   BANK3   BANK2
  4516 ;;      Params:         0       0       0       0       0
  4517 ;;      Locals:         0       0       0       0       0
  4518 ;;      Temps:          0       3       0       0       0
  4519 ;;      Totals:         0       3       0       0       0
  4520 ;;Total ram usage:        3 bytes
  4521 ;; Hardware stack levels used:    1
  4522 ;; Hardware stack levels required when called:    9
  4523 ;; This function calls:
  4524 ;;		_lcd_writeThisStringAt
  4525 ;;		_lcd_clear
  4526 ;; This function is called by:
  4527 ;;		_NormalModeOperations
  4528 ;; This function uses a non-reentrant model
  4529 ;;
  4530                           psect	text1471
  4531                           	file	"serveMethods.c"
  4532                           	line	52
  4533                           	global	__size_of_serveHotWater
  4534  0037                     	__size_of_serveHotWater	equ	__end_of_serveHotWater-_serveHotWater
  4535                           	
  4536  0AF6                     _serveHotWater:	
  4537                           	opt	stack 4
  4538                           ; Regs used in _serveHotWater: [wreg-fsr0h+status,2-btemp+1+pclath+cstack]
  4539                           	line	53
  4540                           	
  4541  0AF6                     l9955:	
  4542                           ;serveMethods.c: 53: lcd_writeThisStringAt(0, 0, "Serving Water..");
  4543  0AF6  1003               	clrc
  4544  0AF7  3000               	movlw	0
  4545  0AF8  1803               	btfsc	status,0
  4546  0AF9  3001               	movlw	1
  4547  0AFA  1283               	bcf	status, 5	;RP0=0, select bank0
  4548  0AFB  1303               	bcf	status, 6	;RP1=0, select bank0
  4549  0AFC  00B4               	movwf	(?_lcd_writeThisStringAt)
  4550  0AFD  3023               	movlw	((STR_22-__stringbase))&0ffh
  4551  0AFE  00B8               	movwf	(??_serveHotWater+0)+0
  4552  0AFF  0838               	movf	(??_serveHotWater+0)+0,w
  4553  0B00  00B5               	movwf	(0+?_lcd_writeThisStringAt+01h)
  4554  0B01  3000               	movlw	(0)
  4555  0B02  120A  158A  207B   	fcall	_lcd_writeThisStringAt
              120A  158A         
  4556                           	line	54
  4557                           	
  4558  0B07                     l9957:	
  4559                           ;serveMethods.c: 54: _delay((unsigned long)((1000)*(20000000/4000.0)));
  4560                           	opt asmopt_off
  4561  0B07  301A               movlw  26
  4562  0B08  1283               	bcf	status, 5	;RP0=0, select bank0
  4563  0B09  1303               	bcf	status, 6	;RP1=0, select bank0
  4564  0B0A  00BA               movwf	((??_serveHotWater+0)+0+2),f
  4565  0B0B  3045               movlw	69
  4566  0B0C  00B9               movwf	((??_serveHotWater+0)+0+1),f
  4567  0B0D  307E               	movlw	126
  4568  0B0E  00B8               movwf	((??_serveHotWater+0)+0),f
  4569  0B0F                     u6497:
  4570  0B0F  0BB8               	decfsz	((??_serveHotWater+0)+0),f
  4571  0B10  2B0F               	goto	u6497
  4572  0B11  0BB9               	decfsz	((??_serveHotWater+0)+0+1),f
  4573  0B12  2B0F               	goto	u6497
  4574  0B13  0BBA               	decfsz	((??_serveHotWater+0)+0+2),f
  4575  0B14  2B0F               	goto	u6497
  4576                           opt asmopt_on
  4577                           
  4578                           	line	55
  4579                           	
  4580  0B15                     l9959:	
  4581                           ;serveMethods.c: 55: RB4 = 1;
  4582  0B15  1283               	bcf	status, 5	;RP0=0, select bank0
  4583  0B16  1303               	bcf	status, 6	;RP1=0, select bank0
  4584  0B17  1606               	bsf	(52/8),(52)&7
  4585                           	line	56
  4586                           	
  4587  0B18                     l9961:	
  4588                           ;serveMethods.c: 56: _delay((unsigned long)((200)*(20000000/4000.0)));
  4589                           	opt asmopt_off
  4590  0B18  3006               movlw  6
  4591  0B19  00BA               movwf	((??_serveHotWater+0)+0+2),f
  4592  0B1A  300E               movlw	14
  4593  0B1B  00B9               movwf	((??_serveHotWater+0)+0+1),f
  4594  0B1C  30B0               	movlw	176
  4595  0B1D  00B8               movwf	((??_serveHotWater+0)+0),f
  4596  0B1E                     u6507:
  4597  0B1E  0BB8               	decfsz	((??_serveHotWater+0)+0),f
  4598  0B1F  2B1E               	goto	u6507
  4599  0B20  0BB9               	decfsz	((??_serveHotWater+0)+0+1),f
  4600  0B21  2B1E               	goto	u6507
  4601  0B22  0BBA               	decfsz	((??_serveHotWater+0)+0+2),f
  4602  0B23  2B1E               	goto	u6507
  4603                           opt asmopt_on
  4604                           
  4605                           	line	57
  4606                           	
  4607  0B24                     l9963:	
  4608                           ;serveMethods.c: 57: RB4 = 0;
  4609  0B24  1283               	bcf	status, 5	;RP0=0, select bank0
  4610  0B25  1303               	bcf	status, 6	;RP1=0, select bank0
  4611  0B26  1206               	bcf	(52/8),(52)&7
  4612                           	line	58
  4613                           	
  4614  0B27                     l9965:	
  4615                           ;serveMethods.c: 58: lcd_clear();
  4616  0B27  120A  158A  2020   	fcall	_lcd_clear
              120A  158A         
  4617                           	line	59
  4618                           	
  4619  0B2C                     l5533:	
  4620  0B2C  0008               	return
  4621                           	opt stack 0
  4622                           GLOBAL	__end_of_serveHotWater
  4623  0B2D                     	__end_of_serveHotWater:
  4624 ;; =============== function _serveHotWater ends ============
  4625                           
  4626                           	signat	_serveHotWater,88
  4627                           	global	_serveHalfQuantity
  4628                           psect	text1472,local,class=CODE,delta=2
  4629                           global __ptext1472
  4630  0ABF                     __ptext1472:
  4631                           
  4632 ;; *************** function _serveHalfQuantity *****************
  4633 ;; Defined at:
  4634 ;;		line 23 in file "serveMethods.c"
  4635 ;; Parameters:    Size  Location     Type
  4636 ;;		None
  4637 ;; Auto vars:     Size  Location     Type
  4638 ;;		None
  4639 ;; Return value:  Size  Location     Type
  4640 ;;		None               void
  4641 ;; Registers used:
  4642 ;;		wreg, fsr0l, fsr0h, status,2, status,0, btemp+0, btemp+1, pclath, cstack
  4643 ;; Tracked objects:
  4644 ;;		On entry : 0/0
  4645 ;;		On exit  : 0/0
  4646 ;;		Unchanged: 0/0
  4647 ;; Data sizes:     COMMON   BANK0   BANK1   BANK3   BANK2
  4648 ;;      Params:         0       0       0       0       0
  4649 ;;      Locals:         0       0       0       0       0
  4650 ;;      Temps:          0       3       0       0       0
  4651 ;;      Totals:         0       3       0       0       0
  4652 ;;Total ram usage:        3 bytes
  4653 ;; Hardware stack levels used:    1
  4654 ;; Hardware stack levels required when called:    9
  4655 ;; This function calls:
  4656 ;;		_lcd_writeThisStringAt
  4657 ;;		_lcd_clear
  4658 ;; This function is called by:
  4659 ;;		_NormalModeOperations
  4660 ;; This function uses a non-reentrant model
  4661 ;;
  4662                           psect	text1472
  4663                           	file	"serveMethods.c"
  4664                           	line	23
  4665                           	global	__size_of_serveHalfQuantity
  4666  0037                     	__size_of_serveHalfQuantity	equ	__end_of_serveHalfQuantity-_serveHalfQuantity
  4667                           	
  4668  0ABF                     _serveHalfQuantity:	
  4669                           	opt	stack 4
  4670                           ; Regs used in _serveHalfQuantity: [wreg-fsr0h+status,2-btemp+1+pclath+cstack]
  4671                           	line	24
  4672                           	
  4673  0ABF                     l9943:	
  4674                           ;serveMethods.c: 24: lcd_writeThisStringAt(0, 0, "Serving Half..");
  4675  0ABF  1003               	clrc
  4676  0AC0  3000               	movlw	0
  4677  0AC1  1803               	btfsc	status,0
  4678  0AC2  3001               	movlw	1
  4679  0AC3  1283               	bcf	status, 5	;RP0=0, select bank0
  4680  0AC4  1303               	bcf	status, 6	;RP1=0, select bank0
  4681  0AC5  00B4               	movwf	(?_lcd_writeThisStringAt)
  4682  0AC6  3053               	movlw	((STR_20-__stringbase))&0ffh
  4683  0AC7  00B8               	movwf	(??_serveHalfQuantity+0)+0
  4684  0AC8  0838               	movf	(??_serveHalfQuantity+0)+0,w
  4685  0AC9  00B5               	movwf	(0+?_lcd_writeThisStringAt+01h)
  4686  0ACA  3000               	movlw	(0)
  4687  0ACB  120A  158A  207B   	fcall	_lcd_writeThisStringAt
              120A  158A         
  4688                           	line	25
  4689                           	
  4690  0AD0                     l9945:	
  4691                           ;serveMethods.c: 25: _delay((unsigned long)((1000)*(20000000/4000.0)));
  4692                           	opt asmopt_off
  4693  0AD0  301A               movlw  26
  4694  0AD1  1283               	bcf	status, 5	;RP0=0, select bank0
  4695  0AD2  1303               	bcf	status, 6	;RP1=0, select bank0
  4696  0AD3  00BA               movwf	((??_serveHalfQuantity+0)+0+2),f
  4697  0AD4  3045               movlw	69
  4698  0AD5  00B9               movwf	((??_serveHalfQuantity+0)+0+1),f
  4699  0AD6  307E               	movlw	126
  4700  0AD7  00B8               movwf	((??_serveHalfQuantity+0)+0),f
  4701  0AD8                     u6517:
  4702  0AD8  0BB8               	decfsz	((??_serveHalfQuantity+0)+0),f
  4703  0AD9  2AD8               	goto	u6517
  4704  0ADA  0BB9               	decfsz	((??_serveHalfQuantity+0)+0+1),f
  4705  0ADB  2AD8               	goto	u6517
  4706  0ADC  0BBA               	decfsz	((??_serveHalfQuantity+0)+0+2),f
  4707  0ADD  2AD8               	goto	u6517
  4708                           opt asmopt_on
  4709                           
  4710                           	line	26
  4711                           	
  4712  0ADE                     l9947:	
  4713                           ;serveMethods.c: 26: RB4 = 1;
  4714  0ADE  1283               	bcf	status, 5	;RP0=0, select bank0
  4715  0ADF  1303               	bcf	status, 6	;RP1=0, select bank0
  4716  0AE0  1606               	bsf	(52/8),(52)&7
  4717                           	line	27
  4718                           	
  4719  0AE1                     l9949:	
  4720                           ;serveMethods.c: 27: _delay((unsigned long)((200)*(20000000/4000.0)));
  4721                           	opt asmopt_off
  4722  0AE1  3006               movlw  6
  4723  0AE2  00BA               movwf	((??_serveHalfQuantity+0)+0+2),f
  4724  0AE3  300E               movlw	14
  4725  0AE4  00B9               movwf	((??_serveHalfQuantity+0)+0+1),f
  4726  0AE5  30B0               	movlw	176
  4727  0AE6  00B8               movwf	((??_serveHalfQuantity+0)+0),f
  4728  0AE7                     u6527:
  4729  0AE7  0BB8               	decfsz	((??_serveHalfQuantity+0)+0),f
  4730  0AE8  2AE7               	goto	u6527
  4731  0AE9  0BB9               	decfsz	((??_serveHalfQuantity+0)+0+1),f
  4732  0AEA  2AE7               	goto	u6527
  4733  0AEB  0BBA               	decfsz	((??_serveHalfQuantity+0)+0+2),f
  4734  0AEC  2AE7               	goto	u6527
  4735                           opt asmopt_on
  4736                           
  4737                           	line	28
  4738                           	
  4739  0AED                     l9951:	
  4740                           ;serveMethods.c: 28: RB4 = 0;
  4741  0AED  1283               	bcf	status, 5	;RP0=0, select bank0
  4742  0AEE  1303               	bcf	status, 6	;RP1=0, select bank0
  4743  0AEF  1206               	bcf	(52/8),(52)&7
  4744                           	line	29
  4745                           	
  4746  0AF0                     l9953:	
  4747                           ;serveMethods.c: 29: lcd_clear();
  4748  0AF0  120A  158A  2020   	fcall	_lcd_clear
              120A  158A         
  4749                           	line	30
  4750                           	
  4751  0AF5                     l5527:	
  4752  0AF5  0008               	return
  4753                           	opt stack 0
  4754                           GLOBAL	__end_of_serveHalfQuantity
  4755  0AF6                     	__end_of_serveHalfQuantity:
  4756 ;; =============== function _serveHalfQuantity ends ============
  4757                           
  4758                           	signat	_serveHalfQuantity,88
  4759                           	global	_serveCoffee
  4760                           psect	text1473,local,class=CODE,delta=2
  4761                           global __ptext1473
  4762  0BEE                     __ptext1473:
  4763                           
  4764 ;; *************** function _serveCoffee *****************
  4765 ;; Defined at:
  4766 ;;		line 3 in file "serveMethods.c"
  4767 ;; Parameters:    Size  Location     Type
  4768 ;;		None
  4769 ;; Auto vars:     Size  Location     Type
  4770 ;;		None
  4771 ;; Return value:  Size  Location     Type
  4772 ;;		None               void
  4773 ;; Registers used:
  4774 ;;		wreg, fsr0l, fsr0h, status,2, status,0, btemp+0, btemp+1, pclath, cstack
  4775 ;; Tracked objects:
  4776 ;;		On entry : 0/0
  4777 ;;		On exit  : 0/0
  4778 ;;		Unchanged: 0/0
  4779 ;; Data sizes:     COMMON   BANK0   BANK1   BANK3   BANK2
  4780 ;;      Params:         0       0       0       0       0
  4781 ;;      Locals:         0       0       0       0       0
  4782 ;;      Temps:          0       3       0       0       0
  4783 ;;      Totals:         0       3       0       0       0
  4784 ;;Total ram usage:        3 bytes
  4785 ;; Hardware stack levels used:    1
  4786 ;; Hardware stack levels required when called:    9
  4787 ;; This function calls:
  4788 ;;		_lcd_writeThisStringAt
  4789 ;;		_lcd_clear
  4790 ;; This function is called by:
  4791 ;;		_NormalModeOperations
  4792 ;; This function uses a non-reentrant model
  4793 ;;
  4794                           psect	text1473
  4795                           	file	"serveMethods.c"
  4796                           	line	3
  4797                           	global	__size_of_serveCoffee
  4798  0059                     	__size_of_serveCoffee	equ	__end_of_serveCoffee-_serveCoffee
  4799                           	
  4800  0BEE                     _serveCoffee:	
  4801                           	opt	stack 4
  4802                           ; Regs used in _serveCoffee: [wreg-fsr0h+status,2-btemp+1+pclath+cstack]
  4803                           	line	4
  4804                           	
  4805  0BEE                     l9915:	
  4806                           ;serveMethods.c: 4: lcd_writeThisStringAt(0, 0, "Serving Coffee..");
  4807  0BEE  1003               	clrc
  4808  0BEF  3000               	movlw	0
  4809  0BF0  1803               	btfsc	status,0
  4810  0BF1  3001               	movlw	1
  4811  0BF2  1283               	bcf	status, 5	;RP0=0, select bank0
  4812  0BF3  1303               	bcf	status, 6	;RP1=0, select bank0
  4813  0BF4  00B4               	movwf	(?_lcd_writeThisStringAt)
  4814  0BF5  3001               	movlw	((STR_19-__stringbase))&0ffh
  4815  0BF6  00B8               	movwf	(??_serveCoffee+0)+0
  4816  0BF7  0838               	movf	(??_serveCoffee+0)+0,w
  4817  0BF8  00B5               	movwf	(0+?_lcd_writeThisStringAt+01h)
  4818  0BF9  3000               	movlw	(0)
  4819  0BFA  120A  158A  207B   	fcall	_lcd_writeThisStringAt
              120A  158A         
  4820                           	line	6
  4821                           	
  4822  0BFF                     l9917:	
  4823                           ;serveMethods.c: 6: RB1 = 1;
  4824  0BFF  1283               	bcf	status, 5	;RP0=0, select bank0
  4825  0C00  1303               	bcf	status, 6	;RP1=0, select bank0
  4826  0C01  1486               	bsf	(49/8),(49)&7
  4827                           	line	7
  4828                           	
  4829  0C02                     l9919:	
  4830                           ;serveMethods.c: 7: _delay((unsigned long)((200)*(20000000/4000.0)));
  4831                           	opt asmopt_off
  4832  0C02  3006               movlw  6
  4833  0C03  00BA               movwf	((??_serveCoffee+0)+0+2),f
  4834  0C04  300E               movlw	14
  4835  0C05  00B9               movwf	((??_serveCoffee+0)+0+1),f
  4836  0C06  30B0               	movlw	176
  4837  0C07  00B8               movwf	((??_serveCoffee+0)+0),f
  4838  0C08                     u6537:
  4839  0C08  0BB8               	decfsz	((??_serveCoffee+0)+0),f
  4840  0C09  2C08               	goto	u6537
  4841  0C0A  0BB9               	decfsz	((??_serveCoffee+0)+0+1),f
  4842  0C0B  2C08               	goto	u6537
  4843  0C0C  0BBA               	decfsz	((??_serveCoffee+0)+0+2),f
  4844  0C0D  2C08               	goto	u6537
  4845                           opt asmopt_on
  4846                           
  4847                           	line	8
  4848                           	
  4849  0C0E                     l9921:	
  4850                           ;serveMethods.c: 8: RB1 = 0;
  4851  0C0E  1283               	bcf	status, 5	;RP0=0, select bank0
  4852  0C0F  1303               	bcf	status, 6	;RP1=0, select bank0
  4853  0C10  1086               	bcf	(49/8),(49)&7
  4854                           	line	9
  4855                           	
  4856  0C11                     l9923:	
  4857                           ;serveMethods.c: 9: RB2 = 1;
  4858  0C11  1506               	bsf	(50/8),(50)&7
  4859                           	line	10
  4860                           	
  4861  0C12                     l9925:	
  4862                           ;serveMethods.c: 10: _delay((unsigned long)((200)*(20000000/4000.0)));
  4863                           	opt asmopt_off
  4864  0C12  3006               movlw  6
  4865  0C13  00BA               movwf	((??_serveCoffee+0)+0+2),f
  4866  0C14  300E               movlw	14
  4867  0C15  00B9               movwf	((??_serveCoffee+0)+0+1),f
  4868  0C16  30B0               	movlw	176
  4869  0C17  00B8               movwf	((??_serveCoffee+0)+0),f
  4870  0C18                     u6547:
  4871  0C18  0BB8               	decfsz	((??_serveCoffee+0)+0),f
  4872  0C19  2C18               	goto	u6547
  4873  0C1A  0BB9               	decfsz	((??_serveCoffee+0)+0+1),f
  4874  0C1B  2C18               	goto	u6547
  4875  0C1C  0BBA               	decfsz	((??_serveCoffee+0)+0+2),f
  4876  0C1D  2C18               	goto	u6547
  4877                           opt asmopt_on
  4878                           
  4879                           	line	11
  4880                           	
  4881  0C1E                     l9927:	
  4882                           ;serveMethods.c: 11: RB2 = 0;
  4883  0C1E  1283               	bcf	status, 5	;RP0=0, select bank0
  4884  0C1F  1303               	bcf	status, 6	;RP1=0, select bank0
  4885  0C20  1106               	bcf	(50/8),(50)&7
  4886                           	line	12
  4887                           	
  4888  0C21                     l9929:	
  4889                           ;serveMethods.c: 12: RB3 = 1;
  4890  0C21  1586               	bsf	(51/8),(51)&7
  4891                           	line	13
  4892                           	
  4893  0C22                     l9931:	
  4894                           ;serveMethods.c: 13: _delay((unsigned long)((200)*(20000000/4000.0)));
  4895                           	opt asmopt_off
  4896  0C22  3006               movlw  6
  4897  0C23  00BA               movwf	((??_serveCoffee+0)+0+2),f
  4898  0C24  300E               movlw	14
  4899  0C25  00B9               movwf	((??_serveCoffee+0)+0+1),f
  4900  0C26  30B0               	movlw	176
  4901  0C27  00B8               movwf	((??_serveCoffee+0)+0),f
  4902  0C28                     u6557:
  4903  0C28  0BB8               	decfsz	((??_serveCoffee+0)+0),f
  4904  0C29  2C28               	goto	u6557
  4905  0C2A  0BB9               	decfsz	((??_serveCoffee+0)+0+1),f
  4906  0C2B  2C28               	goto	u6557
  4907  0C2C  0BBA               	decfsz	((??_serveCoffee+0)+0+2),f
  4908  0C2D  2C28               	goto	u6557
  4909                           opt asmopt_on
  4910                           
  4911                           	line	14
  4912                           	
  4913  0C2E                     l9933:	
  4914                           ;serveMethods.c: 14: RB3 = 0;
  4915  0C2E  1283               	bcf	status, 5	;RP0=0, select bank0
  4916  0C2F  1303               	bcf	status, 6	;RP1=0, select bank0
  4917  0C30  1186               	bcf	(51/8),(51)&7
  4918                           	line	15
  4919                           	
  4920  0C31                     l9935:	
  4921                           ;serveMethods.c: 15: RB4 = 1;
  4922  0C31  1606               	bsf	(52/8),(52)&7
  4923                           	line	16
  4924                           	
  4925  0C32                     l9937:	
  4926                           ;serveMethods.c: 16: _delay((unsigned long)((200)*(20000000/4000.0)));
  4927                           	opt asmopt_off
  4928  0C32  3006               movlw  6
  4929  0C33  00BA               movwf	((??_serveCoffee+0)+0+2),f
  4930  0C34  300E               movlw	14
  4931  0C35  00B9               movwf	((??_serveCoffee+0)+0+1),f
  4932  0C36  30B0               	movlw	176
  4933  0C37  00B8               movwf	((??_serveCoffee+0)+0),f
  4934  0C38                     u6567:
  4935  0C38  0BB8               	decfsz	((??_serveCoffee+0)+0),f
  4936  0C39  2C38               	goto	u6567
  4937  0C3A  0BB9               	decfsz	((??_serveCoffee+0)+0+1),f
  4938  0C3B  2C38               	goto	u6567
  4939  0C3C  0BBA               	decfsz	((??_serveCoffee+0)+0+2),f
  4940  0C3D  2C38               	goto	u6567
  4941                           opt asmopt_on
  4942                           
  4943                           	line	17
  4944                           	
  4945  0C3E                     l9939:	
  4946                           ;serveMethods.c: 17: RB4 = 0;
  4947  0C3E  1283               	bcf	status, 5	;RP0=0, select bank0
  4948  0C3F  1303               	bcf	status, 6	;RP1=0, select bank0
  4949  0C40  1206               	bcf	(52/8),(52)&7
  4950                           	line	20
  4951                           	
  4952  0C41                     l9941:	
  4953                           ;serveMethods.c: 20: lcd_clear();
  4954  0C41  120A  158A  2020   	fcall	_lcd_clear
              120A  158A         
  4955                           	line	21
  4956                           	
  4957  0C46                     l5524:	
  4958  0C46  0008               	return
  4959                           	opt stack 0
  4960                           GLOBAL	__end_of_serveCoffee
  4961  0C47                     	__end_of_serveCoffee:
  4962 ;; =============== function _serveCoffee ends ============
  4963                           
  4964                           	signat	_serveCoffee,88
  4965                           	global	_lcd_writeThisDigit
  4966                           psect	text1474,local,class=CODE,delta=2
  4967                           global __ptext1474
  4968  0ED8                     __ptext1474:
  4969                           
  4970 ;; *************** function _lcd_writeThisDigit *****************
  4971 ;; Defined at:
  4972 ;;		line 125 in file "lcd.c"
  4973 ;; Parameters:    Size  Location     Type
  4974 ;;  data            1    wreg     unsigned char 
  4975 ;; Auto vars:     Size  Location     Type
  4976 ;;  data            1   31[BANK0 ] unsigned char 
  4977 ;;  string          4   27[BANK0 ] unsigned char [4]
  4978 ;; Return value:  Size  Location     Type
  4979 ;;		None               void
  4980 ;; Registers used:
  4981 ;;		wreg, fsr0l, fsr0h, status,2, status,0, btemp+0, btemp+1, pclath, cstack
  4982 ;; Tracked objects:
  4983 ;;		On entry : 0/0
  4984 ;;		On exit  : 0/0
  4985 ;;		Unchanged: 0/0
  4986 ;; Data sizes:     COMMON   BANK0   BANK1   BANK3   BANK2
  4987 ;;      Params:         0       0       0       0       0
  4988 ;;      Locals:         0       5       0       0       0
  4989 ;;      Temps:          0       3       0       0       0
  4990 ;;      Totals:         0       8       0       0       0
  4991 ;;Total ram usage:        8 bytes
  4992 ;; Hardware stack levels used:    1
  4993 ;; Hardware stack levels required when called:    8
  4994 ;; This function calls:
  4995 ;;		___awmod
  4996 ;;		___awdiv
  4997 ;;		_lcd_puts
  4998 ;; This function is called by:
  4999 ;;		_UpdateScreen
  5000 ;; This function uses a non-reentrant model
  5001 ;;
  5002                           psect	text1474
  5003                           	file	"lcd.c"
  5004                           	line	125
  5005                           	global	__size_of_lcd_writeThisDigit
  5006  0086                     	__size_of_lcd_writeThisDigit	equ	__end_of_lcd_writeThisDigit-_lcd_writeThisDigit
  5007                           	
  5008  0ED8                     _lcd_writeThisDigit:	
  5009                           	opt	stack 2
  5010                           ; Regs used in _lcd_writeThisDigit: [wreg-fsr0h+status,2-btemp+1+pclath+cstack]
  5011                           ;lcd_writeThisDigit@data stored from wreg
  5012                           	line	126
  5013  0ED8  1283               	bcf	status, 5	;RP0=0, select bank0
  5014  0ED9  1303               	bcf	status, 6	;RP1=0, select bank0
  5015  0EDA  00BF               	movwf	(lcd_writeThisDigit@data)
  5016                           	
  5017  0EDB                     l9901:	
  5018                           ;lcd.c: 126: UByte string[4]= {'0','0','0','\0'};
  5019  0EDB  084F               	movf	(lcd_writeThisDigit@F653+3),w
  5020  0EDC  00BE               	movwf	(lcd_writeThisDigit@string+3)
  5021  0EDD  084E               	movf	(lcd_writeThisDigit@F653+2),w
  5022  0EDE  00BD               	movwf	(lcd_writeThisDigit@string+2)
  5023  0EDF  084D               	movf	(lcd_writeThisDigit@F653+1),w
  5024  0EE0  00BC               	movwf	(lcd_writeThisDigit@string+1)
  5025  0EE1  084C               	movf	(lcd_writeThisDigit@F653),w
  5026  0EE2  00BB               	movwf	(lcd_writeThisDigit@string)
  5027                           
  5028                           	line	128
  5029                           	
  5030  0EE3                     l9903:	
  5031                           ;lcd.c: 128: string[2] = data%10 + 0x30;
  5032  0EE3  300A               	movlw	low(0Ah)
  5033  0EE4  00AF               	movwf	(?___awmod)
  5034  0EE5  3000               	movlw	high(0Ah)
  5035  0EE6  00B0               	movwf	((?___awmod))+1
  5036  0EE7  083F               	movf	(lcd_writeThisDigit@data),w
  5037  0EE8  00B8               	movwf	(??_lcd_writeThisDigit+0)+0
  5038  0EE9  01B9               	clrf	(??_lcd_writeThisDigit+0)+0+1
  5039  0EEA  0838               	movf	0+(??_lcd_writeThisDigit+0)+0,w
  5040  0EEB  00B1               	movwf	0+(?___awmod)+02h
  5041  0EEC  0839               	movf	1+(??_lcd_writeThisDigit+0)+0,w
  5042  0EED  00B2               	movwf	1+(?___awmod)+02h
  5043  0EEE  120A  158A  24A7   	fcall	___awmod
              120A  158A         
  5044  0EF3  1283               	bcf	status, 5	;RP0=0, select bank0
  5045  0EF4  1303               	bcf	status, 6	;RP1=0, select bank0
  5046  0EF5  082F               	movf	(0+(?___awmod)),w
  5047  0EF6  3E30               	addlw	030h
  5048  0EF7  00BA               	movwf	(??_lcd_writeThisDigit+2)+0
  5049  0EF8  083A               	movf	(??_lcd_writeThisDigit+2)+0,w
  5050  0EF9  00BD               	movwf	0+(lcd_writeThisDigit@string)+02h
  5051                           	line	129
  5052                           	
  5053  0EFA                     l9905:	
  5054                           ;lcd.c: 129: data=data/10;
  5055  0EFA  300A               	movlw	low(0Ah)
  5056  0EFB  00AF               	movwf	(?___awdiv)
  5057  0EFC  3000               	movlw	high(0Ah)
  5058  0EFD  00B0               	movwf	((?___awdiv))+1
  5059  0EFE  083F               	movf	(lcd_writeThisDigit@data),w
  5060  0EFF  00B8               	movwf	(??_lcd_writeThisDigit+0)+0
  5061  0F00  01B9               	clrf	(??_lcd_writeThisDigit+0)+0+1
  5062  0F01  0838               	movf	0+(??_lcd_writeThisDigit+0)+0,w
  5063  0F02  00B1               	movwf	0+(?___awdiv)+02h
  5064  0F03  0839               	movf	1+(??_lcd_writeThisDigit+0)+0,w
  5065  0F04  00B2               	movwf	1+(?___awdiv)+02h
  5066  0F05  120A  158A  25E0   	fcall	___awdiv
              120A  158A         
  5067  0F0A  1283               	bcf	status, 5	;RP0=0, select bank0
  5068  0F0B  1303               	bcf	status, 6	;RP1=0, select bank0
  5069  0F0C  082F               	movf	(0+(?___awdiv)),w
  5070  0F0D  00BA               	movwf	(??_lcd_writeThisDigit+2)+0
  5071  0F0E  083A               	movf	(??_lcd_writeThisDigit+2)+0,w
  5072  0F0F  00BF               	movwf	(lcd_writeThisDigit@data)
  5073                           	line	130
  5074                           	
  5075  0F10                     l9907:	
  5076                           ;lcd.c: 130: string[1] = data%10 + 0x30;
  5077  0F10  300A               	movlw	low(0Ah)
  5078  0F11  00AF               	movwf	(?___awmod)
  5079  0F12  3000               	movlw	high(0Ah)
  5080  0F13  00B0               	movwf	((?___awmod))+1
  5081  0F14  083F               	movf	(lcd_writeThisDigit@data),w
  5082  0F15  00B8               	movwf	(??_lcd_writeThisDigit+0)+0
  5083  0F16  01B9               	clrf	(??_lcd_writeThisDigit+0)+0+1
  5084  0F17  0838               	movf	0+(??_lcd_writeThisDigit+0)+0,w
  5085  0F18  00B1               	movwf	0+(?___awmod)+02h
  5086  0F19  0839               	movf	1+(??_lcd_writeThisDigit+0)+0,w
  5087  0F1A  00B2               	movwf	1+(?___awmod)+02h
  5088  0F1B  120A  158A  24A7   	fcall	___awmod
              120A  158A         
  5089  0F20  1283               	bcf	status, 5	;RP0=0, select bank0
  5090  0F21  1303               	bcf	status, 6	;RP1=0, select bank0
  5091  0F22  082F               	movf	(0+(?___awmod)),w
  5092  0F23  3E30               	addlw	030h
  5093  0F24  00BA               	movwf	(??_lcd_writeThisDigit+2)+0
  5094  0F25  083A               	movf	(??_lcd_writeThisDigit+2)+0,w
  5095  0F26  00BC               	movwf	0+(lcd_writeThisDigit@string)+01h
  5096                           	line	131
  5097                           	
  5098  0F27                     l9909:	
  5099                           ;lcd.c: 131: data = data/10;
  5100  0F27  300A               	movlw	low(0Ah)
  5101  0F28  00AF               	movwf	(?___awdiv)
  5102  0F29  3000               	movlw	high(0Ah)
  5103  0F2A  00B0               	movwf	((?___awdiv))+1
  5104  0F2B  083F               	movf	(lcd_writeThisDigit@data),w
  5105  0F2C  00B8               	movwf	(??_lcd_writeThisDigit+0)+0
  5106  0F2D  01B9               	clrf	(??_lcd_writeThisDigit+0)+0+1
  5107  0F2E  0838               	movf	0+(??_lcd_writeThisDigit+0)+0,w
  5108  0F2F  00B1               	movwf	0+(?___awdiv)+02h
  5109  0F30  0839               	movf	1+(??_lcd_writeThisDigit+0)+0,w
  5110  0F31  00B2               	movwf	1+(?___awdiv)+02h
  5111  0F32  120A  158A  25E0   	fcall	___awdiv
              120A  158A         
  5112  0F37  1283               	bcf	status, 5	;RP0=0, select bank0
  5113  0F38  1303               	bcf	status, 6	;RP1=0, select bank0
  5114  0F39  082F               	movf	(0+(?___awdiv)),w
  5115  0F3A  00BA               	movwf	(??_lcd_writeThisDigit+2)+0
  5116  0F3B  083A               	movf	(??_lcd_writeThisDigit+2)+0,w
  5117  0F3C  00BF               	movwf	(lcd_writeThisDigit@data)
  5118                           	line	132
  5119                           	
  5120  0F3D                     l9911:	
  5121                           ;lcd.c: 132: string[0] = data%10 + 0x30;
  5122  0F3D  300A               	movlw	low(0Ah)
  5123  0F3E  00AF               	movwf	(?___awmod)
  5124  0F3F  3000               	movlw	high(0Ah)
  5125  0F40  00B0               	movwf	((?___awmod))+1
  5126  0F41  083F               	movf	(lcd_writeThisDigit@data),w
  5127  0F42  00B8               	movwf	(??_lcd_writeThisDigit+0)+0
  5128  0F43  01B9               	clrf	(??_lcd_writeThisDigit+0)+0+1
  5129  0F44  0838               	movf	0+(??_lcd_writeThisDigit+0)+0,w
  5130  0F45  00B1               	movwf	0+(?___awmod)+02h
  5131  0F46  0839               	movf	1+(??_lcd_writeThisDigit+0)+0,w
  5132  0F47  00B2               	movwf	1+(?___awmod)+02h
  5133  0F48  120A  158A  24A7   	fcall	___awmod
              120A  158A         
  5134  0F4D  1283               	bcf	status, 5	;RP0=0, select bank0
  5135  0F4E  1303               	bcf	status, 6	;RP1=0, select bank0
  5136  0F4F  082F               	movf	(0+(?___awmod)),w
  5137  0F50  3E30               	addlw	030h
  5138  0F51  00BA               	movwf	(??_lcd_writeThisDigit+2)+0
  5139  0F52  083A               	movf	(??_lcd_writeThisDigit+2)+0,w
  5140  0F53  00BB               	movwf	(lcd_writeThisDigit@string)
  5141                           	line	134
  5142                           	
  5143  0F54                     l9913:	
  5144                           ;lcd.c: 134: lcd_puts(string);
  5145  0F54  303B               	movlw	(lcd_writeThisDigit@string&0ffh)
  5146  0F55  00B2               	movwf	(?_lcd_puts)
  5147  0F56  3000               	movlw	(0x0/2)
  5148  0F57  00B3               	movwf	(?_lcd_puts+1)
  5149  0F58  120A  158A  212E   	fcall	_lcd_puts
              120A  158A         
  5150                           	line	136
  5151                           	
  5152  0F5D                     l4937:	
  5153  0F5D  0008               	return
  5154                           	opt stack 0
  5155                           GLOBAL	__end_of_lcd_writeThisDigit
  5156  0F5E                     	__end_of_lcd_writeThisDigit:
  5157 ;; =============== function _lcd_writeThisDigit ends ============
  5158                           
  5159                           	signat	_lcd_writeThisDigit,4216
  5160                           	global	_peripheral_initialsation
  5161                           psect	text1475,local,class=CODE,delta=2
  5162                           global __ptext1475
  5163  0894                     __ptext1475:
  5164                           
  5165 ;; *************** function _peripheral_initialsation *****************
  5166 ;; Defined at:
  5167 ;;		line 56 in file "MainCode.c"
  5168 ;; Parameters:    Size  Location     Type
  5169 ;;		None
  5170 ;; Auto vars:     Size  Location     Type
  5171 ;;		None
  5172 ;; Return value:  Size  Location     Type
  5173 ;;		None               void
  5174 ;; Registers used:
  5175 ;;		wreg, fsr0l, fsr0h, status,2, status,0, pclath, cstack
  5176 ;; Tracked objects:
  5177 ;;		On entry : 0/0
  5178 ;;		On exit  : 0/0
  5179 ;;		Unchanged: 0/0
  5180 ;; Data sizes:     COMMON   BANK0   BANK1   BANK3   BANK2
  5181 ;;      Params:         0       0       0       0       0
  5182 ;;      Locals:         0       0       0       0       0
  5183 ;;      Temps:          0       0       0       0       0
  5184 ;;      Totals:         0       0       0       0       0
  5185 ;;Total ram usage:        0 bytes
  5186 ;; Hardware stack levels used:    1
  5187 ;; Hardware stack levels required when called:    8
  5188 ;; This function calls:
  5189 ;;		_lcd_init
  5190 ;;		_initialisePortB
  5191 ;;		_enableInterrupt_RB0
  5192 ;;		_PeripheralInterrupt_DISABLE
  5193 ;;		_GlobalInterrupt_ENABLE
  5194 ;; This function is called by:
  5195 ;;		_main
  5196 ;; This function uses a non-reentrant model
  5197 ;;
  5198                           psect	text1475
  5199                           	file	"MainCode.c"
  5200                           	line	56
  5201                           	global	__size_of_peripheral_initialsation
  5202  001A                     	__size_of_peripheral_initialsation	equ	__end_of_peripheral_initialsation-_peripheral_in
                                 itialsation
  5203                           	
  5204  0894                     _peripheral_initialsation:	
  5205                           	opt	stack 7
  5206                           ; Regs used in _peripheral_initialsation: [wreg-fsr0h+status,2+status,0+pclath+cstack]
  5207                           	line	57
  5208                           	
  5209  0894                     l9891:	
  5210                           ;MainCode.c: 57: lcd_init();
  5211  0894  120A  158A  232D   	fcall	_lcd_init
              120A  158A         
  5212                           	line	58
  5213                           	
  5214  0899                     l9893:	
  5215                           ;MainCode.c: 58: initialisePortB();
  5216  0899  120A  158A  2013   	fcall	_initialisePortB
              120A  158A         
  5217                           	line	59
  5218                           	
  5219  089E                     l9895:	
  5220                           ;MainCode.c: 59: enableInterrupt_RB0();
  5221  089E  120A  158A  200E   	fcall	_enableInterrupt_RB0
              120A  158A         
  5222                           	line	60
  5223                           	
  5224  08A3                     l9897:	
  5225                           ;MainCode.c: 60: PeripheralInterrupt_DISABLE();
  5226  08A3  120A  158A  2007   	fcall	_PeripheralInterrupt_DISABLE
              120A  158A         
  5227                           	line	61
  5228                           	
  5229  08A8                     l9899:	
  5230                           ;MainCode.c: 61: GlobalInterrupt_ENABLE();
  5231  08A8  120A  158A  2005   	fcall	_GlobalInterrupt_ENABLE
              120A  158A         
  5232                           	line	66
  5233                           	
  5234  08AD                     l3034:	
  5235  08AD  0008               	return
  5236                           	opt stack 0
  5237                           GLOBAL	__end_of_peripheral_initialsation
  5238  08AE                     	__end_of_peripheral_initialsation:
  5239 ;; =============== function _peripheral_initialsation ends ============
  5240                           
  5241                           	signat	_peripheral_initialsation,88
  5242                           	global	_lcd_writeThisStringAt
  5243                           psect	text1476,local,class=CODE,delta=2
  5244                           global __ptext1476
  5245  087B                     __ptext1476:
  5246                           
  5247 ;; *************** function _lcd_writeThisStringAt *****************
  5248 ;; Defined at:
  5249 ;;		line 113 in file "lcd.c"
  5250 ;; Parameters:    Size  Location     Type
  5251 ;;  row             1    wreg     unsigned char 
  5252 ;;  column          1   20[BANK0 ] unsigned char 
  5253 ;;  ptr             1   21[BANK0 ] PTR unsigned char 
  5254 ;;		 -> STR_22(16), STR_21(14), STR_20(15), STR_19(17), 
  5255 ;;		 -> STR_18(3), STR_17(4), STR_16(13), STR_15(3), 
  5256 ;;		 -> STR_14(3), STR_13(16), STR_12(3), STR_11(3), 
  5257 ;;		 -> STR_10(13), STR_9(15), STR_8(17), STR_7(15), 
  5258 ;;		 -> STR_6(16), STR_5(13), STR_4(8), STR_3(8), 
  5259 ;;		 -> STR_2(15), STR_1(14), 
  5260 ;; Auto vars:     Size  Location     Type
  5261 ;;  row             1   23[BANK0 ] unsigned char 
  5262 ;; Return value:  Size  Location     Type
  5263 ;;		None               void
  5264 ;; Registers used:
  5265 ;;		wreg, fsr0l, fsr0h, status,2, status,0, btemp+0, btemp+1, pclath, cstack
  5266 ;; Tracked objects:
  5267 ;;		On entry : 0/0
  5268 ;;		On exit  : 0/0
  5269 ;;		Unchanged: 0/0
  5270 ;; Data sizes:     COMMON   BANK0   BANK1   BANK3   BANK2
  5271 ;;      Params:         0       2       0       0       0
  5272 ;;      Locals:         0       1       0       0       0
  5273 ;;      Temps:          0       1       0       0       0
  5274 ;;      Totals:         0       4       0       0       0
  5275 ;;Total ram usage:        4 bytes
  5276 ;; Hardware stack levels used:    1
  5277 ;; Hardware stack levels required when called:    8
  5278 ;; This function calls:
  5279 ;;		_goto_XY
  5280 ;;		_lcd_puts
  5281 ;; This function is called by:
  5282 ;;		_main
  5283 ;;		_default_bootSequence
  5284 ;;		_UpbuttonHandler
  5285 ;;		_DownButtonHandler
  5286 ;;		_UpdateScreen
  5287 ;;		_serveCoffee
  5288 ;;		_serveHalfQuantity
  5289 ;;		_serveTea
  5290 ;;		_serveHotWater
  5291 ;; This function uses a non-reentrant model
  5292 ;;
  5293                           psect	text1476
  5294                           	file	"lcd.c"
  5295                           	line	113
  5296                           	global	__size_of_lcd_writeThisStringAt
  5297  0019                     	__size_of_lcd_writeThisStringAt	equ	__end_of_lcd_writeThisStringAt-_lcd_writeThisString
                                 At
  5298                           	
  5299  087B                     _lcd_writeThisStringAt:	
  5300                           	opt	stack 3
  5301                           ; Regs used in _lcd_writeThisStringAt: [wreg-fsr0h+status,2-btemp+1+pclath+cstack]
  5302                           ;lcd_writeThisStringAt@row stored from wreg
  5303  087B  1283               	bcf	status, 5	;RP0=0, select bank0
  5304  087C  1303               	bcf	status, 6	;RP1=0, select bank0
  5305  087D  00B7               	movwf	(lcd_writeThisStringAt@row)
  5306                           	line	114
  5307                           	
  5308  087E                     l9887:	
  5309                           ;lcd.c: 114: goto_XY(row,column);
  5310  087E  0834               	movf	(lcd_writeThisStringAt@column),w
  5311  087F  00B6               	movwf	(??_lcd_writeThisStringAt+0)+0
  5312  0880  0836               	movf	(??_lcd_writeThisStringAt+0)+0,w
  5313  0881  00B2               	movwf	(?_goto_XY)
  5314  0882  0837               	movf	(lcd_writeThisStringAt@row),w
  5315  0883  120A  158A  20CA   	fcall	_goto_XY
              120A  158A         
  5316                           	line	115
  5317                           	
  5318  0888                     l9889:	
  5319                           ;lcd.c: 115: lcd_puts(ptr);
  5320  0888  1283               	bcf	status, 5	;RP0=0, select bank0
  5321  0889  1303               	bcf	status, 6	;RP1=0, select bank0
  5322  088A  0835               	movf	(lcd_writeThisStringAt@ptr),w
  5323  088B  00B2               	movwf	(?_lcd_puts)
  5324  088C  3080               	movlw	80h
  5325  088D  00B3               	movwf	(?_lcd_puts+1)
  5326  088E  120A  158A  212E   	fcall	_lcd_puts
              120A  158A         
  5327                           	line	116
  5328                           	
  5329  0893                     l4929:	
  5330  0893  0008               	return
  5331                           	opt stack 0
  5332                           GLOBAL	__end_of_lcd_writeThisStringAt
  5333  0894                     	__end_of_lcd_writeThisStringAt:
  5334 ;; =============== function _lcd_writeThisStringAt ends ============
  5335                           
  5336                           	signat	_lcd_writeThisStringAt,12408
  5337                           	global	_goto_XY
  5338                           psect	text1477,local,class=CODE,delta=2
  5339                           global __ptext1477
  5340  08CA                     __ptext1477:
  5341                           
  5342 ;; *************** function _goto_XY *****************
  5343 ;; Defined at:
  5344 ;;		line 89 in file "lcd.c"
  5345 ;; Parameters:    Size  Location     Type
  5346 ;;  row             1    wreg     unsigned char 
  5347 ;;  column          1   18[BANK0 ] unsigned char 
  5348 ;; Auto vars:     Size  Location     Type
  5349 ;;  row             1   19[BANK0 ] unsigned char 
  5350 ;; Return value:  Size  Location     Type
  5351 ;;		None               void
  5352 ;; Registers used:
  5353 ;;		wreg, status,2, status,0, pclath, cstack
  5354 ;; Tracked objects:
  5355 ;;		On entry : 0/0
  5356 ;;		On exit  : 0/0
  5357 ;;		Unchanged: 0/0
  5358 ;; Data sizes:     COMMON   BANK0   BANK1   BANK3   BANK2
  5359 ;;      Params:         0       1       0       0       0
  5360 ;;      Locals:         0       1       0       0       0
  5361 ;;      Temps:          0       0       0       0       0
  5362 ;;      Totals:         0       2       0       0       0
  5363 ;;Total ram usage:        2 bytes
  5364 ;; Hardware stack levels used:    1
  5365 ;; Hardware stack levels required when called:    7
  5366 ;; This function calls:
  5367 ;;		_lcd_cmd
  5368 ;; This function is called by:
  5369 ;;		_lcd_writeThisStringAt
  5370 ;;		_clear_XY
  5371 ;;		_lcd_writeThisCharAt
  5372 ;; This function uses a non-reentrant model
  5373 ;;
  5374                           psect	text1477
  5375                           	file	"lcd.c"
  5376                           	line	89
  5377                           	global	__size_of_goto_XY
  5378  0020                     	__size_of_goto_XY	equ	__end_of_goto_XY-_goto_XY
  5379                           	
  5380  08CA                     _goto_XY:	
  5381                           	opt	stack 2
  5382                           ; Regs used in _goto_XY: [wreg+status,2+status,0+pclath+cstack]
  5383                           ;goto_XY@row stored from wreg
  5384  08CA  1283               	bcf	status, 5	;RP0=0, select bank0
  5385  08CB  1303               	bcf	status, 6	;RP1=0, select bank0
  5386  08CC  00B3               	movwf	(goto_XY@row)
  5387                           	line	90
  5388                           	
  5389  08CD                     l9879:	
  5390                           ;lcd.c: 90: if(row == 0)
  5391  08CD  08B3               	movf	(goto_XY@row),f
  5392  08CE  1D03               	skipz
  5393  08CF  28D1               	goto	u5701
  5394  08D0  28D2               	goto	u5700
  5395  08D1                     u5701:
  5396  08D1  28DA               	goto	l4917
  5397  08D2                     u5700:
  5398                           	line	92
  5399                           	
  5400  08D2                     l9881:	
  5401                           ;lcd.c: 91: {
  5402                           ;lcd.c: 92: lcd_cmd(0x80 + column);
  5403  08D2  0832               	movf	(goto_XY@column),w
  5404  08D3  3E80               	addlw	080h
  5405  08D4  120A  158A  2205   	fcall	_lcd_cmd
              120A  158A         
  5406                           	line	93
  5407                           ;lcd.c: 93: }
  5408  08D9  28E9               	goto	l4918
  5409                           	line	94
  5410                           	
  5411  08DA                     l4917:	
  5412                           	
  5413  08DA                     l9883:	
  5414                           ;lcd.c: 94: else if(row == 1)
  5415  08DA  1283               	bcf	status, 5	;RP0=0, select bank0
  5416  08DB  1303               	bcf	status, 6	;RP1=0, select bank0
  5417  08DC  0833               	movf	(goto_XY@row),w
  5418  08DD  3A01               	xorlw	01h
  5419  08DE  1D03               	skipz
  5420  08DF  28E1               	goto	u5711
  5421  08E0  28E2               	goto	u5710
  5422  08E1                     u5711:
  5423  08E1  28E9               	goto	l4919
  5424  08E2                     u5710:
  5425                           	line	96
  5426                           	
  5427  08E2                     l9885:	
  5428                           ;lcd.c: 95: {
  5429                           ;lcd.c: 96: lcd_cmd(0xC0 + column);
  5430  08E2  0832               	movf	(goto_XY@column),w
  5431  08E3  3EC0               	addlw	0C0h
  5432  08E4  120A  158A  2205   	fcall	_lcd_cmd
              120A  158A         
  5433                           	line	97
  5434                           	
  5435  08E9                     l4919:	
  5436                           	line	98
  5437                           	
  5438  08E9                     l4918:	
  5439                           	
  5440  08E9                     l4920:	
  5441  08E9  0008               	return
  5442                           	opt stack 0
  5443                           GLOBAL	__end_of_goto_XY
  5444  08EA                     	__end_of_goto_XY:
  5445 ;; =============== function _goto_XY ends ============
  5446                           
  5447                           	signat	_goto_XY,8312
  5448                           	global	_lcd_puts
  5449                           psect	text1478,local,class=CODE,delta=2
  5450                           global __ptext1478
  5451  092E                     __ptext1478:
  5452                           
  5453 ;; *************** function _lcd_puts *****************
  5454 ;; Defined at:
  5455 ;;		line 80 in file "lcd.c"
  5456 ;; Parameters:    Size  Location     Type
  5457 ;;  ptr             2   18[BANK0 ] PTR unsigned char 
  5458 ;;		 -> STR_22(16), STR_21(14), STR_20(15), STR_19(17), 
  5459 ;;		 -> lcd_writeThisDigit@string(4), STR_18(3), STR_17(4), STR_16(13), 
  5460 ;;		 -> STR_15(3), STR_14(3), STR_13(16), STR_12(3), 
  5461 ;;		 -> STR_11(3), STR_10(13), STR_9(15), STR_8(17), 
  5462 ;;		 -> STR_7(15), STR_6(16), STR_5(13), STR_4(8), 
  5463 ;;		 -> STR_3(8), STR_2(15), STR_1(14), 
  5464 ;; Auto vars:     Size  Location     Type
  5465 ;;		None
  5466 ;; Return value:  Size  Location     Type
  5467 ;;		None               void
  5468 ;; Registers used:
  5469 ;;		wreg, fsr0l, fsr0h, status,2, status,0, btemp+0, btemp+1, pclath, cstack
  5470 ;; Tracked objects:
  5471 ;;		On entry : 0/0
  5472 ;;		On exit  : 0/0
  5473 ;;		Unchanged: 0/0
  5474 ;; Data sizes:     COMMON   BANK0   BANK1   BANK3   BANK2
  5475 ;;      Params:         0       2       0       0       0
  5476 ;;      Locals:         0       0       0       0       0
  5477 ;;      Temps:          0       0       0       0       0
  5478 ;;      Totals:         0       2       0       0       0
  5479 ;;Total ram usage:        2 bytes
  5480 ;; Hardware stack levels used:    1
  5481 ;; Hardware stack levels required when called:    7
  5482 ;; This function calls:
  5483 ;;		_lcd_write
  5484 ;; This function is called by:
  5485 ;;		_lcd_writeThisStringAt
  5486 ;;		_lcd_writeThisDigit
  5487 ;; This function uses a non-reentrant model
  5488 ;;
  5489                           psect	text1478
  5490                           	file	"lcd.c"
  5491                           	line	80
  5492                           	global	__size_of_lcd_puts
  5493  0028                     	__size_of_lcd_puts	equ	__end_of_lcd_puts-_lcd_puts
  5494                           	
  5495  092E                     _lcd_puts:	
  5496                           	opt	stack 2
  5497                           ; Regs used in _lcd_puts: [wreg-fsr0h+status,2-btemp+1+pclath+cstack]
  5498                           	line	81
  5499                           	
  5500  092E                     l9871:	
  5501                           ;lcd.c: 81: while(*ptr != '\0')
  5502  092E  2947               	goto	l4911
  5503                           	
  5504  092F                     l4912:	
  5505                           	line	83
  5506                           	
  5507  092F                     l9873:	
  5508                           ;lcd.c: 82: {
  5509                           ;lcd.c: 83: lcd_write(*ptr++);
  5510  092F  1283               	bcf	status, 5	;RP0=0, select bank0
  5511  0930  1303               	bcf	status, 6	;RP1=0, select bank0
  5512  0931  0833               	movf	(lcd_puts@ptr+1),w
  5513  0932  00FF               	movwf	btemp+1
  5514  0933  0832               	movf	(lcd_puts@ptr),w
  5515  0934  0084               	movwf	fsr0
  5516  0935  120A  118A  2015   	fcall	stringtab
              120A  158A         
  5517  093A  120A  158A  2233   	fcall	_lcd_write
              120A  158A         
  5518                           	
  5519  093F                     l9875:	
  5520  093F  3001               	movlw	low(01h)
  5521  0940  1283               	bcf	status, 5	;RP0=0, select bank0
  5522  0941  1303               	bcf	status, 6	;RP1=0, select bank0
  5523  0942  07B2               	addwf	(lcd_puts@ptr),f
  5524  0943  1803               	skipnc
  5525  0944  0AB3               	incf	(lcd_puts@ptr+1),f
  5526  0945  3000               	movlw	high(01h)
  5527  0946  07B3               	addwf	(lcd_puts@ptr+1),f
  5528                           	line	84
  5529                           	
  5530  0947                     l4911:	
  5531                           	line	81
  5532                           	
  5533  0947                     l9877:	
  5534  0947  0833               	movf	(lcd_puts@ptr+1),w
  5535  0948  00FF               	movwf	btemp+1
  5536  0949  0832               	movf	(lcd_puts@ptr),w
  5537  094A  0084               	movwf	fsr0
  5538  094B  120A  118A  2015   	fcall	stringtab
              120A  158A         
  5539  0950  3800               	iorlw	0
  5540  0951  1D03               	skipz
  5541  0952  2954               	goto	u5691
  5542  0953  2955               	goto	u5690
  5543  0954                     u5691:
  5544  0954  292F               	goto	l4912
  5545  0955                     u5690:
  5546                           	
  5547  0955                     l4913:	
  5548                           	line	85
  5549                           	
  5550  0955                     l4914:	
  5551  0955  0008               	return
  5552                           	opt stack 0
  5553                           GLOBAL	__end_of_lcd_puts
  5554  0956                     	__end_of_lcd_puts:
  5555 ;; =============== function _lcd_puts ends ============
  5556                           
  5557                           	signat	_lcd_puts,4216
  5558                           	global	_lcd_init
  5559                           psect	text1479,local,class=CODE,delta=2
  5560                           global __ptext1479
  5561  0B2D                     __ptext1479:
  5562                           
  5563 ;; *************** function _lcd_init *****************
  5564 ;; Defined at:
  5565 ;;		line 7 in file "lcd.c"
  5566 ;; Parameters:    Size  Location     Type
  5567 ;;		None
  5568 ;; Auto vars:     Size  Location     Type
  5569 ;;  command_arra    6   19[BANK0 ] unsigned char [6]
  5570 ;;  index           1   25[BANK0 ] unsigned char 
  5571 ;; Return value:  Size  Location     Type
  5572 ;;		None               void
  5573 ;; Registers used:
  5574 ;;		wreg, fsr0l, fsr0h, status,2, status,0, pclath, cstack
  5575 ;; Tracked objects:
  5576 ;;		On entry : 0/0
  5577 ;;		On exit  : 0/0
  5578 ;;		Unchanged: 0/0
  5579 ;; Data sizes:     COMMON   BANK0   BANK1   BANK3   BANK2
  5580 ;;      Params:         0       0       0       0       0
  5581 ;;      Locals:         0       7       0       0       0
  5582 ;;      Temps:          0       1       0       0       0
  5583 ;;      Totals:         0       8       0       0       0
  5584 ;;Total ram usage:        8 bytes
  5585 ;; Hardware stack levels used:    1
  5586 ;; Hardware stack levels required when called:    7
  5587 ;; This function calls:
  5588 ;;		_lcd_cmd
  5589 ;; This function is called by:
  5590 ;;		_peripheral_initialsation
  5591 ;; This function uses a non-reentrant model
  5592 ;;
  5593                           psect	text1479
  5594                           	file	"lcd.c"
  5595                           	line	7
  5596                           	global	__size_of_lcd_init
  5597  0038                     	__size_of_lcd_init	equ	__end_of_lcd_init-_lcd_init
  5598                           	
  5599  0B2D                     _lcd_init:	
  5600                           	opt	stack 6
  5601                           ; Regs used in _lcd_init: [wreg-fsr0h+status,2+status,0+pclath+cstack]
  5602                           	line	8
  5603                           	
  5604  0B2D                     l9857:	
  5605                           ;lcd.c: 8: UByte command_array[]={0x02,0x28,0x0E,0x01,0x06,0x80};
  5606  0B2D  3033               	movlw	(lcd_init@command_array)&0ffh
  5607  0B2E  0084               	movwf	fsr0
  5608  0B2F  1283               	bcf	status, 5	;RP0=0, select bank0
  5609  0B30  1303               	bcf	status, 6	;RP1=0, select bank0
  5610  0B31  0846               	movf	(lcd_init@F632),w
  5611  0B32  1383               	bcf	status, 7	;select IRP bank0
  5612  0B33  0080               	movwf	indf
  5613  0B34  0A84               	incf	fsr0,f
  5614  0B35  0847               	movf	(lcd_init@F632)+1,w
  5615  0B36  0080               	movwf	indf
  5616  0B37  0A84               	incf	fsr0,f
  5617  0B38  0848               	movf	(lcd_init@F632)+2,w
  5618  0B39  0080               	movwf	indf
  5619  0B3A  0A84               	incf	fsr0,f
  5620  0B3B  0849               	movf	(lcd_init@F632)+3,w
  5621  0B3C  0080               	movwf	indf
  5622  0B3D  0A84               	incf	fsr0,f
  5623  0B3E  084A               	movf	(lcd_init@F632)+4,w
  5624  0B3F  0080               	movwf	indf
  5625  0B40  0A84               	incf	fsr0,f
  5626  0B41  084B               	movf	(lcd_init@F632)+5,w
  5627  0B42  0080               	movwf	indf
  5628                           	line	11
  5629                           	
  5630  0B43                     l9859:	
  5631                           ;lcd.c: 9: UByte index;
  5632                           ;lcd.c: 11: for(index=0;index<6;index++)
  5633  0B43  1003               	clrc
  5634  0B44  3000               	movlw	0
  5635  0B45  1803               	btfsc	status,0
  5636  0B46  3001               	movlw	1
  5637  0B47  00B9               	movwf	(lcd_init@index)
  5638                           	
  5639  0B48                     l9861:	
  5640  0B48  3006               	movlw	(06h)
  5641  0B49  0239               	subwf	(lcd_init@index),w
  5642  0B4A  1C03               	skipc
  5643  0B4B  2B4D               	goto	u5671
  5644  0B4C  2B4E               	goto	u5670
  5645  0B4D                     u5671:
  5646  0B4D  2B4F               	goto	l4900
  5647  0B4E                     u5670:
  5648                           	
  5649  0B4E                     l9863:	
  5650  0B4E  2B64               	goto	l4901
  5651                           	line	12
  5652                           	
  5653  0B4F                     l4900:	
  5654                           	line	13
  5655                           	
  5656  0B4F                     l9865:	
  5657                           ;lcd.c: 12: {
  5658                           ;lcd.c: 13: lcd_cmd(command_array[index]);
  5659  0B4F  0839               	movf	(lcd_init@index),w
  5660  0B50  3E33               	addlw	lcd_init@command_array&0ffh
  5661  0B51  0084               	movwf	fsr0
  5662  0B52  0800               	movf	indf,w
  5663  0B53  120A  158A  2205   	fcall	_lcd_cmd
              120A  158A         
  5664                           	line	11
  5665                           	
  5666  0B58                     l9867:	
  5667  0B58  3001               	movlw	(01h)
  5668  0B59  1283               	bcf	status, 5	;RP0=0, select bank0
  5669  0B5A  1303               	bcf	status, 6	;RP1=0, select bank0
  5670  0B5B  00B2               	movwf	(??_lcd_init+0)+0
  5671  0B5C  0832               	movf	(??_lcd_init+0)+0,w
  5672  0B5D  07B9               	addwf	(lcd_init@index),f
  5673                           	
  5674  0B5E                     l9869:	
  5675  0B5E  3006               	movlw	(06h)
  5676  0B5F  0239               	subwf	(lcd_init@index),w
  5677  0B60  1C03               	skipc
  5678  0B61  2B63               	goto	u5681
  5679  0B62  2B64               	goto	u5680
  5680  0B63                     u5681:
  5681  0B63  2B4F               	goto	l4900
  5682  0B64                     u5680:
  5683                           	
  5684  0B64                     l4901:	
  5685                           	line	15
  5686                           	
  5687  0B64                     l4902:	
  5688  0B64  0008               	return
  5689                           	opt stack 0
  5690                           GLOBAL	__end_of_lcd_init
  5691  0B65                     	__end_of_lcd_init:
  5692 ;; =============== function _lcd_init ends ============
  5693                           
  5694                           	signat	_lcd_init,88
  5695                           	global	_lcd_clear
  5696                           psect	text1480,local,class=CODE,delta=2
  5697                           global __ptext1480
  5698  0820                     __ptext1480:
  5699                           
  5700 ;; *************** function _lcd_clear *****************
  5701 ;; Defined at:
  5702 ;;		line 101 in file "lcd.c"
  5703 ;; Parameters:    Size  Location     Type
  5704 ;;		None
  5705 ;; Auto vars:     Size  Location     Type
  5706 ;;		None
  5707 ;; Return value:  Size  Location     Type
  5708 ;;		None               void
  5709 ;; Registers used:
  5710 ;;		wreg, status,2, status,0, pclath, cstack
  5711 ;; Tracked objects:
  5712 ;;		On entry : 0/0
  5713 ;;		On exit  : 0/0
  5714 ;;		Unchanged: 0/0
  5715 ;; Data sizes:     COMMON   BANK0   BANK1   BANK3   BANK2
  5716 ;;      Params:         0       0       0       0       0
  5717 ;;      Locals:         0       0       0       0       0
  5718 ;;      Temps:          0       0       0       0       0
  5719 ;;      Totals:         0       0       0       0       0
  5720 ;;Total ram usage:        0 bytes
  5721 ;; Hardware stack levels used:    1
  5722 ;; Hardware stack levels required when called:    7
  5723 ;; This function calls:
  5724 ;;		_lcd_cmd
  5725 ;; This function is called by:
  5726 ;;		_handleEvent
  5727 ;;		_main
  5728 ;;		_UpdateScreen
  5729 ;;		_serveCoffee
  5730 ;;		_serveHalfQuantity
  5731 ;;		_serveTea
  5732 ;;		_serveHotWater
  5733 ;; This function uses a non-reentrant model
  5734 ;;
  5735                           psect	text1480
  5736                           	file	"lcd.c"
  5737                           	line	101
  5738                           	global	__size_of_lcd_clear
  5739  0007                     	__size_of_lcd_clear	equ	__end_of_lcd_clear-_lcd_clear
  5740                           	
  5741  0820                     _lcd_clear:	
  5742                           	opt	stack 3
  5743                           ; Regs used in _lcd_clear: [wreg+status,2+status,0+pclath+cstack]
  5744                           	line	102
  5745                           	
  5746  0820                     l9855:	
  5747                           ;lcd.c: 102: lcd_cmd(0x01);
  5748  0820  3001               	movlw	(01h)
  5749  0821  120A  158A  2205   	fcall	_lcd_cmd
              120A  158A         
  5750                           	line	103
  5751                           	
  5752  0826                     l4923:	
  5753  0826  0008               	return
  5754                           	opt stack 0
  5755                           GLOBAL	__end_of_lcd_clear
  5756  0827                     	__end_of_lcd_clear:
  5757 ;; =============== function _lcd_clear ends ============
  5758                           
  5759                           	signat	_lcd_clear,88
  5760                           	global	_lcd_write
  5761                           psect	text1481,local,class=CODE,delta=2
  5762                           global __ptext1481
  5763  0A33                     __ptext1481:
  5764                           
  5765 ;; *************** function _lcd_write *****************
  5766 ;; Defined at:
  5767 ;;		line 19 in file "lcd.c"
  5768 ;; Parameters:    Size  Location     Type
  5769 ;;  data            1    wreg     unsigned char 
  5770 ;; Auto vars:     Size  Location     Type
  5771 ;;  data            1   17[BANK0 ] unsigned char 
  5772 ;; Return value:  Size  Location     Type
  5773 ;;		None               void
  5774 ;; Registers used:
  5775 ;;		wreg, status,2, status,0
  5776 ;; Tracked objects:
  5777 ;;		On entry : 0/0
  5778 ;;		On exit  : 0/0
  5779 ;;		Unchanged: 0/0
  5780 ;; Data sizes:     COMMON   BANK0   BANK1   BANK3   BANK2
  5781 ;;      Params:         0       0       0       0       0
  5782 ;;      Locals:         0       1       0       0       0
  5783 ;;      Temps:          0       2       0       0       0
  5784 ;;      Totals:         0       3       0       0       0
  5785 ;;Total ram usage:        3 bytes
  5786 ;; Hardware stack levels used:    1
  5787 ;; Hardware stack levels required when called:    6
  5788 ;; This function calls:
  5789 ;;		Nothing
  5790 ;; This function is called by:
  5791 ;;		_lcd_puts
  5792 ;;		_clear_XY
  5793 ;;		_lcd_writeThisCharAt
  5794 ;; This function uses a non-reentrant model
  5795 ;;
  5796                           psect	text1481
  5797                           	file	"lcd.c"
  5798                           	line	19
  5799                           	global	__size_of_lcd_write
  5800  002E                     	__size_of_lcd_write	equ	__end_of_lcd_write-_lcd_write
  5801                           	
  5802  0A33                     _lcd_write:	
  5803                           	opt	stack 1
  5804                           ; Regs used in _lcd_write: [wreg+status,2+status,0]
  5805                           ;lcd_write@data stored from wreg
  5806                           	line	22
  5807  0A33  1283               	bcf	status, 5	;RP0=0, select bank0
  5808  0A34  1303               	bcf	status, 6	;RP1=0, select bank0
  5809  0A35  00B1               	movwf	(lcd_write@data)
  5810                           	
  5811  0A36                     l9835:	
  5812                           ;lcd.c: 22: PORTD = ((data >> 4)& 0x0F);
  5813  0A36  0831               	movf	(lcd_write@data),w
  5814  0A37  00AF               	movwf	(??_lcd_write+0)+0
  5815  0A38  3004               	movlw	04h
  5816  0A39                     u5665:
  5817  0A39  1003               	clrc
  5818  0A3A  0CAF               	rrf	(??_lcd_write+0)+0,f
  5819  0A3B  3EFF               	addlw	-1
  5820  0A3C  1D03               	skipz
  5821  0A3D  2A39               	goto	u5665
  5822  0A3E  082F               	movf	0+(??_lcd_write+0)+0,w
  5823  0A3F  390F               	andlw	0Fh
  5824  0A40  0088               	movwf	(8)	;volatile
  5825                           	line	29
  5826                           	
  5827  0A41                     l9837:	
  5828                           ;lcd.c: 29: RE0=1;
  5829  0A41  1409               	bsf	(72/8),(72)&7
  5830                           	line	30
  5831                           	
  5832  0A42                     l9839:	
  5833                           ;lcd.c: 30: RE1=0;
  5834  0A42  1089               	bcf	(73/8),(73)&7
  5835                           	line	31
  5836                           	
  5837  0A43                     l9841:	
  5838                           ;lcd.c: 31: RE2=1;
  5839  0A43  1509               	bsf	(74/8),(74)&7
  5840                           	line	32
  5841                           	
  5842  0A44                     l9843:	
  5843                           ;lcd.c: 32: _delay((unsigned long)((5)*(20000000/4000.0)));
  5844                           	opt asmopt_off
  5845  0A44  3021               movlw	33
  5846  0A45  00B0               movwf	((??_lcd_write+0)+0+1),f
  5847  0A46  3076               	movlw	118
  5848  0A47  00AF               movwf	((??_lcd_write+0)+0),f
  5849  0A48                     u6577:
  5850  0A48  0BAF               	decfsz	((??_lcd_write+0)+0),f
  5851  0A49  2A48               	goto	u6577
  5852  0A4A  0BB0               	decfsz	((??_lcd_write+0)+0+1),f
  5853  0A4B  2A48               	goto	u6577
  5854  0A4C  0064               	clrwdt
  5855                           opt asmopt_on
  5856                           
  5857                           	line	33
  5858                           	
  5859  0A4D                     l9845:	
  5860                           ;lcd.c: 33: RE2=0;
  5861  0A4D  1283               	bcf	status, 5	;RP0=0, select bank0
  5862  0A4E  1303               	bcf	status, 6	;RP1=0, select bank0
  5863  0A4F  1109               	bcf	(74/8),(74)&7
  5864                           	line	36
  5865                           	
  5866  0A50                     l9847:	
  5867                           ;lcd.c: 36: PORTD=( data & 0x0F );
  5868  0A50  0831               	movf	(lcd_write@data),w
  5869  0A51  390F               	andlw	0Fh
  5870  0A52  0088               	movwf	(8)	;volatile
  5871                           	line	41
  5872                           	
  5873  0A53                     l9849:	
  5874                           ;lcd.c: 41: RE2=1;
  5875  0A53  1509               	bsf	(74/8),(74)&7
  5876                           	line	42
  5877                           	
  5878  0A54                     l9851:	
  5879                           ;lcd.c: 42: _delay((unsigned long)((5)*(20000000/4000.0)));
  5880                           	opt asmopt_off
  5881  0A54  3021               movlw	33
  5882  0A55  00B0               movwf	((??_lcd_write+0)+0+1),f
  5883  0A56  3076               	movlw	118
  5884  0A57  00AF               movwf	((??_lcd_write+0)+0),f
  5885  0A58                     u6587:
  5886  0A58  0BAF               	decfsz	((??_lcd_write+0)+0),f
  5887  0A59  2A58               	goto	u6587
  5888  0A5A  0BB0               	decfsz	((??_lcd_write+0)+0+1),f
  5889  0A5B  2A58               	goto	u6587
  5890  0A5C  0064               	clrwdt
  5891                           opt asmopt_on
  5892                           
  5893                           	line	43
  5894                           	
  5895  0A5D                     l9853:	
  5896                           ;lcd.c: 43: RE2=0;
  5897  0A5D  1283               	bcf	status, 5	;RP0=0, select bank0
  5898  0A5E  1303               	bcf	status, 6	;RP1=0, select bank0
  5899  0A5F  1109               	bcf	(74/8),(74)&7
  5900                           	line	45
  5901                           	
  5902  0A60                     l4905:	
  5903  0A60  0008               	return
  5904                           	opt stack 0
  5905                           GLOBAL	__end_of_lcd_write
  5906  0A61                     	__end_of_lcd_write:
  5907 ;; =============== function _lcd_write ends ============
  5908                           
  5909                           	signat	_lcd_write,4216
  5910                           	global	_lcd_cmd
  5911                           psect	text1482,local,class=CODE,delta=2
  5912                           global __ptext1482
  5913  0A05                     __ptext1482:
  5914                           
  5915 ;; *************** function _lcd_cmd *****************
  5916 ;; Defined at:
  5917 ;;		line 50 in file "lcd.c"
  5918 ;; Parameters:    Size  Location     Type
  5919 ;;  cmnd            1    wreg     unsigned char 
  5920 ;; Auto vars:     Size  Location     Type
  5921 ;;  cmnd            1   17[BANK0 ] unsigned char 
  5922 ;; Return value:  Size  Location     Type
  5923 ;;		None               void
  5924 ;; Registers used:
  5925 ;;		wreg, status,2, status,0
  5926 ;; Tracked objects:
  5927 ;;		On entry : 0/0
  5928 ;;		On exit  : 0/0
  5929 ;;		Unchanged: 0/0
  5930 ;; Data sizes:     COMMON   BANK0   BANK1   BANK3   BANK2
  5931 ;;      Params:         0       0       0       0       0
  5932 ;;      Locals:         0       1       0       0       0
  5933 ;;      Temps:          0       2       0       0       0
  5934 ;;      Totals:         0       3       0       0       0
  5935 ;;Total ram usage:        3 bytes
  5936 ;; Hardware stack levels used:    1
  5937 ;; Hardware stack levels required when called:    6
  5938 ;; This function calls:
  5939 ;;		Nothing
  5940 ;; This function is called by:
  5941 ;;		_lcd_init
  5942 ;;		_goto_XY
  5943 ;;		_lcd_clear
  5944 ;; This function uses a non-reentrant model
  5945 ;;
  5946                           psect	text1482
  5947                           	file	"lcd.c"
  5948                           	line	50
  5949                           	global	__size_of_lcd_cmd
  5950  002E                     	__size_of_lcd_cmd	equ	__end_of_lcd_cmd-_lcd_cmd
  5951                           	
  5952  0A05                     _lcd_cmd:	
  5953                           	opt	stack 2
  5954                           ; Regs used in _lcd_cmd: [wreg+status,2+status,0]
  5955                           ;lcd_cmd@cmnd stored from wreg
  5956                           	line	52
  5957  0A05  1283               	bcf	status, 5	;RP0=0, select bank0
  5958  0A06  1303               	bcf	status, 6	;RP1=0, select bank0
  5959  0A07  00B1               	movwf	(lcd_cmd@cmnd)
  5960                           	
  5961  0A08                     l9815:	
  5962                           ;lcd.c: 52: PORTD = ((cmnd >> 4)& 0x0F);
  5963  0A08  0831               	movf	(lcd_cmd@cmnd),w
  5964  0A09  00AF               	movwf	(??_lcd_cmd+0)+0
  5965  0A0A  3004               	movlw	04h
  5966  0A0B                     u5655:
  5967  0A0B  1003               	clrc
  5968  0A0C  0CAF               	rrf	(??_lcd_cmd+0)+0,f
  5969  0A0D  3EFF               	addlw	-1
  5970  0A0E  1D03               	skipz
  5971  0A0F  2A0B               	goto	u5655
  5972  0A10  082F               	movf	0+(??_lcd_cmd+0)+0,w
  5973  0A11  390F               	andlw	0Fh
  5974  0A12  0088               	movwf	(8)	;volatile
  5975                           	line	59
  5976                           	
  5977  0A13                     l9817:	
  5978                           ;lcd.c: 59: RE0=0;
  5979  0A13  1009               	bcf	(72/8),(72)&7
  5980                           	line	60
  5981                           	
  5982  0A14                     l9819:	
  5983                           ;lcd.c: 60: RE1=0;
  5984  0A14  1089               	bcf	(73/8),(73)&7
  5985                           	line	61
  5986                           	
  5987  0A15                     l9821:	
  5988                           ;lcd.c: 61: RE2=1;
  5989  0A15  1509               	bsf	(74/8),(74)&7
  5990                           	line	62
  5991                           	
  5992  0A16                     l9823:	
  5993                           ;lcd.c: 62: _delay((unsigned long)((5)*(20000000/4000.0)));
  5994                           	opt asmopt_off
  5995  0A16  3021               movlw	33
  5996  0A17  00B0               movwf	((??_lcd_cmd+0)+0+1),f
  5997  0A18  3076               	movlw	118
  5998  0A19  00AF               movwf	((??_lcd_cmd+0)+0),f
  5999  0A1A                     u6597:
  6000  0A1A  0BAF               	decfsz	((??_lcd_cmd+0)+0),f
  6001  0A1B  2A1A               	goto	u6597
  6002  0A1C  0BB0               	decfsz	((??_lcd_cmd+0)+0+1),f
  6003  0A1D  2A1A               	goto	u6597
  6004  0A1E  0064               	clrwdt
  6005                           opt asmopt_on
  6006                           
  6007                           	line	63
  6008                           	
  6009  0A1F                     l9825:	
  6010                           ;lcd.c: 63: RE2=0;
  6011  0A1F  1283               	bcf	status, 5	;RP0=0, select bank0
  6012  0A20  1303               	bcf	status, 6	;RP1=0, select bank0
  6013  0A21  1109               	bcf	(74/8),(74)&7
  6014                           	line	67
  6015                           	
  6016  0A22                     l9827:	
  6017                           ;lcd.c: 67: PORTD=( cmnd & 0x0F );
  6018  0A22  0831               	movf	(lcd_cmd@cmnd),w
  6019  0A23  390F               	andlw	0Fh
  6020  0A24  0088               	movwf	(8)	;volatile
  6021                           	line	73
  6022                           	
  6023  0A25                     l9829:	
  6024                           ;lcd.c: 73: RE2=1;
  6025  0A25  1509               	bsf	(74/8),(74)&7
  6026                           	line	74
  6027                           	
  6028  0A26                     l9831:	
  6029                           ;lcd.c: 74: _delay((unsigned long)((5)*(20000000/4000.0)));
  6030                           	opt asmopt_off
  6031  0A26  3021               movlw	33
  6032  0A27  00B0               movwf	((??_lcd_cmd+0)+0+1),f
  6033  0A28  3076               	movlw	118
  6034  0A29  00AF               movwf	((??_lcd_cmd+0)+0),f
  6035  0A2A                     u6607:
  6036  0A2A  0BAF               	decfsz	((??_lcd_cmd+0)+0),f
  6037  0A2B  2A2A               	goto	u6607
  6038  0A2C  0BB0               	decfsz	((??_lcd_cmd+0)+0+1),f
  6039  0A2D  2A2A               	goto	u6607
  6040  0A2E  0064               	clrwdt
  6041                           opt asmopt_on
  6042                           
  6043                           	line	75
  6044                           	
  6045  0A2F                     l9833:	
  6046                           ;lcd.c: 75: RE2=0;
  6047  0A2F  1283               	bcf	status, 5	;RP0=0, select bank0
  6048  0A30  1303               	bcf	status, 6	;RP1=0, select bank0
  6049  0A31  1109               	bcf	(74/8),(74)&7
  6050                           	line	77
  6051                           	
  6052  0A32                     l4908:	
  6053  0A32  0008               	return
  6054                           	opt stack 0
  6055                           GLOBAL	__end_of_lcd_cmd
  6056  0A33                     	__end_of_lcd_cmd:
  6057 ;; =============== function _lcd_cmd ends ============
  6058                           
  6059                           	signat	_lcd_cmd,4216
  6060                           	global	_isItFirstTime
  6061                           psect	text1483,local,class=CODE,delta=2
  6062                           global __ptext1483
  6063  00FF                     __ptext1483:
  6064                           
  6065 ;; *************** function _isItFirstTime *****************
  6066 ;; Defined at:
  6067 ;;		line 86 in file "MainCode.c"
  6068 ;; Parameters:    Size  Location     Type
  6069 ;;		None
  6070 ;; Auto vars:     Size  Location     Type
  6071 ;;		None
  6072 ;; Return value:  Size  Location     Type
  6073 ;;		None               void
  6074 ;; Registers used:
  6075 ;;		wreg, status,2, status,0
  6076 ;; Tracked objects:
  6077 ;;		On entry : 0/0
  6078 ;;		On exit  : 0/0
  6079 ;;		Unchanged: 0/0
  6080 ;; Data sizes:     COMMON   BANK0   BANK1   BANK3   BANK2
  6081 ;;      Params:         0       0       0       0       0
  6082 ;;      Locals:         0       0       0       0       0
  6083 ;;      Temps:          0       3       0       0       0
  6084 ;;      Totals:         0       3       0       0       0
  6085 ;;Total ram usage:        3 bytes
  6086 ;; Hardware stack levels used:    1
  6087 ;; Hardware stack levels required when called:    6
  6088 ;; This function calls:
  6089 ;;		Nothing
  6090 ;; This function is called by:
  6091 ;;		_main
  6092 ;; This function uses a non-reentrant model
  6093 ;;
  6094                           psect	text1483
  6095                           	file	"MainCode.c"
  6096                           	line	86
  6097                           	global	__size_of_isItFirstTime
  6098  0231                     	__size_of_isItFirstTime	equ	__end_of_isItFirstTime-_isItFirstTime
  6099                           	
  6100  00FF                     _isItFirstTime:	
  6101                           	opt	stack 7
  6102                           ; Regs used in _isItFirstTime: [wreg+status,2+status,0]
  6103                           	line	87
  6104                           	
  6105  00FF                     l9059:	
  6106                           ;MainCode.c: 87: if (0x00 == ((EEADR=(0x05)),(EECON1&=0x3F),(RD=1),EEDATA)) {
  6107  00FF  3005               	movlw	(05h)
  6108  0100  1283               	bcf	status, 5	;RP0=0, select bank2
  6109  0101  1703               	bsf	status, 6	;RP1=1, select bank2
  6110  0102  008D               	movwf	(269)^0100h	;volatile
  6111                           	
  6112  0103                     l9061:	
  6113  0103  303F               	movlw	(03Fh)
  6114  0104  1283               	bcf	status, 5	;RP0=0, select bank0
  6115  0105  1303               	bcf	status, 6	;RP1=0, select bank0
  6116  0106  00AF               	movwf	(??_isItFirstTime+0)+0
  6117  0107  082F               	movf	(??_isItFirstTime+0)+0,w
  6118  0108  1683               	bsf	status, 5	;RP0=1, select bank3
  6119  0109  1703               	bsf	status, 6	;RP1=1, select bank3
  6120  010A  058C               	andwf	(396)^0180h,f	;volatile
  6121                           	
  6122  010B                     l9063:	
  6123  010B  140C               	bsf	(3168/8)^0180h,(3168)&7
  6124  010C  1283               	bcf	status, 5	;RP0=0, select bank2
  6125  010D  1703               	bsf	status, 6	;RP1=1, select bank2
  6126  010E  088C               	movf	(268)^0100h,f
  6127  010F  1D03               	skipz	;volatile
  6128  0110  2912               	goto	u4491
  6129  0111  2913               	goto	u4490
  6130  0112                     u4491:
  6131  0112  2B2F               	goto	l3043
  6132  0113                     u4490:
  6133                           	line	89
  6134                           ;MainCode.c: 89: do{ while(WR)continue;EEADR=(0x10);EEDATA=(0x10); EECON1&=0x3F;CARRY=0;
                                 if(GIE)CARRY=1;GIE=0; WREN=1;EECON2=0x55;EECON2=0xAA;WR=1;WREN=0; if(CARRY)GIE=1; }while
                                 (0);
  6135                           	
  6136  0113                     l3044:	
  6137  0113  2914               	goto	l3045
  6138                           	
  6139  0114                     l3046:	
  6140                           	
  6141  0114                     l3045:	
  6142  0114  1683               	bsf	status, 5	;RP0=1, select bank3
  6143  0115  1703               	bsf	status, 6	;RP1=1, select bank3
  6144  0116  188C               	btfsc	(3169/8)^0180h,(3169)&7
  6145  0117  2919               	goto	u4501
  6146  0118  291A               	goto	u4500
  6147  0119                     u4501:
  6148  0119  2914               	goto	l3046
  6149  011A                     u4500:
  6150                           	
  6151  011A                     l3047:	
  6152                           	
  6153  011A                     l9065:	
  6154  011A  3010               	movlw	(010h)
  6155  011B  1283               	bcf	status, 5	;RP0=0, select bank2
  6156  011C  1703               	bsf	status, 6	;RP1=1, select bank2
  6157  011D  008D               	movwf	(269)^0100h	;volatile
  6158  011E  3010               	movlw	(010h)
  6159  011F  008C               	movwf	(268)^0100h	;volatile
  6160                           	
  6161  0120                     l9067:	
  6162  0120  303F               	movlw	(03Fh)
  6163  0121  1283               	bcf	status, 5	;RP0=0, select bank0
  6164  0122  1303               	bcf	status, 6	;RP1=0, select bank0
  6165  0123  00AF               	movwf	(??_isItFirstTime+0)+0
  6166  0124  082F               	movf	(??_isItFirstTime+0)+0,w
  6167  0125  1683               	bsf	status, 5	;RP0=1, select bank3
  6168  0126  1703               	bsf	status, 6	;RP1=1, select bank3
  6169  0127  058C               	andwf	(396)^0180h,f	;volatile
  6170                           	
  6171  0128                     l9069:	
  6172  0128  1283               	bcf	status, 5	;RP0=0, select bank0
  6173  0129  1303               	bcf	status, 6	;RP1=0, select bank0
  6174  012A  1003               	bcf	(24/8),(24)&7
  6175                           	
  6176  012B                     l9071:	
  6177  012B  1F8B               	btfss	(95/8),(95)&7
  6178  012C  292E               	goto	u4511
  6179  012D  292F               	goto	u4510
  6180  012E                     u4511:
  6181  012E  2930               	goto	l3048
  6182  012F                     u4510:
  6183                           	
  6184  012F                     l9073:	
  6185  012F  1403               	bsf	(24/8),(24)&7
  6186                           	
  6187  0130                     l3048:	
  6188  0130  138B               	bcf	(95/8),(95)&7
  6189  0131  1683               	bsf	status, 5	;RP0=1, select bank3
  6190  0132  1703               	bsf	status, 6	;RP1=1, select bank3
  6191  0133  150C               	bsf	(3170/8)^0180h,(3170)&7
  6192                           	
  6193  0134                     l9075:	
  6194  0134  3055               	movlw	(055h)
  6195  0135  008D               	movwf	(397)^0180h	;volatile
  6196  0136  30AA               	movlw	(0AAh)
  6197  0137  008D               	movwf	(397)^0180h	;volatile
  6198                           	
  6199  0138                     l9077:	
  6200  0138  148C               	bsf	(3169/8)^0180h,(3169)&7
  6201                           	
  6202  0139                     l9079:	
  6203  0139  110C               	bcf	(3170/8)^0180h,(3170)&7
  6204                           	
  6205  013A                     l9081:	
  6206  013A  1283               	bcf	status, 5	;RP0=0, select bank0
  6207  013B  1303               	bcf	status, 6	;RP1=0, select bank0
  6208  013C  1C03               	btfss	(24/8),(24)&7
  6209  013D  293F               	goto	u4521
  6210  013E  2940               	goto	u4520
  6211  013F                     u4521:
  6212  013F  2941               	goto	l3049
  6213  0140                     u4520:
  6214                           	
  6215  0140                     l9083:	
  6216  0140  178B               	bsf	(95/8),(95)&7
  6217                           	
  6218  0141                     l3049:	
  6219                           	
  6220  0141                     l3050:	
  6221                           	line	90
  6222                           	
  6223  0141                     l9085:	
  6224                           ;MainCode.c: 90: _delay((unsigned long)((100)*(20000000/4000.0)));
  6225                           	opt asmopt_off
  6226  0141  3003               movlw  3
  6227  0142  00B1               movwf	((??_isItFirstTime+0)+0+2),f
  6228  0143  3088               movlw	136
  6229  0144  00B0               movwf	((??_isItFirstTime+0)+0+1),f
  6230  0145  3056               	movlw	86
  6231  0146  00AF               movwf	((??_isItFirstTime+0)+0),f
  6232  0147                     u6617:
  6233  0147  0BAF               	decfsz	((??_isItFirstTime+0)+0),f
  6234  0148  2947               	goto	u6617
  6235  0149  0BB0               	decfsz	((??_isItFirstTime+0)+0+1),f
  6236  014A  2947               	goto	u6617
  6237  014B  0BB1               	decfsz	((??_isItFirstTime+0)+0+2),f
  6238  014C  2947               	goto	u6617
  6239                           opt asmopt_on
  6240                           
  6241                           	line	91
  6242                           ;MainCode.c: 91: do{ while(WR)continue;EEADR=(0x12);EEDATA=(0x10); EECON1&=0x3F;CARRY=0;
                                 if(GIE)CARRY=1;GIE=0; WREN=1;EECON2=0x55;EECON2=0xAA;WR=1;WREN=0; if(CARRY)GIE=1; }while
                                 (0);
  6243                           	
  6244  014D                     l3051:	
  6245  014D  294E               	goto	l3052
  6246                           	
  6247  014E                     l3053:	
  6248                           	
  6249  014E                     l3052:	
  6250  014E  1683               	bsf	status, 5	;RP0=1, select bank3
  6251  014F  1703               	bsf	status, 6	;RP1=1, select bank3
  6252  0150  188C               	btfsc	(3169/8)^0180h,(3169)&7
  6253  0151  2953               	goto	u4531
  6254  0152  2954               	goto	u4530
  6255  0153                     u4531:
  6256  0153  294E               	goto	l3053
  6257  0154                     u4530:
  6258                           	
  6259  0154                     l3054:	
  6260                           	
  6261  0154                     l9087:	
  6262  0154  3012               	movlw	(012h)
  6263  0155  1283               	bcf	status, 5	;RP0=0, select bank2
  6264  0156  1703               	bsf	status, 6	;RP1=1, select bank2
  6265  0157  008D               	movwf	(269)^0100h	;volatile
  6266  0158  3010               	movlw	(010h)
  6267  0159  008C               	movwf	(268)^0100h	;volatile
  6268                           	
  6269  015A                     l9089:	
  6270  015A  303F               	movlw	(03Fh)
  6271  015B  1283               	bcf	status, 5	;RP0=0, select bank0
  6272  015C  1303               	bcf	status, 6	;RP1=0, select bank0
  6273  015D  00AF               	movwf	(??_isItFirstTime+0)+0
  6274  015E  082F               	movf	(??_isItFirstTime+0)+0,w
  6275  015F  1683               	bsf	status, 5	;RP0=1, select bank3
  6276  0160  1703               	bsf	status, 6	;RP1=1, select bank3
  6277  0161  058C               	andwf	(396)^0180h,f	;volatile
  6278                           	
  6279  0162                     l9091:	
  6280  0162  1283               	bcf	status, 5	;RP0=0, select bank0
  6281  0163  1303               	bcf	status, 6	;RP1=0, select bank0
  6282  0164  1003               	bcf	(24/8),(24)&7
  6283                           	
  6284  0165                     l9093:	
  6285  0165  1F8B               	btfss	(95/8),(95)&7
  6286  0166  2968               	goto	u4541
  6287  0167  2969               	goto	u4540
  6288  0168                     u4541:
  6289  0168  296A               	goto	l3055
  6290  0169                     u4540:
  6291                           	
  6292  0169                     l9095:	
  6293  0169  1403               	bsf	(24/8),(24)&7
  6294                           	
  6295  016A                     l3055:	
  6296  016A  138B               	bcf	(95/8),(95)&7
  6297  016B  1683               	bsf	status, 5	;RP0=1, select bank3
  6298  016C  1703               	bsf	status, 6	;RP1=1, select bank3
  6299  016D  150C               	bsf	(3170/8)^0180h,(3170)&7
  6300                           	
  6301  016E                     l9097:	
  6302  016E  3055               	movlw	(055h)
  6303  016F  008D               	movwf	(397)^0180h	;volatile
  6304  0170  30AA               	movlw	(0AAh)
  6305  0171  008D               	movwf	(397)^0180h	;volatile
  6306                           	
  6307  0172                     l9099:	
  6308  0172  148C               	bsf	(3169/8)^0180h,(3169)&7
  6309                           	
  6310  0173                     l9101:	
  6311  0173  110C               	bcf	(3170/8)^0180h,(3170)&7
  6312                           	
  6313  0174                     l9103:	
  6314  0174  1283               	bcf	status, 5	;RP0=0, select bank0
  6315  0175  1303               	bcf	status, 6	;RP1=0, select bank0
  6316  0176  1C03               	btfss	(24/8),(24)&7
  6317  0177  2979               	goto	u4551
  6318  0178  297A               	goto	u4550
  6319  0179                     u4551:
  6320  0179  297B               	goto	l3056
  6321  017A                     u4550:
  6322                           	
  6323  017A                     l9105:	
  6324  017A  178B               	bsf	(95/8),(95)&7
  6325                           	
  6326  017B                     l3056:	
  6327                           	
  6328  017B                     l3057:	
  6329                           	line	92
  6330                           	
  6331  017B                     l9107:	
  6332                           ;MainCode.c: 92: _delay((unsigned long)((100)*(20000000/4000.0)));
  6333                           	opt asmopt_off
  6334  017B  3003               movlw  3
  6335  017C  00B1               movwf	((??_isItFirstTime+0)+0+2),f
  6336  017D  3088               movlw	136
  6337  017E  00B0               movwf	((??_isItFirstTime+0)+0+1),f
  6338  017F  3056               	movlw	86
  6339  0180  00AF               movwf	((??_isItFirstTime+0)+0),f
  6340  0181                     u6627:
  6341  0181  0BAF               	decfsz	((??_isItFirstTime+0)+0),f
  6342  0182  2981               	goto	u6627
  6343  0183  0BB0               	decfsz	((??_isItFirstTime+0)+0+1),f
  6344  0184  2981               	goto	u6627
  6345  0185  0BB1               	decfsz	((??_isItFirstTime+0)+0+2),f
  6346  0186  2981               	goto	u6627
  6347                           opt asmopt_on
  6348                           
  6349                           	line	93
  6350                           ;MainCode.c: 93: do{ while(WR)continue;EEADR=(0x14);EEDATA=(0x10); EECON1&=0x3F;CARRY=0;
                                 if(GIE)CARRY=1;GIE=0; WREN=1;EECON2=0x55;EECON2=0xAA;WR=1;WREN=0; if(CARRY)GIE=1; }while
                                 (0);
  6351                           	
  6352  0187                     l3058:	
  6353  0187  2988               	goto	l3059
  6354                           	
  6355  0188                     l3060:	
  6356                           	
  6357  0188                     l3059:	
  6358  0188  1683               	bsf	status, 5	;RP0=1, select bank3
  6359  0189  1703               	bsf	status, 6	;RP1=1, select bank3
  6360  018A  188C               	btfsc	(3169/8)^0180h,(3169)&7
  6361  018B  298D               	goto	u4561
  6362  018C  298E               	goto	u4560
  6363  018D                     u4561:
  6364  018D  2988               	goto	l3060
  6365  018E                     u4560:
  6366                           	
  6367  018E                     l3061:	
  6368                           	
  6369  018E                     l9109:	
  6370  018E  3014               	movlw	(014h)
  6371  018F  1283               	bcf	status, 5	;RP0=0, select bank2
  6372  0190  1703               	bsf	status, 6	;RP1=1, select bank2
  6373  0191  008D               	movwf	(269)^0100h	;volatile
  6374  0192  3010               	movlw	(010h)
  6375  0193  008C               	movwf	(268)^0100h	;volatile
  6376                           	
  6377  0194                     l9111:	
  6378  0194  303F               	movlw	(03Fh)
  6379  0195  1283               	bcf	status, 5	;RP0=0, select bank0
  6380  0196  1303               	bcf	status, 6	;RP1=0, select bank0
  6381  0197  00AF               	movwf	(??_isItFirstTime+0)+0
  6382  0198  082F               	movf	(??_isItFirstTime+0)+0,w
  6383  0199  1683               	bsf	status, 5	;RP0=1, select bank3
  6384  019A  1703               	bsf	status, 6	;RP1=1, select bank3
  6385  019B  058C               	andwf	(396)^0180h,f	;volatile
  6386                           	
  6387  019C                     l9113:	
  6388  019C  1283               	bcf	status, 5	;RP0=0, select bank0
  6389  019D  1303               	bcf	status, 6	;RP1=0, select bank0
  6390  019E  1003               	bcf	(24/8),(24)&7
  6391                           	
  6392  019F                     l9115:	
  6393  019F  1F8B               	btfss	(95/8),(95)&7
  6394  01A0  29A2               	goto	u4571
  6395  01A1  29A3               	goto	u4570
  6396  01A2                     u4571:
  6397  01A2  29A4               	goto	l3062
  6398  01A3                     u4570:
  6399                           	
  6400  01A3                     l9117:	
  6401  01A3  1403               	bsf	(24/8),(24)&7
  6402                           	
  6403  01A4                     l3062:	
  6404  01A4  138B               	bcf	(95/8),(95)&7
  6405  01A5  1683               	bsf	status, 5	;RP0=1, select bank3
  6406  01A6  1703               	bsf	status, 6	;RP1=1, select bank3
  6407  01A7  150C               	bsf	(3170/8)^0180h,(3170)&7
  6408                           	
  6409  01A8                     l9119:	
  6410  01A8  3055               	movlw	(055h)
  6411  01A9  008D               	movwf	(397)^0180h	;volatile
  6412  01AA  30AA               	movlw	(0AAh)
  6413  01AB  008D               	movwf	(397)^0180h	;volatile
  6414                           	
  6415  01AC                     l9121:	
  6416  01AC  148C               	bsf	(3169/8)^0180h,(3169)&7
  6417                           	
  6418  01AD                     l9123:	
  6419  01AD  110C               	bcf	(3170/8)^0180h,(3170)&7
  6420                           	
  6421  01AE                     l9125:	
  6422  01AE  1283               	bcf	status, 5	;RP0=0, select bank0
  6423  01AF  1303               	bcf	status, 6	;RP1=0, select bank0
  6424  01B0  1C03               	btfss	(24/8),(24)&7
  6425  01B1  29B3               	goto	u4581
  6426  01B2  29B4               	goto	u4580
  6427  01B3                     u4581:
  6428  01B3  29B5               	goto	l3063
  6429  01B4                     u4580:
  6430                           	
  6431  01B4                     l9127:	
  6432  01B4  178B               	bsf	(95/8),(95)&7
  6433                           	
  6434  01B5                     l3063:	
  6435                           	
  6436  01B5                     l3064:	
  6437                           	line	94
  6438                           	
  6439  01B5                     l9129:	
  6440                           ;MainCode.c: 94: _delay((unsigned long)((100)*(20000000/4000.0)));
  6441                           	opt asmopt_off
  6442  01B5  3003               movlw  3
  6443  01B6  00B1               movwf	((??_isItFirstTime+0)+0+2),f
  6444  01B7  3088               movlw	136
  6445  01B8  00B0               movwf	((??_isItFirstTime+0)+0+1),f
  6446  01B9  3056               	movlw	86
  6447  01BA  00AF               movwf	((??_isItFirstTime+0)+0),f
  6448  01BB                     u6637:
  6449  01BB  0BAF               	decfsz	((??_isItFirstTime+0)+0),f
  6450  01BC  29BB               	goto	u6637
  6451  01BD  0BB0               	decfsz	((??_isItFirstTime+0)+0+1),f
  6452  01BE  29BB               	goto	u6637
  6453  01BF  0BB1               	decfsz	((??_isItFirstTime+0)+0+2),f
  6454  01C0  29BB               	goto	u6637
  6455                           opt asmopt_on
  6456                           
  6457                           	line	95
  6458                           ;MainCode.c: 95: do{ while(WR)continue;EEADR=(0x16);EEDATA=(0x10); EECON1&=0x3F;CARRY=0;
                                 if(GIE)CARRY=1;GIE=0; WREN=1;EECON2=0x55;EECON2=0xAA;WR=1;WREN=0; if(CARRY)GIE=1; }while
                                 (0);
  6459                           	
  6460  01C1                     l3065:	
  6461  01C1  29C2               	goto	l3066
  6462                           	
  6463  01C2                     l3067:	
  6464                           	
  6465  01C2                     l3066:	
  6466  01C2  1683               	bsf	status, 5	;RP0=1, select bank3
  6467  01C3  1703               	bsf	status, 6	;RP1=1, select bank3
  6468  01C4  188C               	btfsc	(3169/8)^0180h,(3169)&7
  6469  01C5  29C7               	goto	u4591
  6470  01C6  29C8               	goto	u4590
  6471  01C7                     u4591:
  6472  01C7  29C2               	goto	l3067
  6473  01C8                     u4590:
  6474                           	
  6475  01C8                     l3068:	
  6476                           	
  6477  01C8                     l9131:	
  6478  01C8  3016               	movlw	(016h)
  6479  01C9  1283               	bcf	status, 5	;RP0=0, select bank2
  6480  01CA  1703               	bsf	status, 6	;RP1=1, select bank2
  6481  01CB  008D               	movwf	(269)^0100h	;volatile
  6482  01CC  3010               	movlw	(010h)
  6483  01CD  008C               	movwf	(268)^0100h	;volatile
  6484                           	
  6485  01CE                     l9133:	
  6486  01CE  303F               	movlw	(03Fh)
  6487  01CF  1283               	bcf	status, 5	;RP0=0, select bank0
  6488  01D0  1303               	bcf	status, 6	;RP1=0, select bank0
  6489  01D1  00AF               	movwf	(??_isItFirstTime+0)+0
  6490  01D2  082F               	movf	(??_isItFirstTime+0)+0,w
  6491  01D3  1683               	bsf	status, 5	;RP0=1, select bank3
  6492  01D4  1703               	bsf	status, 6	;RP1=1, select bank3
  6493  01D5  058C               	andwf	(396)^0180h,f	;volatile
  6494                           	
  6495  01D6                     l9135:	
  6496  01D6  1283               	bcf	status, 5	;RP0=0, select bank0
  6497  01D7  1303               	bcf	status, 6	;RP1=0, select bank0
  6498  01D8  1003               	bcf	(24/8),(24)&7
  6499                           	
  6500  01D9                     l9137:	
  6501  01D9  1F8B               	btfss	(95/8),(95)&7
  6502  01DA  29DC               	goto	u4601
  6503  01DB  29DD               	goto	u4600
  6504  01DC                     u4601:
  6505  01DC  29DE               	goto	l3069
  6506  01DD                     u4600:
  6507                           	
  6508  01DD                     l9139:	
  6509  01DD  1403               	bsf	(24/8),(24)&7
  6510                           	
  6511  01DE                     l3069:	
  6512  01DE  138B               	bcf	(95/8),(95)&7
  6513  01DF  1683               	bsf	status, 5	;RP0=1, select bank3
  6514  01E0  1703               	bsf	status, 6	;RP1=1, select bank3
  6515  01E1  150C               	bsf	(3170/8)^0180h,(3170)&7
  6516                           	
  6517  01E2                     l9141:	
  6518  01E2  3055               	movlw	(055h)
  6519  01E3  008D               	movwf	(397)^0180h	;volatile
  6520  01E4  30AA               	movlw	(0AAh)
  6521  01E5  008D               	movwf	(397)^0180h	;volatile
  6522                           	
  6523  01E6                     l9143:	
  6524  01E6  148C               	bsf	(3169/8)^0180h,(3169)&7
  6525                           	
  6526  01E7                     l9145:	
  6527  01E7  110C               	bcf	(3170/8)^0180h,(3170)&7
  6528                           	
  6529  01E8                     l9147:	
  6530  01E8  1283               	bcf	status, 5	;RP0=0, select bank0
  6531  01E9  1303               	bcf	status, 6	;RP1=0, select bank0
  6532  01EA  1C03               	btfss	(24/8),(24)&7
  6533  01EB  29ED               	goto	u4611
  6534  01EC  29EE               	goto	u4610
  6535  01ED                     u4611:
  6536  01ED  29EF               	goto	l3070
  6537  01EE                     u4610:
  6538                           	
  6539  01EE                     l9149:	
  6540  01EE  178B               	bsf	(95/8),(95)&7
  6541                           	
  6542  01EF                     l3070:	
  6543                           	
  6544  01EF                     l3071:	
  6545                           	line	96
  6546                           	
  6547  01EF                     l9151:	
  6548                           ;MainCode.c: 96: _delay((unsigned long)((100)*(20000000/4000.0)));
  6549                           	opt asmopt_off
  6550  01EF  3003               movlw  3
  6551  01F0  00B1               movwf	((??_isItFirstTime+0)+0+2),f
  6552  01F1  3088               movlw	136
  6553  01F2  00B0               movwf	((??_isItFirstTime+0)+0+1),f
  6554  01F3  3056               	movlw	86
  6555  01F4  00AF               movwf	((??_isItFirstTime+0)+0),f
  6556  01F5                     u6647:
  6557  01F5  0BAF               	decfsz	((??_isItFirstTime+0)+0),f
  6558  01F6  29F5               	goto	u6647
  6559  01F7  0BB0               	decfsz	((??_isItFirstTime+0)+0+1),f
  6560  01F8  29F5               	goto	u6647
  6561  01F9  0BB1               	decfsz	((??_isItFirstTime+0)+0+2),f
  6562  01FA  29F5               	goto	u6647
  6563                           opt asmopt_on
  6564                           
  6565                           	line	97
  6566                           ;MainCode.c: 97: do{ while(WR)continue;EEADR=(0x20);EEDATA=(0x10); EECON1&=0x3F;CARRY=0;
                                 if(GIE)CARRY=1;GIE=0; WREN=1;EECON2=0x55;EECON2=0xAA;WR=1;WREN=0; if(CARRY)GIE=1; }while
                                 (0);
  6567                           	
  6568  01FB                     l3072:	
  6569  01FB  29FC               	goto	l3073
  6570                           	
  6571  01FC                     l3074:	
  6572                           	
  6573  01FC                     l3073:	
  6574  01FC  1683               	bsf	status, 5	;RP0=1, select bank3
  6575  01FD  1703               	bsf	status, 6	;RP1=1, select bank3
  6576  01FE  188C               	btfsc	(3169/8)^0180h,(3169)&7
  6577  01FF  2A01               	goto	u4621
  6578  0200  2A02               	goto	u4620
  6579  0201                     u4621:
  6580  0201  29FC               	goto	l3074
  6581  0202                     u4620:
  6582                           	
  6583  0202                     l3075:	
  6584                           	
  6585  0202                     l9153:	
  6586  0202  3020               	movlw	(020h)
  6587  0203  1283               	bcf	status, 5	;RP0=0, select bank2
  6588  0204  1703               	bsf	status, 6	;RP1=1, select bank2
  6589  0205  008D               	movwf	(269)^0100h	;volatile
  6590  0206  3010               	movlw	(010h)
  6591  0207  008C               	movwf	(268)^0100h	;volatile
  6592                           	
  6593  0208                     l9155:	
  6594  0208  303F               	movlw	(03Fh)
  6595  0209  1283               	bcf	status, 5	;RP0=0, select bank0
  6596  020A  1303               	bcf	status, 6	;RP1=0, select bank0
  6597  020B  00AF               	movwf	(??_isItFirstTime+0)+0
  6598  020C  082F               	movf	(??_isItFirstTime+0)+0,w
  6599  020D  1683               	bsf	status, 5	;RP0=1, select bank3
  6600  020E  1703               	bsf	status, 6	;RP1=1, select bank3
  6601  020F  058C               	andwf	(396)^0180h,f	;volatile
  6602                           	
  6603  0210                     l9157:	
  6604  0210  1283               	bcf	status, 5	;RP0=0, select bank0
  6605  0211  1303               	bcf	status, 6	;RP1=0, select bank0
  6606  0212  1003               	bcf	(24/8),(24)&7
  6607                           	
  6608  0213                     l9159:	
  6609  0213  1F8B               	btfss	(95/8),(95)&7
  6610  0214  2A16               	goto	u4631
  6611  0215  2A17               	goto	u4630
  6612  0216                     u4631:
  6613  0216  2A18               	goto	l3076
  6614  0217                     u4630:
  6615                           	
  6616  0217                     l9161:	
  6617  0217  1403               	bsf	(24/8),(24)&7
  6618                           	
  6619  0218                     l3076:	
  6620  0218  138B               	bcf	(95/8),(95)&7
  6621  0219  1683               	bsf	status, 5	;RP0=1, select bank3
  6622  021A  1703               	bsf	status, 6	;RP1=1, select bank3
  6623  021B  150C               	bsf	(3170/8)^0180h,(3170)&7
  6624                           	
  6625  021C                     l9163:	
  6626  021C  3055               	movlw	(055h)
  6627  021D  008D               	movwf	(397)^0180h	;volatile
  6628  021E  30AA               	movlw	(0AAh)
  6629  021F  008D               	movwf	(397)^0180h	;volatile
  6630                           	
  6631  0220                     l9165:	
  6632  0220  148C               	bsf	(3169/8)^0180h,(3169)&7
  6633                           	
  6634  0221                     l9167:	
  6635  0221  110C               	bcf	(3170/8)^0180h,(3170)&7
  6636                           	
  6637  0222                     l9169:	
  6638  0222  1283               	bcf	status, 5	;RP0=0, select bank0
  6639  0223  1303               	bcf	status, 6	;RP1=0, select bank0
  6640  0224  1C03               	btfss	(24/8),(24)&7
  6641  0225  2A27               	goto	u4641
  6642  0226  2A28               	goto	u4640
  6643  0227                     u4641:
  6644  0227  2A29               	goto	l3077
  6645  0228                     u4640:
  6646                           	
  6647  0228                     l9171:	
  6648  0228  178B               	bsf	(95/8),(95)&7
  6649                           	
  6650  0229                     l3077:	
  6651                           	
  6652  0229                     l3078:	
  6653                           	line	98
  6654                           	
  6655  0229                     l9173:	
  6656                           ;MainCode.c: 98: _delay((unsigned long)((100)*(20000000/4000.0)));
  6657                           	opt asmopt_off
  6658  0229  3003               movlw  3
  6659  022A  00B1               movwf	((??_isItFirstTime+0)+0+2),f
  6660  022B  3088               movlw	136
  6661  022C  00B0               movwf	((??_isItFirstTime+0)+0+1),f
  6662  022D  3056               	movlw	86
  6663  022E  00AF               movwf	((??_isItFirstTime+0)+0),f
  6664  022F                     u6657:
  6665  022F  0BAF               	decfsz	((??_isItFirstTime+0)+0),f
  6666  0230  2A2F               	goto	u6657
  6667  0231  0BB0               	decfsz	((??_isItFirstTime+0)+0+1),f
  6668  0232  2A2F               	goto	u6657
  6669  0233  0BB1               	decfsz	((??_isItFirstTime+0)+0+2),f
  6670  0234  2A2F               	goto	u6657
  6671                           opt asmopt_on
  6672                           
  6673                           	line	99
  6674                           ;MainCode.c: 99: do{ while(WR)continue;EEADR=(0x22);EEDATA=(0x10); EECON1&=0x3F;CARRY=0;
                                 if(GIE)CARRY=1;GIE=0; WREN=1;EECON2=0x55;EECON2=0xAA;WR=1;WREN=0; if(CARRY)GIE=1; }while
                                 (0);
  6675                           	
  6676  0235                     l3079:	
  6677  0235  2A36               	goto	l3080
  6678                           	
  6679  0236                     l3081:	
  6680                           	
  6681  0236                     l3080:	
  6682  0236  1683               	bsf	status, 5	;RP0=1, select bank3
  6683  0237  1703               	bsf	status, 6	;RP1=1, select bank3
  6684  0238  188C               	btfsc	(3169/8)^0180h,(3169)&7
  6685  0239  2A3B               	goto	u4651
  6686  023A  2A3C               	goto	u4650
  6687  023B                     u4651:
  6688  023B  2A36               	goto	l3081
  6689  023C                     u4650:
  6690                           	
  6691  023C                     l3082:	
  6692                           	
  6693  023C                     l9175:	
  6694  023C  3022               	movlw	(022h)
  6695  023D  1283               	bcf	status, 5	;RP0=0, select bank2
  6696  023E  1703               	bsf	status, 6	;RP1=1, select bank2
  6697  023F  008D               	movwf	(269)^0100h	;volatile
  6698  0240  3010               	movlw	(010h)
  6699  0241  008C               	movwf	(268)^0100h	;volatile
  6700                           	
  6701  0242                     l9177:	
  6702  0242  303F               	movlw	(03Fh)
  6703  0243  1283               	bcf	status, 5	;RP0=0, select bank0
  6704  0244  1303               	bcf	status, 6	;RP1=0, select bank0
  6705  0245  00AF               	movwf	(??_isItFirstTime+0)+0
  6706  0246  082F               	movf	(??_isItFirstTime+0)+0,w
  6707  0247  1683               	bsf	status, 5	;RP0=1, select bank3
  6708  0248  1703               	bsf	status, 6	;RP1=1, select bank3
  6709  0249  058C               	andwf	(396)^0180h,f	;volatile
  6710                           	
  6711  024A                     l9179:	
  6712  024A  1283               	bcf	status, 5	;RP0=0, select bank0
  6713  024B  1303               	bcf	status, 6	;RP1=0, select bank0
  6714  024C  1003               	bcf	(24/8),(24)&7
  6715                           	
  6716  024D                     l9181:	
  6717  024D  1F8B               	btfss	(95/8),(95)&7
  6718  024E  2A50               	goto	u4661
  6719  024F  2A51               	goto	u4660
  6720  0250                     u4661:
  6721  0250  2A52               	goto	l3083
  6722  0251                     u4660:
  6723                           	
  6724  0251                     l9183:	
  6725  0251  1403               	bsf	(24/8),(24)&7
  6726                           	
  6727  0252                     l3083:	
  6728  0252  138B               	bcf	(95/8),(95)&7
  6729  0253  1683               	bsf	status, 5	;RP0=1, select bank3
  6730  0254  1703               	bsf	status, 6	;RP1=1, select bank3
  6731  0255  150C               	bsf	(3170/8)^0180h,(3170)&7
  6732                           	
  6733  0256                     l9185:	
  6734  0256  3055               	movlw	(055h)
  6735  0257  008D               	movwf	(397)^0180h	;volatile
  6736  0258  30AA               	movlw	(0AAh)
  6737  0259  008D               	movwf	(397)^0180h	;volatile
  6738                           	
  6739  025A                     l9187:	
  6740  025A  148C               	bsf	(3169/8)^0180h,(3169)&7
  6741                           	
  6742  025B                     l9189:	
  6743  025B  110C               	bcf	(3170/8)^0180h,(3170)&7
  6744                           	
  6745  025C                     l9191:	
  6746  025C  1283               	bcf	status, 5	;RP0=0, select bank0
  6747  025D  1303               	bcf	status, 6	;RP1=0, select bank0
  6748  025E  1C03               	btfss	(24/8),(24)&7
  6749  025F  2A61               	goto	u4671
  6750  0260  2A62               	goto	u4670
  6751  0261                     u4671:
  6752  0261  2A63               	goto	l3084
  6753  0262                     u4670:
  6754                           	
  6755  0262                     l9193:	
  6756  0262  178B               	bsf	(95/8),(95)&7
  6757                           	
  6758  0263                     l3084:	
  6759                           	
  6760  0263                     l3085:	
  6761                           	line	100
  6762                           	
  6763  0263                     l9195:	
  6764                           ;MainCode.c: 100: _delay((unsigned long)((100)*(20000000/4000.0)));
  6765                           	opt asmopt_off
  6766  0263  3003               movlw  3
  6767  0264  00B1               movwf	((??_isItFirstTime+0)+0+2),f
  6768  0265  3088               movlw	136
  6769  0266  00B0               movwf	((??_isItFirstTime+0)+0+1),f
  6770  0267  3056               	movlw	86
  6771  0268  00AF               movwf	((??_isItFirstTime+0)+0),f
  6772  0269                     u6667:
  6773  0269  0BAF               	decfsz	((??_isItFirstTime+0)+0),f
  6774  026A  2A69               	goto	u6667
  6775  026B  0BB0               	decfsz	((??_isItFirstTime+0)+0+1),f
  6776  026C  2A69               	goto	u6667
  6777  026D  0BB1               	decfsz	((??_isItFirstTime+0)+0+2),f
  6778  026E  2A69               	goto	u6667
  6779                           opt asmopt_on
  6780                           
  6781                           	line	101
  6782                           ;MainCode.c: 101: do{ while(WR)continue;EEADR=(0x24);EEDATA=(0x10); EECON1&=0x3F;CARRY=0
                                 ;if(GIE)CARRY=1;GIE=0; WREN=1;EECON2=0x55;EECON2=0xAA;WR=1;WREN=0; if(CARRY)GIE=1; }whil
                                 e(0);
  6783                           	
  6784  026F                     l3086:	
  6785  026F  2A70               	goto	l3087
  6786                           	
  6787  0270                     l3088:	
  6788                           	
  6789  0270                     l3087:	
  6790  0270  1683               	bsf	status, 5	;RP0=1, select bank3
  6791  0271  1703               	bsf	status, 6	;RP1=1, select bank3
  6792  0272  188C               	btfsc	(3169/8)^0180h,(3169)&7
  6793  0273  2A75               	goto	u4681
  6794  0274  2A76               	goto	u4680
  6795  0275                     u4681:
  6796  0275  2A70               	goto	l3088
  6797  0276                     u4680:
  6798                           	
  6799  0276                     l3089:	
  6800                           	
  6801  0276                     l9197:	
  6802  0276  3024               	movlw	(024h)
  6803  0277  1283               	bcf	status, 5	;RP0=0, select bank2
  6804  0278  1703               	bsf	status, 6	;RP1=1, select bank2
  6805  0279  008D               	movwf	(269)^0100h	;volatile
  6806  027A  3010               	movlw	(010h)
  6807  027B  008C               	movwf	(268)^0100h	;volatile
  6808                           	
  6809  027C                     l9199:	
  6810  027C  303F               	movlw	(03Fh)
  6811  027D  1283               	bcf	status, 5	;RP0=0, select bank0
  6812  027E  1303               	bcf	status, 6	;RP1=0, select bank0
  6813  027F  00AF               	movwf	(??_isItFirstTime+0)+0
  6814  0280  082F               	movf	(??_isItFirstTime+0)+0,w
  6815  0281  1683               	bsf	status, 5	;RP0=1, select bank3
  6816  0282  1703               	bsf	status, 6	;RP1=1, select bank3
  6817  0283  058C               	andwf	(396)^0180h,f	;volatile
  6818                           	
  6819  0284                     l9201:	
  6820  0284  1283               	bcf	status, 5	;RP0=0, select bank0
  6821  0285  1303               	bcf	status, 6	;RP1=0, select bank0
  6822  0286  1003               	bcf	(24/8),(24)&7
  6823                           	
  6824  0287                     l9203:	
  6825  0287  1F8B               	btfss	(95/8),(95)&7
  6826  0288  2A8A               	goto	u4691
  6827  0289  2A8B               	goto	u4690
  6828  028A                     u4691:
  6829  028A  2A8C               	goto	l3090
  6830  028B                     u4690:
  6831                           	
  6832  028B                     l9205:	
  6833  028B  1403               	bsf	(24/8),(24)&7
  6834                           	
  6835  028C                     l3090:	
  6836  028C  138B               	bcf	(95/8),(95)&7
  6837  028D  1683               	bsf	status, 5	;RP0=1, select bank3
  6838  028E  1703               	bsf	status, 6	;RP1=1, select bank3
  6839  028F  150C               	bsf	(3170/8)^0180h,(3170)&7
  6840                           	
  6841  0290                     l9207:	
  6842  0290  3055               	movlw	(055h)
  6843  0291  008D               	movwf	(397)^0180h	;volatile
  6844  0292  30AA               	movlw	(0AAh)
  6845  0293  008D               	movwf	(397)^0180h	;volatile
  6846                           	
  6847  0294                     l9209:	
  6848  0294  148C               	bsf	(3169/8)^0180h,(3169)&7
  6849                           	
  6850  0295                     l9211:	
  6851  0295  110C               	bcf	(3170/8)^0180h,(3170)&7
  6852                           	
  6853  0296                     l9213:	
  6854  0296  1283               	bcf	status, 5	;RP0=0, select bank0
  6855  0297  1303               	bcf	status, 6	;RP1=0, select bank0
  6856  0298  1C03               	btfss	(24/8),(24)&7
  6857  0299  2A9B               	goto	u4701
  6858  029A  2A9C               	goto	u4700
  6859  029B                     u4701:
  6860  029B  2A9D               	goto	l3091
  6861  029C                     u4700:
  6862                           	
  6863  029C                     l9215:	
  6864  029C  178B               	bsf	(95/8),(95)&7
  6865                           	
  6866  029D                     l3091:	
  6867                           	
  6868  029D                     l3092:	
  6869                           	line	102
  6870                           	
  6871  029D                     l9217:	
  6872                           ;MainCode.c: 102: _delay((unsigned long)((100)*(20000000/4000.0)));
  6873                           	opt asmopt_off
  6874  029D  3003               movlw  3
  6875  029E  00B1               movwf	((??_isItFirstTime+0)+0+2),f
  6876  029F  3088               movlw	136
  6877  02A0  00B0               movwf	((??_isItFirstTime+0)+0+1),f
  6878  02A1  3056               	movlw	86
  6879  02A2  00AF               movwf	((??_isItFirstTime+0)+0),f
  6880  02A3                     u6677:
  6881  02A3  0BAF               	decfsz	((??_isItFirstTime+0)+0),f
  6882  02A4  2AA3               	goto	u6677
  6883  02A5  0BB0               	decfsz	((??_isItFirstTime+0)+0+1),f
  6884  02A6  2AA3               	goto	u6677
  6885  02A7  0BB1               	decfsz	((??_isItFirstTime+0)+0+2),f
  6886  02A8  2AA3               	goto	u6677
  6887                           opt asmopt_on
  6888                           
  6889                           	line	103
  6890                           ;MainCode.c: 103: do{ while(WR)continue;EEADR=(0x26);EEDATA=(0x10); EECON1&=0x3F;CARRY=0
                                 ;if(GIE)CARRY=1;GIE=0; WREN=1;EECON2=0x55;EECON2=0xAA;WR=1;WREN=0; if(CARRY)GIE=1; }whil
                                 e(0);
  6891                           	
  6892  02A9                     l3093:	
  6893  02A9  2AAA               	goto	l3094
  6894                           	
  6895  02AA                     l3095:	
  6896                           	
  6897  02AA                     l3094:	
  6898  02AA  1683               	bsf	status, 5	;RP0=1, select bank3
  6899  02AB  1703               	bsf	status, 6	;RP1=1, select bank3
  6900  02AC  188C               	btfsc	(3169/8)^0180h,(3169)&7
  6901  02AD  2AAF               	goto	u4711
  6902  02AE  2AB0               	goto	u4710
  6903  02AF                     u4711:
  6904  02AF  2AAA               	goto	l3095
  6905  02B0                     u4710:
  6906                           	
  6907  02B0                     l3096:	
  6908                           	
  6909  02B0                     l9219:	
  6910  02B0  3026               	movlw	(026h)
  6911  02B1  1283               	bcf	status, 5	;RP0=0, select bank2
  6912  02B2  1703               	bsf	status, 6	;RP1=1, select bank2
  6913  02B3  008D               	movwf	(269)^0100h	;volatile
  6914  02B4  3010               	movlw	(010h)
  6915  02B5  008C               	movwf	(268)^0100h	;volatile
  6916                           	
  6917  02B6                     l9221:	
  6918  02B6  303F               	movlw	(03Fh)
  6919  02B7  1283               	bcf	status, 5	;RP0=0, select bank0
  6920  02B8  1303               	bcf	status, 6	;RP1=0, select bank0
  6921  02B9  00AF               	movwf	(??_isItFirstTime+0)+0
  6922  02BA  082F               	movf	(??_isItFirstTime+0)+0,w
  6923  02BB  1683               	bsf	status, 5	;RP0=1, select bank3
  6924  02BC  1703               	bsf	status, 6	;RP1=1, select bank3
  6925  02BD  058C               	andwf	(396)^0180h,f	;volatile
  6926                           	
  6927  02BE                     l9223:	
  6928  02BE  1283               	bcf	status, 5	;RP0=0, select bank0
  6929  02BF  1303               	bcf	status, 6	;RP1=0, select bank0
  6930  02C0  1003               	bcf	(24/8),(24)&7
  6931                           	
  6932  02C1                     l9225:	
  6933  02C1  1F8B               	btfss	(95/8),(95)&7
  6934  02C2  2AC4               	goto	u4721
  6935  02C3  2AC5               	goto	u4720
  6936  02C4                     u4721:
  6937  02C4  2AC6               	goto	l3097
  6938  02C5                     u4720:
  6939                           	
  6940  02C5                     l9227:	
  6941  02C5  1403               	bsf	(24/8),(24)&7
  6942                           	
  6943  02C6                     l3097:	
  6944  02C6  138B               	bcf	(95/8),(95)&7
  6945  02C7  1683               	bsf	status, 5	;RP0=1, select bank3
  6946  02C8  1703               	bsf	status, 6	;RP1=1, select bank3
  6947  02C9  150C               	bsf	(3170/8)^0180h,(3170)&7
  6948                           	
  6949  02CA                     l9229:	
  6950  02CA  3055               	movlw	(055h)
  6951  02CB  008D               	movwf	(397)^0180h	;volatile
  6952  02CC  30AA               	movlw	(0AAh)
  6953  02CD  008D               	movwf	(397)^0180h	;volatile
  6954                           	
  6955  02CE                     l9231:	
  6956  02CE  148C               	bsf	(3169/8)^0180h,(3169)&7
  6957                           	
  6958  02CF                     l9233:	
  6959  02CF  110C               	bcf	(3170/8)^0180h,(3170)&7
  6960                           	
  6961  02D0                     l9235:	
  6962  02D0  1283               	bcf	status, 5	;RP0=0, select bank0
  6963  02D1  1303               	bcf	status, 6	;RP1=0, select bank0
  6964  02D2  1C03               	btfss	(24/8),(24)&7
  6965  02D3  2AD5               	goto	u4731
  6966  02D4  2AD6               	goto	u4730
  6967  02D5                     u4731:
  6968  02D5  2AD7               	goto	l3098
  6969  02D6                     u4730:
  6970                           	
  6971  02D6                     l9237:	
  6972  02D6  178B               	bsf	(95/8),(95)&7
  6973                           	
  6974  02D7                     l3098:	
  6975                           	
  6976  02D7                     l3099:	
  6977                           	line	104
  6978                           	
  6979  02D7                     l9239:	
  6980                           ;MainCode.c: 104: _delay((unsigned long)((100)*(20000000/4000.0)));
  6981                           	opt asmopt_off
  6982  02D7  3003               movlw  3
  6983  02D8  00B1               movwf	((??_isItFirstTime+0)+0+2),f
  6984  02D9  3088               movlw	136
  6985  02DA  00B0               movwf	((??_isItFirstTime+0)+0+1),f
  6986  02DB  3056               	movlw	86
  6987  02DC  00AF               movwf	((??_isItFirstTime+0)+0),f
  6988  02DD                     u6687:
  6989  02DD  0BAF               	decfsz	((??_isItFirstTime+0)+0),f
  6990  02DE  2ADD               	goto	u6687
  6991  02DF  0BB0               	decfsz	((??_isItFirstTime+0)+0+1),f
  6992  02E0  2ADD               	goto	u6687
  6993  02E1  0BB1               	decfsz	((??_isItFirstTime+0)+0+2),f
  6994  02E2  2ADD               	goto	u6687
  6995                           opt asmopt_on
  6996                           
  6997                           	line	107
  6998                           ;MainCode.c: 107: CurrentCoffeeQuantity = 0x10;
  6999  02E3  3010               	movlw	(010h)
  7000  02E4  1283               	bcf	status, 5	;RP0=0, select bank0
  7001  02E5  1303               	bcf	status, 6	;RP1=0, select bank0
  7002  02E6  00AF               	movwf	(??_isItFirstTime+0)+0
  7003  02E7  082F               	movf	(??_isItFirstTime+0)+0,w
  7004  02E8  00D0               	movwf	(_CurrentCoffeeQuantity)
  7005                           	line	108
  7006                           ;MainCode.c: 108: CurrentWaterQuantity_forCoffee = 0x10;
  7007  02E9  3010               	movlw	(010h)
  7008  02EA  00AF               	movwf	(??_isItFirstTime+0)+0
  7009  02EB  082F               	movf	(??_isItFirstTime+0)+0,w
  7010  02EC  00D2               	movwf	(_CurrentWaterQuantity_forCoffee)
  7011                           	line	109
  7012                           ;MainCode.c: 109: CurrentTeaQuantity = 0x10;
  7013  02ED  3010               	movlw	(010h)
  7014  02EE  00AF               	movwf	(??_isItFirstTime+0)+0
  7015  02EF  082F               	movf	(??_isItFirstTime+0)+0,w
  7016  02F0  00D1               	movwf	(_CurrentTeaQuantity)
  7017                           	line	110
  7018                           ;MainCode.c: 110: CurrentWaterQuantity_forTea = 0x10;
  7019  02F1  3010               	movlw	(010h)
  7020  02F2  00AF               	movwf	(??_isItFirstTime+0)+0
  7021  02F3  082F               	movf	(??_isItFirstTime+0)+0,w
  7022  02F4  00D3               	movwf	(_CurrentWaterQuantity_forTea)
  7023                           	line	112
  7024                           ;MainCode.c: 112: do{ while(WR)continue;EEADR=(0x05);EEDATA=(0x01); EECON1&=0x3F;CARRY=0
                                 ;if(GIE)CARRY=1;GIE=0; WREN=1;EECON2=0x55;EECON2=0xAA;WR=1;WREN=0; if(CARRY)GIE=1; }whil
                                 e(0);
  7025                           	
  7026  02F5                     l3100:	
  7027  02F5  2AF6               	goto	l3101
  7028                           	
  7029  02F6                     l3102:	
  7030                           	
  7031  02F6                     l3101:	
  7032  02F6  1683               	bsf	status, 5	;RP0=1, select bank3
  7033  02F7  1703               	bsf	status, 6	;RP1=1, select bank3
  7034  02F8  188C               	btfsc	(3169/8)^0180h,(3169)&7
  7035  02F9  2AFB               	goto	u4741
  7036  02FA  2AFC               	goto	u4740
  7037  02FB                     u4741:
  7038  02FB  2AF6               	goto	l3102
  7039  02FC                     u4740:
  7040                           	
  7041  02FC                     l3103:	
  7042                           	
  7043  02FC                     l9241:	
  7044  02FC  3005               	movlw	(05h)
  7045  02FD  1283               	bcf	status, 5	;RP0=0, select bank2
  7046  02FE  1703               	bsf	status, 6	;RP1=1, select bank2
  7047  02FF  008D               	movwf	(269)^0100h	;volatile
  7048  0300  3001               	movlw	(01h)
  7049  0301  008C               	movwf	(268)^0100h	;volatile
  7050                           	
  7051  0302                     l9243:	
  7052  0302  303F               	movlw	(03Fh)
  7053  0303  1283               	bcf	status, 5	;RP0=0, select bank0
  7054  0304  1303               	bcf	status, 6	;RP1=0, select bank0
  7055  0305  00AF               	movwf	(??_isItFirstTime+0)+0
  7056  0306  082F               	movf	(??_isItFirstTime+0)+0,w
  7057  0307  1683               	bsf	status, 5	;RP0=1, select bank3
  7058  0308  1703               	bsf	status, 6	;RP1=1, select bank3
  7059  0309  058C               	andwf	(396)^0180h,f	;volatile
  7060                           	
  7061  030A                     l9245:	
  7062  030A  1283               	bcf	status, 5	;RP0=0, select bank0
  7063  030B  1303               	bcf	status, 6	;RP1=0, select bank0
  7064  030C  1003               	bcf	(24/8),(24)&7
  7065                           	
  7066  030D                     l9247:	
  7067  030D  1F8B               	btfss	(95/8),(95)&7
  7068  030E  2B10               	goto	u4751
  7069  030F  2B11               	goto	u4750
  7070  0310                     u4751:
  7071  0310  2B12               	goto	l3104
  7072  0311                     u4750:
  7073                           	
  7074  0311                     l9249:	
  7075  0311  1403               	bsf	(24/8),(24)&7
  7076                           	
  7077  0312                     l3104:	
  7078  0312  138B               	bcf	(95/8),(95)&7
  7079  0313  1683               	bsf	status, 5	;RP0=1, select bank3
  7080  0314  1703               	bsf	status, 6	;RP1=1, select bank3
  7081  0315  150C               	bsf	(3170/8)^0180h,(3170)&7
  7082                           	
  7083  0316                     l9251:	
  7084  0316  3055               	movlw	(055h)
  7085  0317  008D               	movwf	(397)^0180h	;volatile
  7086  0318  30AA               	movlw	(0AAh)
  7087  0319  008D               	movwf	(397)^0180h	;volatile
  7088                           	
  7089  031A                     l9253:	
  7090  031A  148C               	bsf	(3169/8)^0180h,(3169)&7
  7091                           	
  7092  031B                     l9255:	
  7093  031B  110C               	bcf	(3170/8)^0180h,(3170)&7
  7094                           	
  7095  031C                     l9257:	
  7096  031C  1283               	bcf	status, 5	;RP0=0, select bank0
  7097  031D  1303               	bcf	status, 6	;RP1=0, select bank0
  7098  031E  1C03               	btfss	(24/8),(24)&7
  7099  031F  2B21               	goto	u4761
  7100  0320  2B22               	goto	u4760
  7101  0321                     u4761:
  7102  0321  2B23               	goto	l3105
  7103  0322                     u4760:
  7104                           	
  7105  0322                     l9259:	
  7106  0322  178B               	bsf	(95/8),(95)&7
  7107                           	
  7108  0323                     l3105:	
  7109                           	
  7110  0323                     l3106:	
  7111                           	line	113
  7112                           	
  7113  0323                     l9261:	
  7114                           ;MainCode.c: 113: _delay((unsigned long)((100)*(20000000/4000.0)));
  7115                           	opt asmopt_off
  7116  0323  3003               movlw  3
  7117  0324  00B1               movwf	((??_isItFirstTime+0)+0+2),f
  7118  0325  3088               movlw	136
  7119  0326  00B0               movwf	((??_isItFirstTime+0)+0+1),f
  7120  0327  3056               	movlw	86
  7121  0328  00AF               movwf	((??_isItFirstTime+0)+0),f
  7122  0329                     u6697:
  7123  0329  0BAF               	decfsz	((??_isItFirstTime+0)+0),f
  7124  032A  2B29               	goto	u6697
  7125  032B  0BB0               	decfsz	((??_isItFirstTime+0)+0+1),f
  7126  032C  2B29               	goto	u6697
  7127  032D  0BB1               	decfsz	((??_isItFirstTime+0)+0+2),f
  7128  032E  2B29               	goto	u6697
  7129                           opt asmopt_on
  7130                           
  7131                           	line	114
  7132                           	
  7133  032F                     l3043:	
  7134                           	line	115
  7135                           	
  7136  032F                     l3107:	
  7137  032F  0008               	return
  7138                           	opt stack 0
  7139                           GLOBAL	__end_of_isItFirstTime
  7140  0330                     	__end_of_isItFirstTime:
  7141 ;; =============== function _isItFirstTime ends ============
  7142                           
  7143                           	signat	_isItFirstTime,88
  7144                           	global	___awmod
  7145                           psect	text1484,local,class=CODE,delta=2
  7146                           global __ptext1484
  7147  0CA7                     __ptext1484:
  7148                           
  7149 ;; *************** function ___awmod *****************
  7150 ;; Defined at:
  7151 ;;		line 5 in file "C:\Program Files (x86)\HI-TECH Software\PICC\9.71a\sources\awmod.c"
  7152 ;; Parameters:    Size  Location     Type
  7153 ;;  divisor         2   15[BANK0 ] int 
  7154 ;;  dividend        2   17[BANK0 ] int 
  7155 ;; Auto vars:     Size  Location     Type
  7156 ;;  sign            1   21[BANK0 ] unsigned char 
  7157 ;;  counter         1   20[BANK0 ] unsigned char 
  7158 ;; Return value:  Size  Location     Type
  7159 ;;                  2   15[BANK0 ] int 
  7160 ;; Registers used:
  7161 ;;		wreg, status,2, status,0
  7162 ;; Tracked objects:
  7163 ;;		On entry : 0/0
  7164 ;;		On exit  : 0/0
  7165 ;;		Unchanged: 0/0
  7166 ;; Data sizes:     COMMON   BANK0   BANK1   BANK3   BANK2
  7167 ;;      Params:         0       4       0       0       0
  7168 ;;      Locals:         0       2       0       0       0
  7169 ;;      Temps:          0       1       0       0       0
  7170 ;;      Totals:         0       7       0       0       0
  7171 ;;Total ram usage:        7 bytes
  7172 ;; Hardware stack levels used:    1
  7173 ;; Hardware stack levels required when called:    6
  7174 ;; This function calls:
  7175 ;;		Nothing
  7176 ;; This function is called by:
  7177 ;;		_lcd_writeThisDigit
  7178 ;; This function uses a non-reentrant model
  7179 ;;
  7180                           psect	text1484
  7181                           	file	"C:\Program Files (x86)\HI-TECH Software\PICC\9.71a\sources\awmod.c"
  7182                           	line	5
  7183                           	global	__size_of___awmod
  7184  0062                     	__size_of___awmod	equ	__end_of___awmod-___awmod
  7185                           	
  7186  0CA7                     ___awmod:	
  7187                           	opt	stack 1
  7188                           ; Regs used in ___awmod: [wreg+status,2+status,0]
  7189                           	line	8
  7190                           	
  7191  0CA7                     l9779:	
  7192  0CA7  1003               	clrc
  7193  0CA8  3000               	movlw	0
  7194  0CA9  1803               	btfsc	status,0
  7195  0CAA  3001               	movlw	1
  7196  0CAB  1283               	bcf	status, 5	;RP0=0, select bank0
  7197  0CAC  1303               	bcf	status, 6	;RP1=0, select bank0
  7198  0CAD  00B5               	movwf	(___awmod@sign)
  7199                           	line	9
  7200                           	
  7201  0CAE                     l9781:	
  7202  0CAE  1FB2               	btfss	(___awmod@dividend+1),7
  7203  0CAF  2CB1               	goto	u5561
  7204  0CB0  2CB2               	goto	u5560
  7205  0CB1                     u5561:
  7206  0CB1  2CBA               	goto	l6339
  7207  0CB2                     u5560:
  7208                           	line	10
  7209                           	
  7210  0CB2                     l9783:	
  7211  0CB2  09B1               	comf	(___awmod@dividend),f
  7212  0CB3  09B2               	comf	(___awmod@dividend+1),f
  7213  0CB4  0AB1               	incf	(___awmod@dividend),f
  7214  0CB5  1903               	skipnz
  7215  0CB6  0AB2               	incf	(___awmod@dividend+1),f
  7216                           	line	11
  7217  0CB7  01B5               	clrf	(___awmod@sign)
  7218  0CB8  1403               	bsf	status,0
  7219  0CB9  0DB5               	rlf	(___awmod@sign),f
  7220                           	line	12
  7221                           	
  7222  0CBA                     l6339:	
  7223                           	line	13
  7224                           	
  7225  0CBA                     l9785:	
  7226  0CBA  1FB0               	btfss	(___awmod@divisor+1),7
  7227  0CBB  2CBD               	goto	u5571
  7228  0CBC  2CBE               	goto	u5570
  7229  0CBD                     u5571:
  7230  0CBD  2CC3               	goto	l6340
  7231  0CBE                     u5570:
  7232                           	line	14
  7233                           	
  7234  0CBE                     l9787:	
  7235  0CBE  09AF               	comf	(___awmod@divisor),f
  7236  0CBF  09B0               	comf	(___awmod@divisor+1),f
  7237  0CC0  0AAF               	incf	(___awmod@divisor),f
  7238  0CC1  1903               	skipnz
  7239  0CC2  0AB0               	incf	(___awmod@divisor+1),f
  7240                           	
  7241  0CC3                     l6340:	
  7242                           	line	15
  7243                           	
  7244  0CC3                     l9789:	
  7245  0CC3  0830               	movf	(___awmod@divisor+1),w
  7246  0CC4  042F               	iorwf	(___awmod@divisor),w
  7247  0CC5  1903               	skipnz
  7248  0CC6  2CC8               	goto	u5581
  7249  0CC7  2CC9               	goto	u5580
  7250  0CC8                     u5581:
  7251  0CC8  2CF9               	goto	l6341
  7252  0CC9                     u5580:
  7253                           	line	16
  7254                           	
  7255  0CC9                     l9791:	
  7256  0CC9  01B4               	clrf	(___awmod@counter)
  7257  0CCA  1403               	bsf	status,0
  7258  0CCB  0DB4               	rlf	(___awmod@counter),f
  7259                           	line	17
  7260  0CCC  2CD8               	goto	l6342
  7261                           	
  7262  0CCD                     l6343:	
  7263                           	line	18
  7264                           	
  7265  0CCD                     l9793:	
  7266  0CCD  3001               	movlw	01h
  7267                           	
  7268  0CCE                     u5595:
  7269  0CCE  1003               	clrc
  7270  0CCF  0DAF               	rlf	(___awmod@divisor),f
  7271  0CD0  0DB0               	rlf	(___awmod@divisor+1),f
  7272  0CD1  3EFF               	addlw	-1
  7273  0CD2  1D03               	skipz
  7274  0CD3  2CCE               	goto	u5595
  7275                           	line	19
  7276                           	
  7277  0CD4                     l9795:	
  7278  0CD4  3001               	movlw	(01h)
  7279  0CD5  00B3               	movwf	(??___awmod+0)+0
  7280  0CD6  0833               	movf	(??___awmod+0)+0,w
  7281  0CD7  07B4               	addwf	(___awmod@counter),f
  7282                           	line	20
  7283                           	
  7284  0CD8                     l6342:	
  7285                           	line	17
  7286                           	
  7287  0CD8                     l9797:	
  7288  0CD8  1FB0               	btfss	(___awmod@divisor+1),(15)&7
  7289  0CD9  2CDB               	goto	u5601
  7290  0CDA  2CDC               	goto	u5600
  7291  0CDB                     u5601:
  7292  0CDB  2CCD               	goto	l6343
  7293  0CDC                     u5600:
  7294                           	
  7295  0CDC                     l6344:	
  7296                           	line	21
  7297                           	
  7298  0CDC                     l6345:	
  7299                           	line	22
  7300                           	
  7301  0CDC                     l9799:	
  7302  0CDC  0830               	movf	(___awmod@divisor+1),w
  7303  0CDD  0232               	subwf	(___awmod@dividend+1),w
  7304  0CDE  1D03               	skipz
  7305  0CDF  2CE2               	goto	u5615
  7306  0CE0  082F               	movf	(___awmod@divisor),w
  7307  0CE1  0231               	subwf	(___awmod@dividend),w
  7308  0CE2                     u5615:
  7309  0CE2  1C03               	skipc
  7310  0CE3  2CE5               	goto	u5611
  7311  0CE4  2CE6               	goto	u5610
  7312  0CE5                     u5611:
  7313  0CE5  2CEC               	goto	l6346
  7314  0CE6                     u5610:
  7315                           	line	23
  7316                           	
  7317  0CE6                     l9801:	
  7318  0CE6  082F               	movf	(___awmod@divisor),w
  7319  0CE7  02B1               	subwf	(___awmod@dividend),f
  7320  0CE8  0830               	movf	(___awmod@divisor+1),w
  7321  0CE9  1C03               	skipc
  7322  0CEA  03B2               	decf	(___awmod@dividend+1),f
  7323  0CEB  02B2               	subwf	(___awmod@dividend+1),f
  7324                           	
  7325  0CEC                     l6346:	
  7326                           	line	24
  7327                           	
  7328  0CEC                     l9803:	
  7329  0CEC  3001               	movlw	01h
  7330                           	
  7331  0CED                     u5625:
  7332  0CED  1003               	clrc
  7333  0CEE  0CB0               	rrf	(___awmod@divisor+1),f
  7334  0CEF  0CAF               	rrf	(___awmod@divisor),f
  7335  0CF0  3EFF               	addlw	-1
  7336  0CF1  1D03               	skipz
  7337  0CF2  2CED               	goto	u5625
  7338                           	line	25
  7339                           	
  7340  0CF3                     l9805:	
  7341  0CF3  3001               	movlw	low(01h)
  7342  0CF4  02B4               	subwf	(___awmod@counter),f
  7343  0CF5  1D03               	btfss	status,2
  7344  0CF6  2CF8               	goto	u5631
  7345  0CF7  2CF9               	goto	u5630
  7346  0CF8                     u5631:
  7347  0CF8  2CDC               	goto	l6345
  7348  0CF9                     u5630:
  7349                           	
  7350  0CF9                     l6347:	
  7351                           	line	26
  7352                           	
  7353  0CF9                     l6341:	
  7354                           	line	27
  7355                           	
  7356  0CF9                     l9807:	
  7357  0CF9  0835               	movf	(___awmod@sign),w
  7358  0CFA  1D03               	skipz
  7359  0CFB  2CFD               	goto	u5640
  7360  0CFC  2D02               	goto	l6348
  7361  0CFD                     u5640:
  7362                           	line	28
  7363                           	
  7364  0CFD                     l9809:	
  7365  0CFD  09B1               	comf	(___awmod@dividend),f
  7366  0CFE  09B2               	comf	(___awmod@dividend+1),f
  7367  0CFF  0AB1               	incf	(___awmod@dividend),f
  7368  0D00  1903               	skipnz
  7369  0D01  0AB2               	incf	(___awmod@dividend+1),f
  7370                           	
  7371  0D02                     l6348:	
  7372                           	line	29
  7373                           	
  7374  0D02                     l9811:	
  7375  0D02  0832               	movf	(___awmod@dividend+1),w
  7376  0D03  01B0               	clrf	(?___awmod+1)
  7377  0D04  07B0               	addwf	(?___awmod+1)
  7378  0D05  0831               	movf	(___awmod@dividend),w
  7379  0D06  01AF               	clrf	(?___awmod)
  7380  0D07  07AF               	addwf	(?___awmod)
  7381                           
  7382                           	
  7383  0D08                     l9813:	
  7384                           	line	30
  7385                           	
  7386  0D08                     l6349:	
  7387  0D08  0008               	return
  7388                           	opt stack 0
  7389                           GLOBAL	__end_of___awmod
  7390  0D09                     	__end_of___awmod:
  7391 ;; =============== function ___awmod ends ============
  7392                           
  7393                           	signat	___awmod,8314
  7394                           	global	___awdiv
  7395                           psect	text1485,local,class=CODE,delta=2
  7396                           global __ptext1485
  7397  0DE0                     __ptext1485:
  7398                           
  7399 ;; *************** function ___awdiv *****************
  7400 ;; Defined at:
  7401 ;;		line 5 in file "C:\Program Files (x86)\HI-TECH Software\PICC\9.71a\sources\awdiv.c"
  7402 ;; Parameters:    Size  Location     Type
  7403 ;;  divisor         2   15[BANK0 ] int 
  7404 ;;  dividend        2   17[BANK0 ] int 
  7405 ;; Auto vars:     Size  Location     Type
  7406 ;;  quotient        2   22[BANK0 ] int 
  7407 ;;  sign            1   21[BANK0 ] unsigned char 
  7408 ;;  counter         1   20[BANK0 ] unsigned char 
  7409 ;; Return value:  Size  Location     Type
  7410 ;;                  2   15[BANK0 ] int 
  7411 ;; Registers used:
  7412 ;;		wreg, status,2, status,0
  7413 ;; Tracked objects:
  7414 ;;		On entry : 0/0
  7415 ;;		On exit  : 0/0
  7416 ;;		Unchanged: 0/0
  7417 ;; Data sizes:     COMMON   BANK0   BANK1   BANK3   BANK2
  7418 ;;      Params:         0       4       0       0       0
  7419 ;;      Locals:         0       4       0       0       0
  7420 ;;      Temps:          0       1       0       0       0
  7421 ;;      Totals:         0       9       0       0       0
  7422 ;;Total ram usage:        9 bytes
  7423 ;; Hardware stack levels used:    1
  7424 ;; Hardware stack levels required when called:    6
  7425 ;; This function calls:
  7426 ;;		Nothing
  7427 ;; This function is called by:
  7428 ;;		_lcd_writeThisDigit
  7429 ;; This function uses a non-reentrant model
  7430 ;;
  7431                           psect	text1485
  7432                           	file	"C:\Program Files (x86)\HI-TECH Software\PICC\9.71a\sources\awdiv.c"
  7433                           	line	5
  7434                           	global	__size_of___awdiv
  7435  0072                     	__size_of___awdiv	equ	__end_of___awdiv-___awdiv
  7436                           	
  7437  0DE0                     ___awdiv:	
  7438                           	opt	stack 1
  7439                           ; Regs used in ___awdiv: [wreg+status,2+status,0]
  7440                           	line	9
  7441                           	
  7442  0DE0                     l9741:	
  7443  0DE0  1003               	clrc
  7444  0DE1  3000               	movlw	0
  7445  0DE2  1803               	btfsc	status,0
  7446  0DE3  3001               	movlw	1
  7447  0DE4  1283               	bcf	status, 5	;RP0=0, select bank0
  7448  0DE5  1303               	bcf	status, 6	;RP1=0, select bank0
  7449  0DE6  00B5               	movwf	(___awdiv@sign)
  7450                           	line	10
  7451                           	
  7452  0DE7                     l9743:	
  7453  0DE7  1FB0               	btfss	(___awdiv@divisor+1),7
  7454  0DE8  2DEA               	goto	u5461
  7455  0DE9  2DEB               	goto	u5460
  7456  0DEA                     u5461:
  7457  0DEA  2DF3               	goto	l6271
  7458  0DEB                     u5460:
  7459                           	line	11
  7460                           	
  7461  0DEB                     l9745:	
  7462  0DEB  09AF               	comf	(___awdiv@divisor),f
  7463  0DEC  09B0               	comf	(___awdiv@divisor+1),f
  7464  0DED  0AAF               	incf	(___awdiv@divisor),f
  7465  0DEE  1903               	skipnz
  7466  0DEF  0AB0               	incf	(___awdiv@divisor+1),f
  7467                           	line	12
  7468  0DF0  01B5               	clrf	(___awdiv@sign)
  7469  0DF1  1403               	bsf	status,0
  7470  0DF2  0DB5               	rlf	(___awdiv@sign),f
  7471                           	line	13
  7472                           	
  7473  0DF3                     l6271:	
  7474                           	line	14
  7475                           	
  7476  0DF3                     l9747:	
  7477  0DF3  1FB2               	btfss	(___awdiv@dividend+1),7
  7478  0DF4  2DF6               	goto	u5471
  7479  0DF5  2DF7               	goto	u5470
  7480  0DF6                     u5471:
  7481  0DF6  2E00               	goto	l6272
  7482  0DF7                     u5470:
  7483                           	line	15
  7484                           	
  7485  0DF7                     l9749:	
  7486  0DF7  09B1               	comf	(___awdiv@dividend),f
  7487  0DF8  09B2               	comf	(___awdiv@dividend+1),f
  7488  0DF9  0AB1               	incf	(___awdiv@dividend),f
  7489  0DFA  1903               	skipnz
  7490  0DFB  0AB2               	incf	(___awdiv@dividend+1),f
  7491                           	line	16
  7492                           	
  7493  0DFC                     l9751:	
  7494  0DFC  3001               	movlw	(01h)
  7495  0DFD  00B3               	movwf	(??___awdiv+0)+0
  7496  0DFE  0833               	movf	(??___awdiv+0)+0,w
  7497  0DFF  06B5               	xorwf	(___awdiv@sign),f
  7498                           	line	17
  7499                           	
  7500  0E00                     l6272:	
  7501                           	line	18
  7502  0E00  3000               	movlw	low(0)
  7503  0E01  00B6               	movwf	(___awdiv@quotient)
  7504  0E02  3000               	movlw	high(0)
  7505  0E03  00B7               	movwf	((___awdiv@quotient))+1
  7506                           	line	19
  7507  0E04  0830               	movf	(___awdiv@divisor+1),w
  7508  0E05  042F               	iorwf	(___awdiv@divisor),w
  7509  0E06  1903               	skipnz
  7510  0E07  2E09               	goto	u5481
  7511  0E08  2E0A               	goto	u5480
  7512  0E09                     u5481:
  7513  0E09  2E42               	goto	l6273
  7514  0E0A                     u5480:
  7515                           	line	20
  7516                           	
  7517  0E0A                     l9753:	
  7518  0E0A  01B4               	clrf	(___awdiv@counter)
  7519  0E0B  1403               	bsf	status,0
  7520  0E0C  0DB4               	rlf	(___awdiv@counter),f
  7521                           	line	21
  7522  0E0D  2E19               	goto	l6274
  7523                           	
  7524  0E0E                     l6275:	
  7525                           	line	22
  7526                           	
  7527  0E0E                     l9755:	
  7528  0E0E  3001               	movlw	01h
  7529                           	
  7530  0E0F                     u5495:
  7531  0E0F  1003               	clrc
  7532  0E10  0DAF               	rlf	(___awdiv@divisor),f
  7533  0E11  0DB0               	rlf	(___awdiv@divisor+1),f
  7534  0E12  3EFF               	addlw	-1
  7535  0E13  1D03               	skipz
  7536  0E14  2E0F               	goto	u5495
  7537                           	line	23
  7538                           	
  7539  0E15                     l9757:	
  7540  0E15  3001               	movlw	(01h)
  7541  0E16  00B3               	movwf	(??___awdiv+0)+0
  7542  0E17  0833               	movf	(??___awdiv+0)+0,w
  7543  0E18  07B4               	addwf	(___awdiv@counter),f
  7544                           	line	24
  7545                           	
  7546  0E19                     l6274:	
  7547                           	line	21
  7548                           	
  7549  0E19                     l9759:	
  7550  0E19  1FB0               	btfss	(___awdiv@divisor+1),(15)&7
  7551  0E1A  2E1C               	goto	u5501
  7552  0E1B  2E1D               	goto	u5500
  7553  0E1C                     u5501:
  7554  0E1C  2E0E               	goto	l6275
  7555  0E1D                     u5500:
  7556                           	
  7557  0E1D                     l6276:	
  7558                           	line	25
  7559                           	
  7560  0E1D                     l6277:	
  7561                           	line	26
  7562                           	
  7563  0E1D                     l9761:	
  7564  0E1D  3001               	movlw	01h
  7565                           	
  7566  0E1E                     u5515:
  7567  0E1E  1003               	clrc
  7568  0E1F  0DB6               	rlf	(___awdiv@quotient),f
  7569  0E20  0DB7               	rlf	(___awdiv@quotient+1),f
  7570  0E21  3EFF               	addlw	-1
  7571  0E22  1D03               	skipz
  7572  0E23  2E1E               	goto	u5515
  7573                           	line	27
  7574  0E24  0830               	movf	(___awdiv@divisor+1),w
  7575  0E25  0232               	subwf	(___awdiv@dividend+1),w
  7576  0E26  1D03               	skipz
  7577  0E27  2E2A               	goto	u5525
  7578  0E28  082F               	movf	(___awdiv@divisor),w
  7579  0E29  0231               	subwf	(___awdiv@dividend),w
  7580  0E2A                     u5525:
  7581  0E2A  1C03               	skipc
  7582  0E2B  2E2D               	goto	u5521
  7583  0E2C  2E2E               	goto	u5520
  7584  0E2D                     u5521:
  7585  0E2D  2E35               	goto	l6278
  7586  0E2E                     u5520:
  7587                           	line	28
  7588                           	
  7589  0E2E                     l9763:	
  7590  0E2E  082F               	movf	(___awdiv@divisor),w
  7591  0E2F  02B1               	subwf	(___awdiv@dividend),f
  7592  0E30  0830               	movf	(___awdiv@divisor+1),w
  7593  0E31  1C03               	skipc
  7594  0E32  03B2               	decf	(___awdiv@dividend+1),f
  7595  0E33  02B2               	subwf	(___awdiv@dividend+1),f
  7596                           	line	29
  7597                           	
  7598  0E34                     l9765:	
  7599  0E34  1436               	bsf	(___awdiv@quotient)+(0/8),(0)&7
  7600                           	line	30
  7601                           	
  7602  0E35                     l6278:	
  7603                           	line	31
  7604                           	
  7605  0E35                     l9767:	
  7606  0E35  3001               	movlw	01h
  7607                           	
  7608  0E36                     u5535:
  7609  0E36  1003               	clrc
  7610  0E37  0CB0               	rrf	(___awdiv@divisor+1),f
  7611  0E38  0CAF               	rrf	(___awdiv@divisor),f
  7612  0E39  3EFF               	addlw	-1
  7613  0E3A  1D03               	skipz
  7614  0E3B  2E36               	goto	u5535
  7615                           	line	32
  7616                           	
  7617  0E3C                     l9769:	
  7618  0E3C  3001               	movlw	low(01h)
  7619  0E3D  02B4               	subwf	(___awdiv@counter),f
  7620  0E3E  1D03               	btfss	status,2
  7621  0E3F  2E41               	goto	u5541
  7622  0E40  2E42               	goto	u5540
  7623  0E41                     u5541:
  7624  0E41  2E1D               	goto	l6277
  7625  0E42                     u5540:
  7626                           	
  7627  0E42                     l6279:	
  7628                           	line	33
  7629                           	
  7630  0E42                     l6273:	
  7631                           	line	34
  7632                           	
  7633  0E42                     l9771:	
  7634  0E42  0835               	movf	(___awdiv@sign),w
  7635  0E43  1D03               	skipz
  7636  0E44  2E46               	goto	u5550
  7637  0E45  2E4B               	goto	l6280
  7638  0E46                     u5550:
  7639                           	line	35
  7640                           	
  7641  0E46                     l9773:	
  7642  0E46  09B6               	comf	(___awdiv@quotient),f
  7643  0E47  09B7               	comf	(___awdiv@quotient+1),f
  7644  0E48  0AB6               	incf	(___awdiv@quotient),f
  7645  0E49  1903               	skipnz
  7646  0E4A  0AB7               	incf	(___awdiv@quotient+1),f
  7647                           	
  7648  0E4B                     l6280:	
  7649                           	line	36
  7650                           	
  7651  0E4B                     l9775:	
  7652  0E4B  0837               	movf	(___awdiv@quotient+1),w
  7653  0E4C  01B0               	clrf	(?___awdiv+1)
  7654  0E4D  07B0               	addwf	(?___awdiv+1)
  7655  0E4E  0836               	movf	(___awdiv@quotient),w
  7656  0E4F  01AF               	clrf	(?___awdiv)
  7657  0E50  07AF               	addwf	(?___awdiv)
  7658                           
  7659                           	
  7660  0E51                     l9777:	
  7661                           	line	37
  7662                           	
  7663  0E51                     l6281:	
  7664  0E51  0008               	return
  7665                           	opt stack 0
  7666                           GLOBAL	__end_of___awdiv
  7667  0E52                     	__end_of___awdiv:
  7668 ;; =============== function ___awdiv ends ============
  7669                           
  7670                           	signat	___awdiv,8314
  7671                           	global	_initialisePortB
  7672                           psect	text1486,local,class=CODE,delta=2
  7673                           global __ptext1486
  7674  0813                     __ptext1486:
  7675                           
  7676 ;; *************** function _initialisePortB *****************
  7677 ;; Defined at:
  7678 ;;		line 4 in file "PORTB_Config.c"
  7679 ;; Parameters:    Size  Location     Type
  7680 ;;		None
  7681 ;; Auto vars:     Size  Location     Type
  7682 ;;		None
  7683 ;; Return value:  Size  Location     Type
  7684 ;;		None               void
  7685 ;; Registers used:
  7686 ;;		wreg
  7687 ;; Tracked objects:
  7688 ;;		On entry : 0/0
  7689 ;;		On exit  : 0/0
  7690 ;;		Unchanged: 0/0
  7691 ;; Data sizes:     COMMON   BANK0   BANK1   BANK3   BANK2
  7692 ;;      Params:         0       0       0       0       0
  7693 ;;      Locals:         0       0       0       0       0
  7694 ;;      Temps:          0       0       0       0       0
  7695 ;;      Totals:         0       0       0       0       0
  7696 ;;Total ram usage:        0 bytes
  7697 ;; Hardware stack levels used:    1
  7698 ;; Hardware stack levels required when called:    6
  7699 ;; This function calls:
  7700 ;;		Nothing
  7701 ;; This function is called by:
  7702 ;;		_peripheral_initialsation
  7703 ;; This function uses a non-reentrant model
  7704 ;;
  7705                           psect	text1486
  7706                           	file	"PORTB_Config.c"
  7707                           	line	4
  7708                           	global	__size_of_initialisePortB
  7709  0006                     	__size_of_initialisePortB	equ	__end_of_initialisePortB-_initialisePortB
  7710                           	
  7711  0813                     _initialisePortB:	
  7712                           	opt	stack 6
  7713                           ; Regs used in _initialisePortB: [wreg]
  7714                           	line	5
  7715                           	
  7716  0813                     l8789:	
  7717                           ;PORTB_Config.c: 5: TRISB = 0b00000001;
  7718  0813  3001               	movlw	(01h)
  7719  0814  1683               	bsf	status, 5	;RP0=1, select bank1
  7720  0815  1303               	bcf	status, 6	;RP1=0, select bank1
  7721  0816  0086               	movwf	(134)^080h	;volatile
  7722                           	line	6
  7723                           	
  7724  0817                     l8791:	
  7725                           ;PORTB_Config.c: 6: RBPU = 1;
  7726  0817  1781               	bsf	(1039/8)^080h,(1039)&7
  7727                           	line	8
  7728                           	
  7729  0818                     l3666:	
  7730  0818  0008               	return
  7731                           	opt stack 0
  7732                           GLOBAL	__end_of_initialisePortB
  7733  0819                     	__end_of_initialisePortB:
  7734 ;; =============== function _initialisePortB ends ============
  7735                           
  7736                           	signat	_initialisePortB,88
  7737                           	global	_default_initialisations
  7738                           psect	text1487,local,class=CODE,delta=2
  7739                           global __ptext1487
  7740  0844                     __ptext1487:
  7741                           
  7742 ;; *************** function _default_initialisations *****************
  7743 ;; Defined at:
  7744 ;;		line 68 in file "MainCode.c"
  7745 ;; Parameters:    Size  Location     Type
  7746 ;;		None
  7747 ;; Auto vars:     Size  Location     Type
  7748 ;;		None
  7749 ;; Return value:  Size  Location     Type
  7750 ;;		None               void
  7751 ;; Registers used:
  7752 ;;		wreg, status,2, status,0
  7753 ;; Tracked objects:
  7754 ;;		On entry : 0/0
  7755 ;;		On exit  : 0/0
  7756 ;;		Unchanged: 0/0
  7757 ;; Data sizes:     COMMON   BANK0   BANK1   BANK3   BANK2
  7758 ;;      Params:         0       0       0       0       0
  7759 ;;      Locals:         0       0       0       0       0
  7760 ;;      Temps:          0       0       0       0       0
  7761 ;;      Totals:         0       0       0       0       0
  7762 ;;Total ram usage:        0 bytes
  7763 ;; Hardware stack levels used:    1
  7764 ;; Hardware stack levels required when called:    6
  7765 ;; This function calls:
  7766 ;;		Nothing
  7767 ;; This function is called by:
  7768 ;;		_main
  7769 ;; This function uses a non-reentrant model
  7770 ;;
  7771                           psect	text1487
  7772                           	file	"MainCode.c"
  7773                           	line	68
  7774                           	global	__size_of_default_initialisations
  7775  0011                     	__size_of_default_initialisations	equ	__end_of_default_initialisations-_default_initial
                                 isations
  7776                           	
  7777  0844                     _default_initialisations:	
  7778                           	opt	stack 7
  7779                           ; Regs used in _default_initialisations: [wreg+status,2+status,0]
  7780                           	line	69
  7781                           	
  7782  0844                     l8777:	
  7783                           ;MainCode.c: 69: ADCON1 = 0x06;
  7784  0844  3006               	movlw	(06h)
  7785  0845  1683               	bsf	status, 5	;RP0=1, select bank1
  7786  0846  1303               	bcf	status, 6	;RP1=0, select bank1
  7787  0847  009F               	movwf	(159)^080h	;volatile
  7788                           	line	70
  7789                           	
  7790  0848                     l8779:	
  7791                           ;MainCode.c: 70: TRISE = 0x00;
  7792  0848  0189               	clrf	(137)^080h	;volatile
  7793                           	line	71
  7794                           	
  7795  0849                     l8781:	
  7796                           ;MainCode.c: 71: TRISD = 0x00;
  7797  0849  0188               	clrf	(136)^080h	;volatile
  7798                           	line	72
  7799                           ;MainCode.c: 72: TRISB = 0x01;
  7800  084A  3001               	movlw	(01h)
  7801  084B  0086               	movwf	(134)^080h	;volatile
  7802                           	line	73
  7803                           	
  7804  084C                     l8783:	
  7805                           ;MainCode.c: 73: TRISA = 0x00;
  7806  084C  0185               	clrf	(133)^080h	;volatile
  7807                           	line	75
  7808                           	
  7809  084D                     l8785:	
  7810                           ;MainCode.c: 75: PORTB = 0x01;
  7811  084D  3001               	movlw	(01h)
  7812  084E  1283               	bcf	status, 5	;RP0=0, select bank0
  7813  084F  1303               	bcf	status, 6	;RP1=0, select bank0
  7814  0850  0086               	movwf	(6)	;volatile
  7815                           	line	78
  7816                           	
  7817  0851                     l8787:	
  7818                           ;MainCode.c: 78: modeOfWorking = 1;
  7819  0851  01D4               	clrf	(_modeOfWorking)
  7820  0852  1403               	bsf	status,0
  7821  0853  0DD4               	rlf	(_modeOfWorking),f
  7822                           	line	79
  7823                           	
  7824  0854                     l3037:	
  7825  0854  0008               	return
  7826                           	opt stack 0
  7827                           GLOBAL	__end_of_default_initialisations
  7828  0855                     	__end_of_default_initialisations:
  7829 ;; =============== function _default_initialisations ends ============
  7830                           
  7831                           	signat	_default_initialisations,88
  7832                           	global	_enableInterrupt_RB0
  7833                           psect	text1488,local,class=CODE,delta=2
  7834                           global __ptext1488
  7835  080E                     __ptext1488:
  7836                           
  7837 ;; *************** function _enableInterrupt_RB0 *****************
  7838 ;; Defined at:
  7839 ;;		line 11 in file "PORTB_Config.c"
  7840 ;; Parameters:    Size  Location     Type
  7841 ;;		None
  7842 ;; Auto vars:     Size  Location     Type
  7843 ;;		None
  7844 ;; Return value:  Size  Location     Type
  7845 ;;		None               void
  7846 ;; Registers used:
  7847 ;;		None
  7848 ;; Tracked objects:
  7849 ;;		On entry : 0/0
  7850 ;;		On exit  : 0/0
  7851 ;;		Unchanged: 0/0
  7852 ;; Data sizes:     COMMON   BANK0   BANK1   BANK3   BANK2
  7853 ;;      Params:         0       0       0       0       0
  7854 ;;      Locals:         0       0       0       0       0
  7855 ;;      Temps:          0       0       0       0       0
  7856 ;;      Totals:         0       0       0       0       0
  7857 ;;Total ram usage:        0 bytes
  7858 ;; Hardware stack levels used:    1
  7859 ;; Hardware stack levels required when called:    6
  7860 ;; This function calls:
  7861 ;;		Nothing
  7862 ;; This function is called by:
  7863 ;;		_peripheral_initialsation
  7864 ;; This function uses a non-reentrant model
  7865 ;;
  7866                           psect	text1488
  7867                           	file	"PORTB_Config.c"
  7868                           	line	11
  7869                           	global	__size_of_enableInterrupt_RB0
  7870  0005                     	__size_of_enableInterrupt_RB0	equ	__end_of_enableInterrupt_RB0-_enableInterrupt_RB0
  7871                           	
  7872  080E                     _enableInterrupt_RB0:	
  7873                           	opt	stack 6
  7874                           ; Regs used in _enableInterrupt_RB0: []
  7875                           	line	12
  7876                           	
  7877  080E                     l8775:	
  7878                           ;PORTB_Config.c: 12: INTEDG = 0;
  7879  080E  1683               	bsf	status, 5	;RP0=1, select bank1
  7880  080F  1303               	bcf	status, 6	;RP1=0, select bank1
  7881  0810  1301               	bcf	(1038/8)^080h,(1038)&7
  7882                           	line	13
  7883                           ;PORTB_Config.c: 13: INTE = 1;
  7884  0811  160B               	bsf	(92/8),(92)&7
  7885                           	line	14
  7886                           	
  7887  0812                     l3669:	
  7888  0812  0008               	return
  7889                           	opt stack 0
  7890                           GLOBAL	__end_of_enableInterrupt_RB0
  7891  0813                     	__end_of_enableInterrupt_RB0:
  7892 ;; =============== function _enableInterrupt_RB0 ends ============
  7893                           
  7894                           	signat	_enableInterrupt_RB0,88
  7895                           	global	_PeripheralInterrupt_DISABLE
  7896                           psect	text1489,local,class=CODE,delta=2
  7897                           global __ptext1489
  7898  0807                     __ptext1489:
  7899                           
  7900 ;; *************** function _PeripheralInterrupt_DISABLE *****************
  7901 ;; Defined at:
  7902 ;;		line 27 in file "CommonDeclarations.c"
  7903 ;; Parameters:    Size  Location     Type
  7904 ;;		None
  7905 ;; Auto vars:     Size  Location     Type
  7906 ;;		None
  7907 ;; Return value:  Size  Location     Type
  7908 ;;		None               void
  7909 ;; Registers used:
  7910 ;;		None
  7911 ;; Tracked objects:
  7912 ;;		On entry : 0/0
  7913 ;;		On exit  : 0/0
  7914 ;;		Unchanged: 0/0
  7915 ;; Data sizes:     COMMON   BANK0   BANK1   BANK3   BANK2
  7916 ;;      Params:         0       0       0       0       0
  7917 ;;      Locals:         0       0       0       0       0
  7918 ;;      Temps:          0       0       0       0       0
  7919 ;;      Totals:         0       0       0       0       0
  7920 ;;Total ram usage:        0 bytes
  7921 ;; Hardware stack levels used:    1
  7922 ;; Hardware stack levels required when called:    6
  7923 ;; This function calls:
  7924 ;;		Nothing
  7925 ;; This function is called by:
  7926 ;;		_peripheral_initialsation
  7927 ;; This function uses a non-reentrant model
  7928 ;;
  7929                           psect	text1489
  7930                           	file	"CommonDeclarations.c"
  7931                           	line	27
  7932                           	global	__size_of_PeripheralInterrupt_DISABLE
  7933  0002                     	__size_of_PeripheralInterrupt_DISABLE	equ	__end_of_PeripheralInterrupt_DISABLE-_Periphe
                                 ralInterrupt_DISABLE
  7934                           	
  7935  0807                     _PeripheralInterrupt_DISABLE:	
  7936                           	opt	stack 6
  7937                           ; Regs used in _PeripheralInterrupt_DISABLE: []
  7938                           	line	28
  7939                           	
  7940  0807                     l8693:	
  7941                           ;CommonDeclarations.c: 28: PEIE = 0;
  7942  0807  130B               	bcf	(94/8),(94)&7
  7943                           	line	29
  7944                           	
  7945  0808                     l1177:	
  7946  0808  0008               	return
  7947                           	opt stack 0
  7948                           GLOBAL	__end_of_PeripheralInterrupt_DISABLE
  7949  0809                     	__end_of_PeripheralInterrupt_DISABLE:
  7950 ;; =============== function _PeripheralInterrupt_DISABLE ends ============
  7951                           
  7952                           	signat	_PeripheralInterrupt_DISABLE,88
  7953                           	global	_GlobalInterrupt_ENABLE
  7954                           psect	text1490,local,class=CODE,delta=2
  7955                           global __ptext1490
  7956  0805                     __ptext1490:
  7957                           
  7958 ;; *************** function _GlobalInterrupt_ENABLE *****************
  7959 ;; Defined at:
  7960 ;;		line 15 in file "CommonDeclarations.c"
  7961 ;; Parameters:    Size  Location     Type
  7962 ;;		None
  7963 ;; Auto vars:     Size  Location     Type
  7964 ;;		None
  7965 ;; Return value:  Size  Location     Type
  7966 ;;		None               void
  7967 ;; Registers used:
  7968 ;;		None
  7969 ;; Tracked objects:
  7970 ;;		On entry : 0/0
  7971 ;;		On exit  : 0/0
  7972 ;;		Unchanged: 0/0
  7973 ;; Data sizes:     COMMON   BANK0   BANK1   BANK3   BANK2
  7974 ;;      Params:         0       0       0       0       0
  7975 ;;      Locals:         0       0       0       0       0
  7976 ;;      Temps:          0       0       0       0       0
  7977 ;;      Totals:         0       0       0       0       0
  7978 ;;Total ram usage:        0 bytes
  7979 ;; Hardware stack levels used:    1
  7980 ;; Hardware stack levels required when called:    6
  7981 ;; This function calls:
  7982 ;;		Nothing
  7983 ;; This function is called by:
  7984 ;;		_peripheral_initialsation
  7985 ;;		_initialise_timer0
  7986 ;; This function uses a non-reentrant model
  7987 ;;
  7988                           psect	text1490
  7989                           	file	"CommonDeclarations.c"
  7990                           	line	15
  7991                           	global	__size_of_GlobalInterrupt_ENABLE
  7992  0002                     	__size_of_GlobalInterrupt_ENABLE	equ	__end_of_GlobalInterrupt_ENABLE-_GlobalInterrupt_E
                                 NABLE
  7993                           	
  7994  0805                     _GlobalInterrupt_ENABLE:	
  7995                           	opt	stack 6
  7996                           ; Regs used in _GlobalInterrupt_ENABLE: []
  7997                           	line	16
  7998                           	
  7999  0805                     l8691:	
  8000                           ;CommonDeclarations.c: 16: GIE = 1;
  8001  0805  178B               	bsf	(95/8),(95)&7
  8002                           	line	17
  8003                           	
  8004  0806                     l1168:	
  8005  0806  0008               	return
  8006                           	opt stack 0
  8007                           GLOBAL	__end_of_GlobalInterrupt_ENABLE
  8008  0807                     	__end_of_GlobalInterrupt_ENABLE:
  8009 ;; =============== function _GlobalInterrupt_ENABLE ends ============
  8010                           
  8011                           	signat	_GlobalInterrupt_ENABLE,88
  8012                           	global	_ISR
  8013                           psect	text1491,local,class=CODE,delta=2
  8014                           global __ptext1491
  8015  0330                     __ptext1491:
  8016                           
  8017 ;; *************** function _ISR *****************
  8018 ;; Defined at:
  8019 ;;		line 31 in file "CommonDeclarations.c"
  8020 ;; Parameters:    Size  Location     Type
  8021 ;;		None
  8022 ;; Auto vars:     Size  Location     Type
  8023 ;;		None
  8024 ;; Return value:  Size  Location     Type
  8025 ;;		None               void
  8026 ;; Registers used:
  8027 ;;		wreg, fsr0l, fsr0h, status,2, status,0, btemp+0, btemp+1, pclath, cstack
  8028 ;; Tracked objects:
  8029 ;;		On entry : 0/0
  8030 ;;		On exit  : 0/0
  8031 ;;		Unchanged: 0/0
  8032 ;; Data sizes:     COMMON   BANK0   BANK1   BANK3   BANK2
  8033 ;;      Params:         0       0       0       0       0
  8034 ;;      Locals:         0       0       0       0       0
  8035 ;;      Temps:          0       7       0       0       0
  8036 ;;      Totals:         0       7       0       0       0
  8037 ;;Total ram usage:        7 bytes
  8038 ;; Hardware stack levels used:    1
  8039 ;; Hardware stack levels required when called:    5
  8040 ;; This function calls:
  8041 ;;		_disableInterrupt_RB0
  8042 ;;		i1_lcd_clear
  8043 ;;		i1_lcd_writeThisStringAt
  8044 ;;		_InitialiseSettingMode
  8045 ;;		i1_enableInterrupt_RB0
  8046 ;; This function is called by:
  8047 ;;		Interrupt level 1
  8048 ;; This function uses a non-reentrant model
  8049 ;;
  8050                           psect	text1491
  8051                           	file	"CommonDeclarations.c"
  8052                           	line	31
  8053                           	global	__size_of_ISR
  8054  010D                     	__size_of_ISR	equ	__end_of_ISR-_ISR
  8055                           	
  8056  0330                     _ISR:	
  8057 ;; hardware stack exceeded
  8058                           	opt	stack 0
  8059                           ; Regs used in _ISR: [wreg-fsr0h+status,2-btemp+1+pclath+cstack]
  8060                           psect	intentry,class=CODE,delta=2
  8061                           global __pintentry
  8062  0004                     __pintentry:
  8063                           global interrupt_function
  8064  0004                     interrupt_function:
  8065                           	global saved_w
  8066  007E                     	saved_w	set	btemp+0
  8067  0004  00FE               	movwf	saved_w
  8068  0005  0803               	movf	status,w
  8069  0006  1283               	bcf	status, 5	;RP0=0, select bank0
  8070  0007  1303               	bcf	status, 6	;RP1=0, select bank0
  8071  0008  00AB               	movwf	(??_ISR+3)
  8072  0009  0804               	movf	fsr0,w
  8073  000A  00AC               	movwf	(??_ISR+4)
  8074  000B  080A               	movf	pclath,w
  8075  000C  00AD               	movwf	(??_ISR+5)
  8076  000D  087F               	movf	btemp+1,w
  8077  000E  00AE               	movwf	(??_ISR+6)
  8078  000F  120A  118A  2B30   	ljmp	_ISR
  8079                           psect	text1491
  8080                           	line	32
  8081                           	
  8082  0330                     i1l8695:	
  8083                           ;CommonDeclarations.c: 32: if (TMR0IE && TMR0IF) {
  8084  0330  1E8B               	btfss	(93/8),(93)&7
  8085  0331  2B33               	goto	u388_21
  8086  0332  2B34               	goto	u388_20
  8087  0333                     u388_21:
  8088  0333  2B69               	goto	i1l1180
  8089  0334                     u388_20:
  8090                           	
  8091  0334                     i1l8697:	
  8092  0334  1D0B               	btfss	(90/8),(90)&7
  8093  0335  2B37               	goto	u389_21
  8094  0336  2B38               	goto	u389_20
  8095  0337                     u389_21:
  8096  0337  2B69               	goto	i1l1180
  8097  0338                     u389_20:
  8098                           	line	33
  8099                           	
  8100  0338                     i1l8699:	
  8101                           ;CommonDeclarations.c: 33: timer0_count++;
  8102  0338  3001               	movlw	(01h)
  8103  0339  00A8               	movwf	(??_ISR+0)+0
  8104  033A  0828               	movf	(??_ISR+0)+0,w
  8105  033B  07DF               	addwf	(_timer0_count),f
  8106                           	line	34
  8107                           	
  8108  033C                     i1l8701:	
  8109                           ;CommonDeclarations.c: 34: if (timer0_count == 90) {
  8110  033C  085F               	movf	(_timer0_count),w
  8111  033D  3A5A               	xorlw	05Ah
  8112  033E  1D03               	skipz
  8113  033F  2B41               	goto	u390_21
  8114  0340  2B42               	goto	u390_20
  8115  0341                     u390_21:
  8116  0341  2B4F               	goto	i1l1181
  8117  0342                     u390_20:
  8118                           	line	35
  8119                           	
  8120  0342                     i1l8703:	
  8121                           ;CommonDeclarations.c: 35: flag_T0_OneSecond = 1;
  8122  0342  01DA               	clrf	(_flag_T0_OneSecond)
  8123  0343  1403               	bsf	status,0
  8124  0344  0DDA               	rlf	(_flag_T0_OneSecond),f
  8125                           	line	36
  8126                           	
  8127  0345                     i1l8705:	
  8128                           ;CommonDeclarations.c: 36: timer0_count = 0;
  8129  0345  1003               	clrc
  8130  0346  3000               	movlw	0
  8131  0347  1803               	btfsc	status,0
  8132  0348  3001               	movlw	1
  8133  0349  00DF               	movwf	(_timer0_count)
  8134                           	line	37
  8135                           	
  8136  034A                     i1l8707:	
  8137                           ;CommonDeclarations.c: 37: timer0_count10++;
  8138  034A  3001               	movlw	(01h)
  8139  034B  00A8               	movwf	(??_ISR+0)+0
  8140  034C  0828               	movf	(??_ISR+0)+0,w
  8141  034D  07E0               	addwf	(_timer0_count10),f
  8142                           	line	38
  8143                           ;CommonDeclarations.c: 38: } else {
  8144  034E  2B54               	goto	i1l1182
  8145                           	
  8146  034F                     i1l1181:	
  8147                           	line	39
  8148                           	
  8149  034F                     i1l8709:	
  8150                           ;CommonDeclarations.c: 39: flag_T0_OneSecond = 0;
  8151  034F  1003               	clrc
  8152  0350  3000               	movlw	0
  8153  0351  1803               	btfsc	status,0
  8154  0352  3001               	movlw	1
  8155  0353  00DA               	movwf	(_flag_T0_OneSecond)
  8156                           	line	40
  8157                           	
  8158  0354                     i1l1182:	
  8159                           	line	41
  8160                           	
  8161  0354                     i1l8711:	
  8162                           ;CommonDeclarations.c: 40: }
  8163                           ;CommonDeclarations.c: 41: if (timer0_count10 >= 10) {
  8164  0354  300A               	movlw	(0Ah)
  8165  0355  0260               	subwf	(_timer0_count10),w
  8166  0356  1C03               	skipc
  8167  0357  2B59               	goto	u391_21
  8168  0358  2B5A               	goto	u391_20
  8169  0359                     u391_21:
  8170  0359  2B63               	goto	i1l1183
  8171  035A                     u391_20:
  8172                           	line	42
  8173                           	
  8174  035A                     i1l8713:	
  8175                           ;CommonDeclarations.c: 42: flag_T0_TenSecond = 1;
  8176  035A  01DB               	clrf	(_flag_T0_TenSecond)
  8177  035B  1403               	bsf	status,0
  8178  035C  0DDB               	rlf	(_flag_T0_TenSecond),f
  8179                           	line	43
  8180                           	
  8181  035D                     i1l8715:	
  8182                           ;CommonDeclarations.c: 43: timer0_count10 = 0;
  8183  035D  1003               	clrc
  8184  035E  3000               	movlw	0
  8185  035F  1803               	btfsc	status,0
  8186  0360  3001               	movlw	1
  8187  0361  00E0               	movwf	(_timer0_count10)
  8188                           	line	44
  8189                           ;CommonDeclarations.c: 44: } else {
  8190  0362  2B68               	goto	i1l1184
  8191                           	
  8192  0363                     i1l1183:	
  8193                           	line	45
  8194                           	
  8195  0363                     i1l8717:	
  8196                           ;CommonDeclarations.c: 45: flag_T0_TenSecond = 0;
  8197  0363  1003               	clrc
  8198  0364  3000               	movlw	0
  8199  0365  1803               	btfsc	status,0
  8200  0366  3001               	movlw	1
  8201  0367  00DB               	movwf	(_flag_T0_TenSecond)
  8202                           	line	46
  8203                           	
  8204  0368                     i1l1184:	
  8205                           	line	47
  8206                           	
  8207  0368                     i1l8719:	
  8208                           ;CommonDeclarations.c: 46: }
  8209                           ;CommonDeclarations.c: 47: TMR0IF = 0;
  8210  0368  110B               	bcf	(90/8),(90)&7
  8211                           	line	48
  8212                           	
  8213  0369                     i1l1180:	
  8214                           	line	49
  8215                           	
  8216  0369                     i1l8721:	
  8217                           ;CommonDeclarations.c: 48: }
  8218                           ;CommonDeclarations.c: 49: if (INTE && INTF) {
  8219  0369  1E0B               	btfss	(92/8),(92)&7
  8220  036A  2B6C               	goto	u392_21
  8221  036B  2B6D               	goto	u392_20
  8222  036C                     u392_21:
  8223  036C  2C30               	goto	i1l1185
  8224  036D                     u392_20:
  8225                           	
  8226  036D                     i1l8723:	
  8227  036D  1C8B               	btfss	(89/8),(89)&7
  8228  036E  2B70               	goto	u393_21
  8229  036F  2B71               	goto	u393_20
  8230  0370                     u393_21:
  8231  0370  2C30               	goto	i1l1185
  8232  0371                     u393_20:
  8233                           	line	52
  8234                           	
  8235  0371                     i1l8725:	
  8236                           ;CommonDeclarations.c: 52: disableInterrupt_RB0();
  8237  0371  120A  158A  2003   	fcall	_disableInterrupt_RB0
              120A  118A         
  8238                           	line	53
  8239                           	
  8240  0376                     i1l8727:	
  8241                           ;CommonDeclarations.c: 53: INTF = 0;
  8242  0376  108B               	bcf	(89/8),(89)&7
  8243                           	line	54
  8244                           	
  8245  0377                     i1l8729:	
  8246                           ;CommonDeclarations.c: 54: buttonPressedCount = 0;
  8247  0377  3000               	movlw	low(0)
  8248  0378  1283               	bcf	status, 5	;RP0=0, select bank0
  8249  0379  1303               	bcf	status, 6	;RP1=0, select bank0
  8250  037A  00D5               	movwf	(_buttonPressedCount)
  8251  037B  3000               	movlw	high(0)
  8252  037C  00D6               	movwf	((_buttonPressedCount))+1
  8253                           	line	56
  8254                           ;CommonDeclarations.c: 56: while (!RB0 && (buttonPressedCount <= 40)) {
  8255  037D  2B90               	goto	i1l1186
  8256                           	
  8257  037E                     i1l1187:	
  8258                           	line	57
  8259                           	
  8260  037E                     i1l8731:	
  8261                           ;CommonDeclarations.c: 57: buttonPressedCount++;
  8262  037E  3001               	movlw	low(01h)
  8263  037F  07D5               	addwf	(_buttonPressedCount),f
  8264  0380  1803               	skipnc
  8265  0381  0AD6               	incf	(_buttonPressedCount+1),f
  8266  0382  3000               	movlw	high(01h)
  8267  0383  07D6               	addwf	(_buttonPressedCount+1),f
  8268                           	line	58
  8269                           ;CommonDeclarations.c: 58: _delay((unsigned long)((100)*(20000000/4000.0)));
  8270                           	opt asmopt_off
  8271  0384  3003               movlw  3
  8272  0385  00AA               movwf	((??_ISR+0)+0+2),f
  8273  0386  3088               movlw	136
  8274  0387  00A9               movwf	((??_ISR+0)+0+1),f
  8275  0388  3056               	movlw	86
  8276  0389  00A8               movwf	((??_ISR+0)+0),f
  8277  038A                     u670_27:
  8278  038A  0BA8               	decfsz	((??_ISR+0)+0),f
  8279  038B  2B8A               	goto	u670_27
  8280  038C  0BA9               	decfsz	((??_ISR+0)+0+1),f
  8281  038D  2B8A               	goto	u670_27
  8282  038E  0BAA               	decfsz	((??_ISR+0)+0+2),f
  8283  038F  2B8A               	goto	u670_27
  8284                           opt asmopt_on
  8285                           
  8286                           	line	60
  8287                           	
  8288  0390                     i1l1186:	
  8289                           	line	56
  8290                           	
  8291  0390                     i1l8733:	
  8292  0390  1283               	bcf	status, 5	;RP0=0, select bank0
  8293  0391  1303               	bcf	status, 6	;RP1=0, select bank0
  8294  0392  1806               	btfsc	(48/8),(48)&7
  8295  0393  2B95               	goto	u394_21
  8296  0394  2B96               	goto	u394_20
  8297  0395                     u394_21:
  8298  0395  2BA3               	goto	i1l1189
  8299  0396                     u394_20:
  8300                           	
  8301  0396                     i1l8735:	
  8302  0396  0856               	movf	(_buttonPressedCount+1),w
  8303  0397  3A80               	xorlw	80h
  8304  0398  00FE               	movwf	btemp+0
  8305  0399  3080               	movlw	(high(029h))^80h
  8306  039A  027E               	subwf	btemp+0,w
  8307  039B  1D03               	skipz
  8308  039C  2B9F               	goto	u395_25
  8309  039D  3029               	movlw	low(029h)
  8310  039E  0255               	subwf	(_buttonPressedCount),w
  8311  039F                     u395_25:
  8312                           
  8313  039F  1C03               	skipc
  8314  03A0  2BA2               	goto	u395_21
  8315  03A1  2BA3               	goto	u395_20
  8316  03A2                     u395_21:
  8317  03A2  2B7E               	goto	i1l1187
  8318  03A3                     u395_20:
  8319                           	
  8320  03A3                     i1l1189:	
  8321                           	
  8322  03A3                     i1l1190:	
  8323                           	line	61
  8324                           	
  8325  03A3                     i1l8737:	
  8326                           ;CommonDeclarations.c: 60: }
  8327                           ;CommonDeclarations.c: 61: if (buttonPressedCount >= 40) {
  8328  03A3  1283               	bcf	status, 5	;RP0=0, select bank0
  8329  03A4  1303               	bcf	status, 6	;RP1=0, select bank0
  8330  03A5  0856               	movf	(_buttonPressedCount+1),w
  8331  03A6  3A80               	xorlw	80h
  8332  03A7  00FE               	movwf	btemp+0
  8333  03A8  3080               	movlw	(high(028h))^80h
  8334  03A9  027E               	subwf	btemp+0,w
  8335  03AA  1D03               	skipz
  8336  03AB  2BAE               	goto	u396_25
  8337  03AC  3028               	movlw	low(028h)
  8338  03AD  0255               	subwf	(_buttonPressedCount),w
  8339  03AE                     u396_25:
  8340                           
  8341  03AE  1C03               	skipc
  8342  03AF  2BB1               	goto	u396_21
  8343  03B0  2BB2               	goto	u396_20
  8344  03B1                     u396_21:
  8345  03B1  2C2B               	goto	i1l1191
  8346  03B2                     u396_20:
  8347                           	line	62
  8348                           	
  8349  03B2                     i1l8739:	
  8350                           ;CommonDeclarations.c: 62: lcd_clear();
  8351  03B2  120A  158A  2019   	fcall	i1_lcd_clear
              120A  118A         
  8352                           	line	64
  8353                           	
  8354  03B7                     i1l8741:	
  8355                           ;CommonDeclarations.c: 64: if (isFirstTime_Settings == 0) {
  8356  03B7  1283               	bcf	status, 5	;RP0=0, select bank0
  8357  03B8  1303               	bcf	status, 6	;RP1=0, select bank0
  8358  03B9  08DC               	movf	(_isFirstTime_Settings),f
  8359  03BA  1D03               	skipz
  8360  03BB  2BBD               	goto	u397_21
  8361  03BC  2BBE               	goto	u397_20
  8362  03BD                     u397_21:
  8363  03BD  2BE9               	goto	i1l1192
  8364  03BE                     u397_20:
  8365                           	line	65
  8366                           	
  8367  03BE                     i1l8743:	
  8368                           ;CommonDeclarations.c: 65: isFirstTime_Settings = 1;
  8369  03BE  01DC               	clrf	(_isFirstTime_Settings)
  8370  03BF  1403               	bsf	status,0
  8371  03C0  0DDC               	rlf	(_isFirstTime_Settings),f
  8372                           	line	66
  8373                           	
  8374  03C1                     i1l8745:	
  8375                           ;CommonDeclarations.c: 66: modeOfWorking = 0;
  8376  03C1  1003               	clrc
  8377  03C2  3000               	movlw	0
  8378  03C3  1803               	btfsc	status,0
  8379  03C4  3001               	movlw	1
  8380  03C5  00D4               	movwf	(_modeOfWorking)
  8381                           	line	67
  8382                           	
  8383  03C6                     i1l8747:	
  8384                           ;CommonDeclarations.c: 67: lcd_writeThisStringAt(0, 0, "SETTINGS_0N_I");
  8385  03C6  1003               	clrc
  8386  03C7  3000               	movlw	0
  8387  03C8  1803               	btfsc	status,0
  8388  03C9  3001               	movlw	1
  8389  03CA  00F5               	movwf	(?i1_lcd_writeThisStringAt)
  8390  03CB  308E               	movlw	((STR_1-__stringbase))&0ffh
  8391  03CC  00A8               	movwf	(??_ISR+0)+0
  8392  03CD  0828               	movf	(??_ISR+0)+0,w
  8393  03CE  00F6               	movwf	0+(?i1_lcd_writeThisStringAt)+01h
  8394  03CF  3000               	movlw	(0)
  8395  03D0  120A  158A  2066   	fcall	i1_lcd_writeThisStringAt
              120A  118A         
  8396                           	line	68
  8397                           	
  8398  03D5                     i1l8749:	
  8399                           ;CommonDeclarations.c: 68: _delay((unsigned long)((1000)*(20000000/4000.0)));
  8400                           	opt asmopt_off
  8401  03D5  301A               movlw  26
  8402  03D6  1283               	bcf	status, 5	;RP0=0, select bank0
  8403  03D7  1303               	bcf	status, 6	;RP1=0, select bank0
  8404  03D8  00AA               movwf	((??_ISR+0)+0+2),f
  8405  03D9  3045               movlw	69
  8406  03DA  00A9               movwf	((??_ISR+0)+0+1),f
  8407  03DB  307E               	movlw	126
  8408  03DC  00A8               movwf	((??_ISR+0)+0),f
  8409  03DD                     u671_27:
  8410  03DD  0BA8               	decfsz	((??_ISR+0)+0),f
  8411  03DE  2BDD               	goto	u671_27
  8412  03DF  0BA9               	decfsz	((??_ISR+0)+0+1),f
  8413  03E0  2BDD               	goto	u671_27
  8414  03E1  0BAA               	decfsz	((??_ISR+0)+0+2),f
  8415  03E2  2BDD               	goto	u671_27
  8416                           opt asmopt_on
  8417                           
  8418                           	line	69
  8419                           	
  8420  03E3                     i1l8751:	
  8421                           ;CommonDeclarations.c: 69: InitialiseSettingMode();
  8422  03E3  120A  158A  2027   	fcall	_InitialiseSettingMode
              120A  118A         
  8423                           	line	70
  8424                           ;CommonDeclarations.c: 70: } else if (isFirstTime_Settings == 1) {
  8425  03E8  2C2B               	goto	i1l1193
  8426                           	
  8427  03E9                     i1l1192:	
  8428                           	
  8429  03E9                     i1l8753:	
  8430  03E9  1283               	bcf	status, 5	;RP0=0, select bank0
  8431  03EA  1303               	bcf	status, 6	;RP1=0, select bank0
  8432  03EB  085C               	movf	(_isFirstTime_Settings),w
  8433  03EC  3A01               	xorlw	01h
  8434  03ED  1D03               	skipz
  8435  03EE  2BF0               	goto	u398_21
  8436  03EF  2BF1               	goto	u398_20
  8437  03F0                     u398_21:
  8438  03F0  2C2B               	goto	i1l1194
  8439  03F1                     u398_20:
  8440                           	line	71
  8441                           	
  8442  03F1                     i1l8755:	
  8443                           ;CommonDeclarations.c: 71: isFirstTime_Settings = 0;
  8444  03F1  1003               	clrc
  8445  03F2  3000               	movlw	0
  8446  03F3  1803               	btfsc	status,0
  8447  03F4  3001               	movlw	1
  8448  03F5  00DC               	movwf	(_isFirstTime_Settings)
  8449                           	line	72
  8450                           	
  8451  03F6                     i1l8757:	
  8452                           ;CommonDeclarations.c: 72: modeOfWorking = 1;
  8453  03F6  01D4               	clrf	(_modeOfWorking)
  8454  03F7  1403               	bsf	status,0
  8455  03F8  0DD4               	rlf	(_modeOfWorking),f
  8456                           	line	73
  8457                           	
  8458  03F9                     i1l8759:	
  8459                           ;CommonDeclarations.c: 73: lcd_writeThisStringAt(0, 0, "SETTINGS_0FF_I");
  8460  03F9  1003               	clrc
  8461  03FA  3000               	movlw	0
  8462  03FB  1803               	btfsc	status,0
  8463  03FC  3001               	movlw	1
  8464  03FD  00F5               	movwf	(?i1_lcd_writeThisStringAt)
  8465  03FE  3071               	movlw	((STR_2-__stringbase))&0ffh
  8466  03FF  00A8               	movwf	(??_ISR+0)+0
  8467  0400  0828               	movf	(??_ISR+0)+0,w
  8468  0401  00F6               	movwf	0+(?i1_lcd_writeThisStringAt)+01h
  8469  0402  3000               	movlw	(0)
  8470  0403  120A  158A  2066   	fcall	i1_lcd_writeThisStringAt
              120A  118A         
  8471                           	line	74
  8472                           	
  8473  0408                     i1l8761:	
  8474                           ;CommonDeclarations.c: 74: _delay((unsigned long)((1000)*(20000000/4000.0)));
  8475                           	opt asmopt_off
  8476  0408  301A               movlw  26
  8477  0409  1283               	bcf	status, 5	;RP0=0, select bank0
  8478  040A  1303               	bcf	status, 6	;RP1=0, select bank0
  8479  040B  00AA               movwf	((??_ISR+0)+0+2),f
  8480  040C  3045               movlw	69
  8481  040D  00A9               movwf	((??_ISR+0)+0+1),f
  8482  040E  307E               	movlw	126
  8483  040F  00A8               movwf	((??_ISR+0)+0),f
  8484  0410                     u672_27:
  8485  0410  0BA8               	decfsz	((??_ISR+0)+0),f
  8486  0411  2C10               	goto	u672_27
  8487  0412  0BA9               	decfsz	((??_ISR+0)+0+1),f
  8488  0413  2C10               	goto	u672_27
  8489  0414  0BAA               	decfsz	((??_ISR+0)+0+2),f
  8490  0415  2C10               	goto	u672_27
  8491                           opt asmopt_on
  8492                           
  8493                           	line	75
  8494                           	
  8495  0416                     i1l8763:	
  8496                           ;CommonDeclarations.c: 75: lcd_clear();
  8497  0416  120A  158A  2019   	fcall	i1_lcd_clear
              120A  118A         
  8498                           	line	76
  8499                           	
  8500  041B                     i1l8765:	
  8501                           ;CommonDeclarations.c: 76: lcd_writeThisStringAt(0, 4, "WELCOME");
  8502  041B  3004               	movlw	(04h)
  8503  041C  1283               	bcf	status, 5	;RP0=0, select bank0
  8504  041D  1303               	bcf	status, 6	;RP1=0, select bank0
  8505  041E  00A8               	movwf	(??_ISR+0)+0
  8506  041F  0828               	movf	(??_ISR+0)+0,w
  8507  0420  00F5               	movwf	(?i1_lcd_writeThisStringAt)
  8508  0421  30C3               	movlw	((STR_3-__stringbase))&0ffh
  8509  0422  00A9               	movwf	(??_ISR+1)+0
  8510  0423  0829               	movf	(??_ISR+1)+0,w
  8511  0424  00F6               	movwf	0+(?i1_lcd_writeThisStringAt)+01h
  8512  0425  3000               	movlw	(0)
  8513  0426  120A  158A  2066   	fcall	i1_lcd_writeThisStringAt
              120A  118A         
  8514                           	line	77
  8515                           	
  8516  042B                     i1l1194:	
  8517                           	line	79
  8518                           	
  8519  042B                     i1l1193:	
  8520                           	
  8521  042B                     i1l1191:	
  8522                           	line	80
  8523                           	
  8524  042B                     i1l8767:	
  8525                           ;CommonDeclarations.c: 77: }
  8526                           ;CommonDeclarations.c: 79: }
  8527                           ;CommonDeclarations.c: 80: enableInterrupt_RB0();
  8528  042B  120A  158A  2009   	fcall	i1_enableInterrupt_RB0
              120A  118A         
  8529                           	line	81
  8530                           	
  8531  0430                     i1l1185:	
  8532                           	line	83
  8533                           	
  8534  0430                     i1l1195:	
  8535  0430  1283               	bcf	status, 5	;RP0=0, select bank0
  8536  0431  1303               	bcf	status, 6	;RP1=0, select bank0
  8537  0432  082E               	movf	(??_ISR+6),w
  8538  0433  00FF               	movwf	btemp+1
  8539  0434  082D               	movf	(??_ISR+5),w
  8540  0435  008A               	movwf	pclath
  8541  0436  082C               	movf	(??_ISR+4),w
  8542  0437  0084               	movwf	fsr0
  8543  0438  082B               	movf	(??_ISR+3),w
  8544  0439  0083               	movwf	status
  8545  043A  0EFE               	swapf	saved_w,f
  8546  043B  0E7E               	swapf	saved_w,w
  8547  043C  0009               	retfie
  8548                           	opt stack 0
  8549                           GLOBAL	__end_of_ISR
  8550  043D                     	__end_of_ISR:
  8551 ;; =============== function _ISR ends ============
  8552                           
  8553                           	signat	_ISR,88
  8554                           	global	_InitialiseSettingMode
  8555                           psect	text1492,local,class=CODE,delta=2
  8556                           global __ptext1492
  8557  0827                     __ptext1492:
  8558                           
  8559 ;; *************** function _InitialiseSettingMode *****************
  8560 ;; Defined at:
  8561 ;;		line 10 in file "SettingModeHandler.c"
  8562 ;; Parameters:    Size  Location     Type
  8563 ;;		None
  8564 ;; Auto vars:     Size  Location     Type
  8565 ;;		None
  8566 ;; Return value:  Size  Location     Type
  8567 ;;		None               void
  8568 ;; Registers used:
  8569 ;;		wreg, status,2, status,0, pclath, cstack
  8570 ;; Tracked objects:
  8571 ;;		On entry : 0/0
  8572 ;;		On exit  : 0/0
  8573 ;;		Unchanged: 0/0
  8574 ;; Data sizes:     COMMON   BANK0   BANK1   BANK3   BANK2
  8575 ;;      Params:         0       0       0       0       0
  8576 ;;      Locals:         0       0       0       0       0
  8577 ;;      Temps:          0       0       0       0       0
  8578 ;;      Totals:         0       0       0       0       0
  8579 ;;Total ram usage:        0 bytes
  8580 ;; Hardware stack levels used:    1
  8581 ;; Hardware stack levels required when called:    4
  8582 ;; This function calls:
  8583 ;;		i1_UpdateScreen
  8584 ;; This function is called by:
  8585 ;;		_ISR
  8586 ;; This function uses a non-reentrant model
  8587 ;;
  8588                           psect	text1492
  8589                           	file	"SettingModeHandler.c"
  8590                           	line	10
  8591                           	global	__size_of_InitialiseSettingMode
  8592  000E                     	__size_of_InitialiseSettingMode	equ	__end_of_InitialiseSettingMode-_InitialiseSettingMo
                                 de
  8593                           	
  8594  0827                     _InitialiseSettingMode:	
  8595 ;; hardware stack exceeded
  8596                           	opt	stack 0
  8597                           ; Regs used in _InitialiseSettingMode: [wreg+status,2+status,0+pclath+cstack]
  8598                           	line	11
  8599                           	
  8600  0827                     i1l8771:	
  8601                           ;SettingModeHandler.c: 11: ScreenIndex = 0;
  8602  0827  1003               	clrc
  8603  0828  3000               	movlw	0
  8604  0829  1803               	btfsc	status,0
  8605  082A  3001               	movlw	1
  8606  082B  1283               	bcf	status, 5	;RP0=0, select bank0
  8607  082C  1303               	bcf	status, 6	;RP1=0, select bank0
  8608  082D  00D8               	movwf	(_ScreenIndex)
  8609                           	line	12
  8610                           	
  8611  082E                     i1l8773:	
  8612                           ;SettingModeHandler.c: 12: UpdateScreen(0);
  8613  082E  3000               	movlw	(0)
  8614  082F  120A  118A  252D   	fcall	i1_UpdateScreen
              120A  158A         
  8615                           	line	13
  8616                           	
  8617  0834                     i1l4263:	
  8618  0834  0008               	return
  8619                           	opt stack 0
  8620                           GLOBAL	__end_of_InitialiseSettingMode
  8621  0835                     	__end_of_InitialiseSettingMode:
  8622 ;; =============== function _InitialiseSettingMode ends ============
  8623                           
  8624                           	signat	_InitialiseSettingMode,88
  8625                           	global	i1_UpdateScreen
  8626                           psect	text1493,local,class=CODE,delta=2
  8627                           global __ptext1493
  8628  052D                     __ptext1493:
  8629                           
  8630 ;; *************** function i1_UpdateScreen *****************
  8631 ;; Defined at:
  8632 ;;		line 123 in file "SettingModeHandler.c"
  8633 ;; Parameters:    Size  Location     Type
  8634 ;;  UpdateScreen    1    wreg     unsigned char 
  8635 ;; Auto vars:     Size  Location     Type
  8636 ;;  UpdateScreen    1 (no storage) unsigned char 
  8637 ;; Return value:  Size  Location     Type
  8638 ;;		None               void
  8639 ;; Registers used:
  8640 ;;		wreg, fsr0l, fsr0h, status,2, status,0, btemp+0, btemp+1, pclath, cstack
  8641 ;; Tracked objects:
  8642 ;;		On entry : 0/0
  8643 ;;		On exit  : 0/0
  8644 ;;		Unchanged: 0/0
  8645 ;; Data sizes:     COMMON   BANK0   BANK1   BANK3   BANK2
  8646 ;;      Params:         0       0       0       0       0
  8647 ;;      Locals:         0       0       0       0       0
  8648 ;;      Temps:          0       3       0       0       0
  8649 ;;      Totals:         0       3       0       0       0
  8650 ;;Total ram usage:        3 bytes
  8651 ;; Hardware stack levels used:    1
  8652 ;; Hardware stack levels required when called:    3
  8653 ;; This function calls:
  8654 ;;		i1_lcd_clear
  8655 ;;		i1_lcd_writeThisStringAt
  8656 ;;		i1_lcd_writeThisDigit
  8657 ;; This function is called by:
  8658 ;;		_InitialiseSettingMode
  8659 ;; This function uses a non-reentrant model
  8660 ;;
  8661                           psect	text1493
  8662                           	file	"SettingModeHandler.c"
  8663                           	line	123
  8664                           	global	__size_ofi1_UpdateScreen
  8665  00F0                     	__size_ofi1_UpdateScreen	equ	__end_ofi1_UpdateScreen-i1_UpdateScreen
  8666                           	
  8667  052D                     i1_UpdateScreen:	
  8668 ;; hardware stack exceeded
  8669                           	opt	stack 0
  8670                           ; Regs used in i1_UpdateScreen: [wreg-fsr0h+status,2-btemp+1+pclath+cstack]
  8671                           	line	124
  8672                           	
  8673  052D                     i1l8877:	
  8674                           ;SettingModeHandler.c: 124: lcd_clear();
  8675  052D  120A  158A  2019   	fcall	i1_lcd_clear
              120A  118A         
  8676                           	line	125
  8677                           	
  8678  0532                     i1l8879:	
  8679                           ;SettingModeHandler.c: 125: if (0 == ScreenIndex) {
  8680  0532  1283               	bcf	status, 5	;RP0=0, select bank0
  8681  0533  1303               	bcf	status, 6	;RP1=0, select bank0
  8682  0534  08D8               	movf	(_ScreenIndex),f
  8683  0535  1D03               	skipz
  8684  0536  2D38               	goto	u418_21
  8685  0537  2D39               	goto	u418_20
  8686  0538                     u418_21:
  8687  0538  2D82               	goto	i1l4326
  8688  0539                     u418_20:
  8689                           	line	126
  8690                           	
  8691  0539                     i1l8881:	
  8692                           ;SettingModeHandler.c: 126: lcd_writeThisStringAt(0, 2, "TEA SETTINGS");
  8693  0539  3002               	movlw	(02h)
  8694  053A  00A5               	movwf	(??i1_UpdateScreen+0)+0
  8695  053B  0825               	movf	(??i1_UpdateScreen+0)+0,w
  8696  053C  00F5               	movwf	(?i1_lcd_writeThisStringAt)
  8697  053D  309C               	movlw	((STR_10-__stringbase))&0ffh
  8698  053E  00A6               	movwf	(??i1_UpdateScreen+1)+0
  8699  053F  0826               	movf	(??i1_UpdateScreen+1)+0,w
  8700  0540  00F6               	movwf	0+(?i1_lcd_writeThisStringAt)+01h
  8701  0541  3000               	movlw	(0)
  8702  0542  120A  158A  2066   	fcall	i1_lcd_writeThisStringAt
              120A  118A         
  8703                           	line	127
  8704                           	
  8705  0547                     i1l8883:	
  8706                           ;SettingModeHandler.c: 127: if (0 == ParameterIndex) {
  8707  0547  1283               	bcf	status, 5	;RP0=0, select bank0
  8708  0548  1303               	bcf	status, 6	;RP1=0, select bank0
  8709  0549  08D7               	movf	(_ParameterIndex),f
  8710  054A  1D03               	skipz
  8711  054B  2D4D               	goto	u419_21
  8712  054C  2D4E               	goto	u419_20
  8713  054D                     u419_21:
  8714  054D  2D64               	goto	i1l4327
  8715  054E                     u419_20:
  8716                           	line	128
  8717                           	
  8718  054E                     i1l8885:	
  8719                           ;SettingModeHandler.c: 128: lcd_writeThisStringAt(1, 1, "T:");
  8720  054E  01F5               	clrf	(?i1_lcd_writeThisStringAt)
  8721  054F  1403               	bsf	status,0
  8722  0550  0DF5               	rlf	(?i1_lcd_writeThisStringAt),f
  8723  0551  30D2               	movlw	((STR_11-__stringbase))&0ffh
  8724  0552  00A5               	movwf	(??i1_UpdateScreen+0)+0
  8725  0553  0825               	movf	(??i1_UpdateScreen+0)+0,w
  8726  0554  00F6               	movwf	0+(?i1_lcd_writeThisStringAt)+01h
  8727  0555  3001               	movlw	(01h)
  8728  0556  120A  158A  2066   	fcall	i1_lcd_writeThisStringAt
              120A  118A         
  8729                           	line	129
  8730                           ;SettingModeHandler.c: 129: lcd_writeThisDigit(CurrentTeaQuantity);
  8731  055B  1283               	bcf	status, 5	;RP0=0, select bank0
  8732  055C  1303               	bcf	status, 6	;RP1=0, select bank0
  8733  055D  0851               	movf	(_CurrentTeaQuantity),w
  8734  055E  120A  158A  2652   	fcall	i1_lcd_writeThisDigit
              120A  118A         
  8735                           	line	130
  8736                           ;SettingModeHandler.c: 130: } else if (1 == ParameterIndex) {
  8737  0563  2D82               	goto	i1l4328
  8738                           	
  8739  0564                     i1l4327:	
  8740                           	
  8741  0564                     i1l8887:	
  8742  0564  1283               	bcf	status, 5	;RP0=0, select bank0
  8743  0565  1303               	bcf	status, 6	;RP1=0, select bank0
  8744  0566  0857               	movf	(_ParameterIndex),w
  8745  0567  3A01               	xorlw	01h
  8746  0568  1D03               	skipz
  8747  0569  2D6B               	goto	u420_21
  8748  056A  2D6C               	goto	u420_20
  8749  056B                     u420_21:
  8750  056B  2D82               	goto	i1l4329
  8751  056C                     u420_20:
  8752                           	line	131
  8753                           	
  8754  056C                     i1l8889:	
  8755                           ;SettingModeHandler.c: 131: lcd_writeThisStringAt(1, 10, "W:");
  8756  056C  300A               	movlw	(0Ah)
  8757  056D  00A5               	movwf	(??i1_UpdateScreen+0)+0
  8758  056E  0825               	movf	(??i1_UpdateScreen+0)+0,w
  8759  056F  00F5               	movwf	(?i1_lcd_writeThisStringAt)
  8760  0570  30D5               	movlw	((STR_12-__stringbase))&0ffh
  8761  0571  00A6               	movwf	(??i1_UpdateScreen+1)+0
  8762  0572  0826               	movf	(??i1_UpdateScreen+1)+0,w
  8763  0573  00F6               	movwf	0+(?i1_lcd_writeThisStringAt)+01h
  8764  0574  3001               	movlw	(01h)
  8765  0575  120A  158A  2066   	fcall	i1_lcd_writeThisStringAt
              120A  118A         
  8766                           	line	132
  8767                           ;SettingModeHandler.c: 132: lcd_writeThisDigit(CurrentWaterQuantity_forTea);
  8768  057A  1283               	bcf	status, 5	;RP0=0, select bank0
  8769  057B  1303               	bcf	status, 6	;RP1=0, select bank0
  8770  057C  0853               	movf	(_CurrentWaterQuantity_forTea),w
  8771  057D  120A  158A  2652   	fcall	i1_lcd_writeThisDigit
              120A  118A         
  8772                           	line	133
  8773                           	
  8774  0582                     i1l4329:	
  8775                           	line	134
  8776                           	
  8777  0582                     i1l4328:	
  8778                           	
  8779  0582                     i1l4326:	
  8780                           	line	135
  8781                           	
  8782  0582                     i1l8891:	
  8783                           ;SettingModeHandler.c: 133: }
  8784                           ;SettingModeHandler.c: 134: }
  8785                           ;SettingModeHandler.c: 135: if (1 == ScreenIndex) {
  8786  0582  1283               	bcf	status, 5	;RP0=0, select bank0
  8787  0583  1303               	bcf	status, 6	;RP1=0, select bank0
  8788  0584  0858               	movf	(_ScreenIndex),w
  8789  0585  3A01               	xorlw	01h
  8790  0586  1D03               	skipz
  8791  0587  2D89               	goto	u421_21
  8792  0588  2D8A               	goto	u421_20
  8793  0589                     u421_21:
  8794  0589  2DD7               	goto	i1l4330
  8795  058A                     u421_20:
  8796                           	line	136
  8797                           	
  8798  058A                     i1l8893:	
  8799                           ;SettingModeHandler.c: 136: lcd_writeThisStringAt(0, 0, "COFFEE SETTINGS");
  8800  058A  1003               	clrc
  8801  058B  3000               	movlw	0
  8802  058C  1803               	btfsc	status,0
  8803  058D  3001               	movlw	1
  8804  058E  00F5               	movwf	(?i1_lcd_writeThisStringAt)
  8805  058F  3043               	movlw	((STR_13-__stringbase))&0ffh
  8806  0590  00A5               	movwf	(??i1_UpdateScreen+0)+0
  8807  0591  0825               	movf	(??i1_UpdateScreen+0)+0,w
  8808  0592  00F6               	movwf	0+(?i1_lcd_writeThisStringAt)+01h
  8809  0593  3000               	movlw	(0)
  8810  0594  120A  158A  2066   	fcall	i1_lcd_writeThisStringAt
              120A  118A         
  8811                           	line	137
  8812                           	
  8813  0599                     i1l8895:	
  8814                           ;SettingModeHandler.c: 137: if (3 == ParameterIndex) {
  8815  0599  1283               	bcf	status, 5	;RP0=0, select bank0
  8816  059A  1303               	bcf	status, 6	;RP1=0, select bank0
  8817  059B  0857               	movf	(_ParameterIndex),w
  8818  059C  3A03               	xorlw	03h
  8819  059D  1D03               	skipz
  8820  059E  2DA0               	goto	u422_21
  8821  059F  2DA1               	goto	u422_20
  8822  05A0                     u422_21:
  8823  05A0  2DB9               	goto	i1l4331
  8824  05A1                     u422_20:
  8825                           	line	138
  8826                           	
  8827  05A1                     i1l8897:	
  8828                           ;SettingModeHandler.c: 138: lcd_writeThisStringAt(1, 0, "C:");
  8829  05A1  1003               	clrc
  8830  05A2  3000               	movlw	0
  8831  05A3  1803               	btfsc	status,0
  8832  05A4  3001               	movlw	1
  8833  05A5  00F5               	movwf	(?i1_lcd_writeThisStringAt)
  8834  05A6  30CF               	movlw	((STR_14-__stringbase))&0ffh
  8835  05A7  00A5               	movwf	(??i1_UpdateScreen+0)+0
  8836  05A8  0825               	movf	(??i1_UpdateScreen+0)+0,w
  8837  05A9  00F6               	movwf	0+(?i1_lcd_writeThisStringAt)+01h
  8838  05AA  3001               	movlw	(01h)
  8839  05AB  120A  158A  2066   	fcall	i1_lcd_writeThisStringAt
              120A  118A         
  8840                           	line	139
  8841                           ;SettingModeHandler.c: 139: lcd_writeThisDigit(CurrentCoffeeQuantity);
  8842  05B0  1283               	bcf	status, 5	;RP0=0, select bank0
  8843  05B1  1303               	bcf	status, 6	;RP1=0, select bank0
  8844  05B2  0850               	movf	(_CurrentCoffeeQuantity),w
  8845  05B3  120A  158A  2652   	fcall	i1_lcd_writeThisDigit
              120A  118A         
  8846                           	line	141
  8847                           ;SettingModeHandler.c: 141: } else if (4 == ParameterIndex) {
  8848  05B8  2DD7               	goto	i1l4332
  8849                           	
  8850  05B9                     i1l4331:	
  8851                           	
  8852  05B9                     i1l8899:	
  8853  05B9  1283               	bcf	status, 5	;RP0=0, select bank0
  8854  05BA  1303               	bcf	status, 6	;RP1=0, select bank0
  8855  05BB  0857               	movf	(_ParameterIndex),w
  8856  05BC  3A04               	xorlw	04h
  8857  05BD  1D03               	skipz
  8858  05BE  2DC0               	goto	u423_21
  8859  05BF  2DC1               	goto	u423_20
  8860  05C0                     u423_21:
  8861  05C0  2DD7               	goto	i1l4333
  8862  05C1                     u423_20:
  8863                           	line	142
  8864                           	
  8865  05C1                     i1l8901:	
  8866                           ;SettingModeHandler.c: 142: lcd_writeThisStringAt(1, 10, "W:");
  8867  05C1  300A               	movlw	(0Ah)
  8868  05C2  00A5               	movwf	(??i1_UpdateScreen+0)+0
  8869  05C3  0825               	movf	(??i1_UpdateScreen+0)+0,w
  8870  05C4  00F5               	movwf	(?i1_lcd_writeThisStringAt)
  8871  05C5  30D5               	movlw	((STR_15-__stringbase))&0ffh
  8872  05C6  00A6               	movwf	(??i1_UpdateScreen+1)+0
  8873  05C7  0826               	movf	(??i1_UpdateScreen+1)+0,w
  8874  05C8  00F6               	movwf	0+(?i1_lcd_writeThisStringAt)+01h
  8875  05C9  3001               	movlw	(01h)
  8876  05CA  120A  158A  2066   	fcall	i1_lcd_writeThisStringAt
              120A  118A         
  8877                           	line	143
  8878                           ;SettingModeHandler.c: 143: lcd_writeThisDigit(CurrentWaterQuantity_forCoffee);
  8879  05CF  1283               	bcf	status, 5	;RP0=0, select bank0
  8880  05D0  1303               	bcf	status, 6	;RP1=0, select bank0
  8881  05D1  0852               	movf	(_CurrentWaterQuantity_forCoffee),w
  8882  05D2  120A  158A  2652   	fcall	i1_lcd_writeThisDigit
              120A  118A         
  8883                           	line	144
  8884                           	
  8885  05D7                     i1l4333:	
  8886                           	line	145
  8887                           	
  8888  05D7                     i1l4332:	
  8889                           	
  8890  05D7                     i1l4330:	
  8891                           	line	146
  8892                           	
  8893  05D7                     i1l8903:	
  8894                           ;SettingModeHandler.c: 144: }
  8895                           ;SettingModeHandler.c: 145: }
  8896                           ;SettingModeHandler.c: 146: if (2 == ScreenIndex) {
  8897  05D7  1283               	bcf	status, 5	;RP0=0, select bank0
  8898  05D8  1303               	bcf	status, 6	;RP1=0, select bank0
  8899  05D9  0858               	movf	(_ScreenIndex),w
  8900  05DA  3A02               	xorlw	02h
  8901  05DB  1D03               	skipz
  8902  05DC  2DDE               	goto	u424_21
  8903  05DD  2DDF               	goto	u424_20
  8904  05DE                     u424_21:
  8905  05DE  2E0D               	goto	i1l4334
  8906  05DF                     u424_20:
  8907                           	line	147
  8908                           	
  8909  05DF                     i1l8905:	
  8910                           ;SettingModeHandler.c: 147: lcd_writeThisStringAt(0, 2, "SET DEFAULTS");
  8911  05DF  3002               	movlw	(02h)
  8912  05E0  00A5               	movwf	(??i1_UpdateScreen+0)+0
  8913  05E1  0825               	movf	(??i1_UpdateScreen+0)+0,w
  8914  05E2  00F5               	movwf	(?i1_lcd_writeThisStringAt)
  8915  05E3  30A9               	movlw	((STR_16-__stringbase))&0ffh
  8916  05E4  00A6               	movwf	(??i1_UpdateScreen+1)+0
  8917  05E5  0826               	movf	(??i1_UpdateScreen+1)+0,w
  8918  05E6  00F6               	movwf	0+(?i1_lcd_writeThisStringAt)+01h
  8919  05E7  3000               	movlw	(0)
  8920  05E8  120A  158A  2066   	fcall	i1_lcd_writeThisStringAt
              120A  118A         
  8921                           	line	148
  8922                           ;SettingModeHandler.c: 148: lcd_writeThisStringAt(1, 2, "YES");
  8923  05ED  3002               	movlw	(02h)
  8924  05EE  1283               	bcf	status, 5	;RP0=0, select bank0
  8925  05EF  1303               	bcf	status, 6	;RP1=0, select bank0
  8926  05F0  00A5               	movwf	(??i1_UpdateScreen+0)+0
  8927  05F1  0825               	movf	(??i1_UpdateScreen+0)+0,w
  8928  05F2  00F5               	movwf	(?i1_lcd_writeThisStringAt)
  8929  05F3  30CB               	movlw	((STR_17-__stringbase))&0ffh
  8930  05F4  00A6               	movwf	(??i1_UpdateScreen+1)+0
  8931  05F5  0826               	movf	(??i1_UpdateScreen+1)+0,w
  8932  05F6  00F6               	movwf	0+(?i1_lcd_writeThisStringAt)+01h
  8933  05F7  3001               	movlw	(01h)
  8934  05F8  120A  158A  2066   	fcall	i1_lcd_writeThisStringAt
              120A  118A         
  8935                           	line	149
  8936                           ;SettingModeHandler.c: 149: lcd_writeThisStringAt(1, 10, "NO");
  8937  05FD  300A               	movlw	(0Ah)
  8938  05FE  1283               	bcf	status, 5	;RP0=0, select bank0
  8939  05FF  1303               	bcf	status, 6	;RP1=0, select bank0
  8940  0600  00A5               	movwf	(??i1_UpdateScreen+0)+0
  8941  0601  0825               	movf	(??i1_UpdateScreen+0)+0,w
  8942  0602  00F5               	movwf	(?i1_lcd_writeThisStringAt)
  8943  0603  30D8               	movlw	((STR_18-__stringbase))&0ffh
  8944  0604  00A6               	movwf	(??i1_UpdateScreen+1)+0
  8945  0605  0826               	movf	(??i1_UpdateScreen+1)+0,w
  8946  0606  00F6               	movwf	0+(?i1_lcd_writeThisStringAt)+01h
  8947  0607  3001               	movlw	(01h)
  8948  0608  120A  158A  2066   	fcall	i1_lcd_writeThisStringAt
              120A  118A         
  8949                           	line	150
  8950                           	
  8951  060D                     i1l4334:	
  8952                           	line	152
  8953                           	
  8954  060D                     i1l8907:	
  8955                           ;SettingModeHandler.c: 150: }
  8956                           ;SettingModeHandler.c: 152: _delay((unsigned long)((3000)*(20000000/4000.0)));
  8957                           	opt asmopt_off
  8958  060D  304C               movlw  76
  8959  060E  1283               	bcf	status, 5	;RP0=0, select bank0
  8960  060F  1303               	bcf	status, 6	;RP1=0, select bank0
  8961  0610  00A7               movwf	((??i1_UpdateScreen+0)+0+2),f
  8962  0611  30CE               movlw	206
  8963  0612  00A6               movwf	((??i1_UpdateScreen+0)+0+1),f
  8964  0613  3081               	movlw	129
  8965  0614  00A5               movwf	((??i1_UpdateScreen+0)+0),f
  8966  0615                     u673_27:
  8967  0615  0BA5               	decfsz	((??i1_UpdateScreen+0)+0),f
  8968  0616  2E15               	goto	u673_27
  8969  0617  0BA6               	decfsz	((??i1_UpdateScreen+0)+0+1),f
  8970  0618  2E15               	goto	u673_27
  8971  0619  0BA7               	decfsz	((??i1_UpdateScreen+0)+0+2),f
  8972  061A  2E15               	goto	u673_27
  8973  061B  0064               	clrwdt
  8974                           opt asmopt_on
  8975                           
  8976                           	line	153
  8977                           	
  8978  061C                     i1l4335:	
  8979  061C  0008               	return
  8980                           	opt stack 0
  8981                           GLOBAL	__end_ofi1_UpdateScreen
  8982  061D                     	__end_ofi1_UpdateScreen:
  8983 ;; =============== function i1_UpdateScreen ends ============
  8984                           
  8985                           	signat	i1_UpdateScreen,88
  8986                           	global	i1_lcd_writeThisDigit
  8987                           psect	text1494,local,class=CODE,delta=2
  8988                           global __ptext1494
  8989  0E52                     __ptext1494:
  8990                           
  8991 ;; *************** function i1_lcd_writeThisDigit *****************
  8992 ;; Defined at:
  8993 ;;		line 125 in file "lcd.c"
  8994 ;; Parameters:    Size  Location     Type
  8995 ;;  lcd_writeThi    1    wreg     unsigned char 
  8996 ;; Auto vars:     Size  Location     Type
  8997 ;;  lcd_writeThi    1    4[BANK0 ] unsigned char 
  8998 ;;  lcd_writeThi    4    0[BANK0 ] unsigned char [4]
  8999 ;; Return value:  Size  Location     Type
  9000 ;;		None               void
  9001 ;; Registers used:
  9002 ;;		wreg, fsr0l, fsr0h, status,2, status,0, btemp+0, btemp+1, pclath, cstack
  9003 ;; Tracked objects:
  9004 ;;		On entry : 0/0
  9005 ;;		On exit  : 0/0
  9006 ;;		Unchanged: 0/0
  9007 ;; Data sizes:     COMMON   BANK0   BANK1   BANK3   BANK2
  9008 ;;      Params:         0       0       0       0       0
  9009 ;;      Locals:         0       5       0       0       0
  9010 ;;      Temps:          3       0       0       0       0
  9011 ;;      Totals:         3       5       0       0       0
  9012 ;;Total ram usage:        8 bytes
  9013 ;; Hardware stack levels used:    1
  9014 ;; Hardware stack levels required when called:    2
  9015 ;; This function calls:
  9016 ;;		i1___awmod
  9017 ;;		i1___awdiv
  9018 ;;		i1_lcd_puts
  9019 ;; This function is called by:
  9020 ;;		i1_UpdateScreen
  9021 ;; This function uses a non-reentrant model
  9022 ;;
  9023                           psect	text1494
  9024                           	file	"lcd.c"
  9025                           	line	125
  9026                           	global	__size_ofi1_lcd_writeThisDigit
  9027  0086                     	__size_ofi1_lcd_writeThisDigit	equ	__end_ofi1_lcd_writeThisDigit-i1_lcd_writeThisDigit
  9028                           	
  9029  0E52                     i1_lcd_writeThisDigit:	
  9030 ;; hardware stack exceeded
  9031                           	opt	stack 0
  9032                           ; Regs used in i1_lcd_writeThisDigit: [wreg-fsr0h+status,2-btemp+1+pclath+cstack]
  9033                           ;i1lcd_writeThisDigit@data stored from wreg
  9034  0E52  1283               	bcf	status, 5	;RP0=0, select bank0
  9035  0E53  1303               	bcf	status, 6	;RP1=0, select bank0
  9036  0E54  00A4               	movwf	(i1lcd_writeThisDigit@data)
  9037                           	line	126
  9038                           	
  9039  0E55                     i1l8971:	
  9040                           ;lcd.c: 126: UByte string[4]= {'0','0','0','\0'};
  9041  0E55  084F               	movf	(lcd_writeThisDigit@F653+3),w
  9042  0E56  00A3               	movwf	(i1lcd_writeThisDigit@string+3)
  9043  0E57  084E               	movf	(lcd_writeThisDigit@F653+2),w
  9044  0E58  00A2               	movwf	(i1lcd_writeThisDigit@string+2)
  9045  0E59  084D               	movf	(lcd_writeThisDigit@F653+1),w
  9046  0E5A  00A1               	movwf	(i1lcd_writeThisDigit@string+1)
  9047  0E5B  084C               	movf	(lcd_writeThisDigit@F653),w
  9048  0E5C  00A0               	movwf	(i1lcd_writeThisDigit@string)
  9049                           
  9050                           	line	128
  9051                           	
  9052  0E5D                     i1l8973:	
  9053                           ;lcd.c: 128: string[2] = data%10 + 0x30;
  9054  0E5D  300A               	movlw	low(0Ah)
  9055  0E5E  00F0               	movwf	(?i1___awmod)
  9056  0E5F  3000               	movlw	high(0Ah)
  9057  0E60  00F1               	movwf	((?i1___awmod))+1
  9058  0E61  0824               	movf	(i1lcd_writeThisDigit@data),w
  9059  0E62  00F9               	movwf	(??i1_lcd_writeThisDigit+0)+0
  9060  0E63  01FA               	clrf	(??i1_lcd_writeThisDigit+0)+0+1
  9061  0E64  0879               	movf	0+(??i1_lcd_writeThisDigit+0)+0,w
  9062  0E65  00F2               	movwf	0+(?i1___awmod)+02h
  9063  0E66  087A               	movf	1+(??i1_lcd_writeThisDigit+0)+0,w
  9064  0E67  00F3               	movwf	1+(?i1___awmod)+02h
  9065  0E68  120A  158A  2447   	fcall	i1___awmod
              120A  158A         
  9066  0E6D  0870               	movf	(0+(?i1___awmod)),w
  9067  0E6E  3E30               	addlw	030h
  9068  0E6F  00FB               	movwf	(??i1_lcd_writeThisDigit+2)+0
  9069  0E70  087B               	movf	(??i1_lcd_writeThisDigit+2)+0,w
  9070  0E71  1283               	bcf	status, 5	;RP0=0, select bank0
  9071  0E72  1303               	bcf	status, 6	;RP1=0, select bank0
  9072  0E73  00A2               	movwf	0+(i1lcd_writeThisDigit@string)+02h
  9073                           	line	129
  9074                           	
  9075  0E74                     i1l8975:	
  9076                           ;lcd.c: 129: data=data/10;
  9077  0E74  300A               	movlw	low(0Ah)
  9078  0E75  00F0               	movwf	(?i1___awdiv)
  9079  0E76  3000               	movlw	high(0Ah)
  9080  0E77  00F1               	movwf	((?i1___awdiv))+1
  9081  0E78  0824               	movf	(i1lcd_writeThisDigit@data),w
  9082  0E79  00F9               	movwf	(??i1_lcd_writeThisDigit+0)+0
  9083  0E7A  01FA               	clrf	(??i1_lcd_writeThisDigit+0)+0+1
  9084  0E7B  0879               	movf	0+(??i1_lcd_writeThisDigit+0)+0,w
  9085  0E7C  00F2               	movwf	0+(?i1___awdiv)+02h
  9086  0E7D  087A               	movf	1+(??i1_lcd_writeThisDigit+0)+0,w
  9087  0E7E  00F3               	movwf	1+(?i1___awdiv)+02h
  9088  0E7F  120A  158A  2570   	fcall	i1___awdiv
              120A  158A         
  9089  0E84  0870               	movf	(0+(?i1___awdiv)),w
  9090  0E85  00FB               	movwf	(??i1_lcd_writeThisDigit+2)+0
  9091  0E86  087B               	movf	(??i1_lcd_writeThisDigit+2)+0,w
  9092  0E87  1283               	bcf	status, 5	;RP0=0, select bank0
  9093  0E88  1303               	bcf	status, 6	;RP1=0, select bank0
  9094  0E89  00A4               	movwf	(i1lcd_writeThisDigit@data)
  9095                           	line	130
  9096                           	
  9097  0E8A                     i1l8977:	
  9098                           ;lcd.c: 130: string[1] = data%10 + 0x30;
  9099  0E8A  300A               	movlw	low(0Ah)
  9100  0E8B  00F0               	movwf	(?i1___awmod)
  9101  0E8C  3000               	movlw	high(0Ah)
  9102  0E8D  00F1               	movwf	((?i1___awmod))+1
  9103  0E8E  0824               	movf	(i1lcd_writeThisDigit@data),w
  9104  0E8F  00F9               	movwf	(??i1_lcd_writeThisDigit+0)+0
  9105  0E90  01FA               	clrf	(??i1_lcd_writeThisDigit+0)+0+1
  9106  0E91  0879               	movf	0+(??i1_lcd_writeThisDigit+0)+0,w
  9107  0E92  00F2               	movwf	0+(?i1___awmod)+02h
  9108  0E93  087A               	movf	1+(??i1_lcd_writeThisDigit+0)+0,w
  9109  0E94  00F3               	movwf	1+(?i1___awmod)+02h
  9110  0E95  120A  158A  2447   	fcall	i1___awmod
              120A  158A         
  9111  0E9A  0870               	movf	(0+(?i1___awmod)),w
  9112  0E9B  3E30               	addlw	030h
  9113  0E9C  00FB               	movwf	(??i1_lcd_writeThisDigit+2)+0
  9114  0E9D  087B               	movf	(??i1_lcd_writeThisDigit+2)+0,w
  9115  0E9E  1283               	bcf	status, 5	;RP0=0, select bank0
  9116  0E9F  1303               	bcf	status, 6	;RP1=0, select bank0
  9117  0EA0  00A1               	movwf	0+(i1lcd_writeThisDigit@string)+01h
  9118                           	line	131
  9119                           	
  9120  0EA1                     i1l8979:	
  9121                           ;lcd.c: 131: data = data/10;
  9122  0EA1  300A               	movlw	low(0Ah)
  9123  0EA2  00F0               	movwf	(?i1___awdiv)
  9124  0EA3  3000               	movlw	high(0Ah)
  9125  0EA4  00F1               	movwf	((?i1___awdiv))+1
  9126  0EA5  0824               	movf	(i1lcd_writeThisDigit@data),w
  9127  0EA6  00F9               	movwf	(??i1_lcd_writeThisDigit+0)+0
  9128  0EA7  01FA               	clrf	(??i1_lcd_writeThisDigit+0)+0+1
  9129  0EA8  0879               	movf	0+(??i1_lcd_writeThisDigit+0)+0,w
  9130  0EA9  00F2               	movwf	0+(?i1___awdiv)+02h
  9131  0EAA  087A               	movf	1+(??i1_lcd_writeThisDigit+0)+0,w
  9132  0EAB  00F3               	movwf	1+(?i1___awdiv)+02h
  9133  0EAC  120A  158A  2570   	fcall	i1___awdiv
              120A  158A         
  9134  0EB1  0870               	movf	(0+(?i1___awdiv)),w
  9135  0EB2  00FB               	movwf	(??i1_lcd_writeThisDigit+2)+0
  9136  0EB3  087B               	movf	(??i1_lcd_writeThisDigit+2)+0,w
  9137  0EB4  1283               	bcf	status, 5	;RP0=0, select bank0
  9138  0EB5  1303               	bcf	status, 6	;RP1=0, select bank0
  9139  0EB6  00A4               	movwf	(i1lcd_writeThisDigit@data)
  9140                           	line	132
  9141                           	
  9142  0EB7                     i1l8981:	
  9143                           ;lcd.c: 132: string[0] = data%10 + 0x30;
  9144  0EB7  300A               	movlw	low(0Ah)
  9145  0EB8  00F0               	movwf	(?i1___awmod)
  9146  0EB9  3000               	movlw	high(0Ah)
  9147  0EBA  00F1               	movwf	((?i1___awmod))+1
  9148  0EBB  0824               	movf	(i1lcd_writeThisDigit@data),w
  9149  0EBC  00F9               	movwf	(??i1_lcd_writeThisDigit+0)+0
  9150  0EBD  01FA               	clrf	(??i1_lcd_writeThisDigit+0)+0+1
  9151  0EBE  0879               	movf	0+(??i1_lcd_writeThisDigit+0)+0,w
  9152  0EBF  00F2               	movwf	0+(?i1___awmod)+02h
  9153  0EC0  087A               	movf	1+(??i1_lcd_writeThisDigit+0)+0,w
  9154  0EC1  00F3               	movwf	1+(?i1___awmod)+02h
  9155  0EC2  120A  158A  2447   	fcall	i1___awmod
              120A  158A         
  9156  0EC7  0870               	movf	(0+(?i1___awmod)),w
  9157  0EC8  3E30               	addlw	030h
  9158  0EC9  00FB               	movwf	(??i1_lcd_writeThisDigit+2)+0
  9159  0ECA  087B               	movf	(??i1_lcd_writeThisDigit+2)+0,w
  9160  0ECB  1283               	bcf	status, 5	;RP0=0, select bank0
  9161  0ECC  1303               	bcf	status, 6	;RP1=0, select bank0
  9162  0ECD  00A0               	movwf	(i1lcd_writeThisDigit@string)
  9163                           	line	134
  9164                           	
  9165  0ECE                     i1l8983:	
  9166                           ;lcd.c: 134: lcd_puts(string);
  9167  0ECE  3020               	movlw	(i1lcd_writeThisDigit@string&0ffh)
  9168  0ECF  00F3               	movwf	(?i1_lcd_puts)
  9169  0ED0  3000               	movlw	(0x0/2)
  9170  0ED1  00F4               	movwf	(?i1_lcd_puts+1)
  9171  0ED2  120A  158A  210A   	fcall	i1_lcd_puts
              120A  158A         
  9172                           	line	136
  9173                           	
  9174  0ED7                     i1l4937:	
  9175  0ED7  0008               	return
  9176                           	opt stack 0
  9177                           GLOBAL	__end_ofi1_lcd_writeThisDigit
  9178  0ED8                     	__end_ofi1_lcd_writeThisDigit:
  9179 ;; =============== function i1_lcd_writeThisDigit ends ============
  9180                           
  9181                           	signat	i1_lcd_writeThisDigit,88
  9182                           	global	i1_lcd_writeThisStringAt
  9183                           psect	text1495,local,class=CODE,delta=2
  9184                           global __ptext1495
  9185  0866                     __ptext1495:
  9186                           
  9187 ;; *************** function i1_lcd_writeThisStringAt *****************
  9188 ;; Defined at:
  9189 ;;		line 113 in file "lcd.c"
  9190 ;; Parameters:    Size  Location     Type
  9191 ;;  lcd_writeThi    1    wreg     unsigned char 
  9192 ;;  lcd_writeThi    1    5[COMMON] unsigned char 
  9193 ;;  lcd_writeThi    1    6[COMMON] PTR unsigned char 
  9194 ;;		 -> STR_18(3), STR_17(4), STR_16(13), STR_15(3), 
  9195 ;;		 -> STR_14(3), STR_13(16), STR_12(3), STR_11(3), 
  9196 ;;		 -> STR_10(13), STR_3(8), STR_2(15), STR_1(14), 
  9197 ;; Auto vars:     Size  Location     Type
  9198 ;;  lcd_writeThi    1    8[COMMON] unsigned char 
  9199 ;; Return value:  Size  Location     Type
  9200 ;;		None               void
  9201 ;; Registers used:
  9202 ;;		wreg, fsr0l, fsr0h, status,2, status,0, btemp+0, btemp+1, pclath, cstack
  9203 ;; Tracked objects:
  9204 ;;		On entry : 0/0
  9205 ;;		On exit  : 0/0
  9206 ;;		Unchanged: 0/0
  9207 ;; Data sizes:     COMMON   BANK0   BANK1   BANK3   BANK2
  9208 ;;      Params:         2       0       0       0       0
  9209 ;;      Locals:         1       0       0       0       0
  9210 ;;      Temps:          1       0       0       0       0
  9211 ;;      Totals:         4       0       0       0       0
  9212 ;;Total ram usage:        4 bytes
  9213 ;; Hardware stack levels used:    1
  9214 ;; Hardware stack levels required when called:    2
  9215 ;; This function calls:
  9216 ;;		i1_goto_XY
  9217 ;;		i1_lcd_puts
  9218 ;; This function is called by:
  9219 ;;		_ISR
  9220 ;;		i1_UpdateScreen
  9221 ;; This function uses a non-reentrant model
  9222 ;;
  9223                           psect	text1495
  9224                           	file	"lcd.c"
  9225                           	line	113
  9226                           	global	__size_ofi1_lcd_writeThisStringAt
  9227  0015                     	__size_ofi1_lcd_writeThisStringAt	equ	__end_ofi1_lcd_writeThisStringAt-i1_lcd_writeThis
                                 StringAt
  9228                           	
  9229  0866                     i1_lcd_writeThisStringAt:	
  9230 ;; hardware stack exceeded
  9231                           	opt	stack 0
  9232                           ; Regs used in i1_lcd_writeThisStringAt: [wreg-fsr0h+status,2-btemp+1+pclath+cstack]
  9233                           ;i1lcd_writeThisStringAt@row stored from wreg
  9234  0866  00F8               	movwf	(i1lcd_writeThisStringAt@row)
  9235                           	line	114
  9236                           	
  9237  0867                     i1l8967:	
  9238                           ;lcd.c: 114: goto_XY(row,column);
  9239  0867  0875               	movf	(i1lcd_writeThisStringAt@column),w
  9240  0868  00F7               	movwf	(??i1_lcd_writeThisStringAt+0)+0
  9241  0869  0877               	movf	(??i1_lcd_writeThisStringAt+0)+0,w
  9242  086A  00F3               	movwf	(?i1_goto_XY)
  9243  086B  0878               	movf	(i1lcd_writeThisStringAt@row),w
  9244  086C  120A  158A  20AE   	fcall	i1_goto_XY
              120A  158A         
  9245                           	line	115
  9246                           	
  9247  0871                     i1l8969:	
  9248                           ;lcd.c: 115: lcd_puts(ptr);
  9249  0871  0876               	movf	(i1lcd_writeThisStringAt@ptr),w
  9250  0872  00F3               	movwf	(?i1_lcd_puts)
  9251  0873  3080               	movlw	80h
  9252  0874  00F4               	movwf	(?i1_lcd_puts+1)
  9253  0875  120A  158A  210A   	fcall	i1_lcd_puts
              120A  158A         
  9254                           	line	116
  9255                           	
  9256  087A                     i1l4929:	
  9257  087A  0008               	return
  9258                           	opt stack 0
  9259                           GLOBAL	__end_ofi1_lcd_writeThisStringAt
  9260  087B                     	__end_ofi1_lcd_writeThisStringAt:
  9261 ;; =============== function i1_lcd_writeThisStringAt ends ============
  9262                           
  9263                           	signat	i1_lcd_writeThisStringAt,88
  9264                           	global	i1_lcd_clear
  9265                           psect	text1496,local,class=CODE,delta=2
  9266                           global __ptext1496
  9267  0819                     __ptext1496:
  9268                           
  9269 ;; *************** function i1_lcd_clear *****************
  9270 ;; Defined at:
  9271 ;;		line 101 in file "lcd.c"
  9272 ;; Parameters:    Size  Location     Type
  9273 ;;		None
  9274 ;; Auto vars:     Size  Location     Type
  9275 ;;		None
  9276 ;; Return value:  Size  Location     Type
  9277 ;;		None               void
  9278 ;; Registers used:
  9279 ;;		wreg, status,2, status,0, pclath, cstack
  9280 ;; Tracked objects:
  9281 ;;		On entry : 0/0
  9282 ;;		On exit  : 0/0
  9283 ;;		Unchanged: 0/0
  9284 ;; Data sizes:     COMMON   BANK0   BANK1   BANK3   BANK2
  9285 ;;      Params:         0       0       0       0       0
  9286 ;;      Locals:         0       0       0       0       0
  9287 ;;      Temps:          0       0       0       0       0
  9288 ;;      Totals:         0       0       0       0       0
  9289 ;;Total ram usage:        0 bytes
  9290 ;; Hardware stack levels used:    1
  9291 ;; Hardware stack levels required when called:    1
  9292 ;; This function calls:
  9293 ;;		i1_lcd_cmd
  9294 ;; This function is called by:
  9295 ;;		_ISR
  9296 ;;		i1_UpdateScreen
  9297 ;; This function uses a non-reentrant model
  9298 ;;
  9299                           psect	text1496
  9300                           	file	"lcd.c"
  9301                           	line	101
  9302                           	global	__size_ofi1_lcd_clear
  9303  0007                     	__size_ofi1_lcd_clear	equ	__end_ofi1_lcd_clear-i1_lcd_clear
  9304                           	
  9305  0819                     i1_lcd_clear:	
  9306 ;; hardware stack exceeded
  9307                           	opt	stack 0
  9308                           ; Regs used in i1_lcd_clear: [wreg+status,2+status,0+pclath+cstack]
  9309                           	line	102
  9310                           	
  9311  0819                     i1l8965:	
  9312                           ;lcd.c: 102: lcd_cmd(0x01);
  9313  0819  3001               	movlw	(01h)
  9314  081A  120A  158A  21D7   	fcall	i1_lcd_cmd
              120A  158A         
  9315                           	line	103
  9316                           	
  9317  081F                     i1l4923:	
  9318  081F  0008               	return
  9319                           	opt stack 0
  9320                           GLOBAL	__end_ofi1_lcd_clear
  9321  0820                     	__end_ofi1_lcd_clear:
  9322 ;; =============== function i1_lcd_clear ends ============
  9323                           
  9324                           	signat	i1_lcd_clear,88
  9325                           	global	i1_goto_XY
  9326                           psect	text1497,local,class=CODE,delta=2
  9327                           global __ptext1497
  9328  08AE                     __ptext1497:
  9329                           
  9330 ;; *************** function i1_goto_XY *****************
  9331 ;; Defined at:
  9332 ;;		line 89 in file "lcd.c"
  9333 ;; Parameters:    Size  Location     Type
  9334 ;;  goto_XY         1    wreg     unsigned char 
  9335 ;;  goto_XY         1    3[COMMON] unsigned char 
  9336 ;; Auto vars:     Size  Location     Type
  9337 ;;  goto_XY         1    4[COMMON] unsigned char 
  9338 ;; Return value:  Size  Location     Type
  9339 ;;		None               void
  9340 ;; Registers used:
  9341 ;;		wreg, status,2, status,0, pclath, cstack
  9342 ;; Tracked objects:
  9343 ;;		On entry : 0/0
  9344 ;;		On exit  : 0/0
  9345 ;;		Unchanged: 0/0
  9346 ;; Data sizes:     COMMON   BANK0   BANK1   BANK3   BANK2
  9347 ;;      Params:         1       0       0       0       0
  9348 ;;      Locals:         1       0       0       0       0
  9349 ;;      Temps:          0       0       0       0       0
  9350 ;;      Totals:         2       0       0       0       0
  9351 ;;Total ram usage:        2 bytes
  9352 ;; Hardware stack levels used:    1
  9353 ;; Hardware stack levels required when called:    1
  9354 ;; This function calls:
  9355 ;;		i1_lcd_cmd
  9356 ;; This function is called by:
  9357 ;;		i1_lcd_writeThisStringAt
  9358 ;; This function uses a non-reentrant model
  9359 ;;
  9360                           psect	text1497
  9361                           	file	"lcd.c"
  9362                           	line	89
  9363                           	global	__size_ofi1_goto_XY
  9364  001C                     	__size_ofi1_goto_XY	equ	__end_ofi1_goto_XY-i1_goto_XY
  9365                           	
  9366  08AE                     i1_goto_XY:	
  9367 ;; hardware stack exceeded
  9368                           	opt	stack 0
  9369                           ; Regs used in i1_goto_XY: [wreg+status,2+status,0+pclath+cstack]
  9370                           ;i1goto_XY@row stored from wreg
  9371  08AE  00F4               	movwf	(i1goto_XY@row)
  9372                           	line	90
  9373                           	
  9374  08AF                     i1l8957:	
  9375                           ;lcd.c: 90: if(row == 0)
  9376  08AF  08F4               	movf	(i1goto_XY@row),f
  9377  08B0  1D03               	skipz
  9378  08B1  28B3               	goto	u428_21
  9379  08B2  28B4               	goto	u428_20
  9380  08B3                     u428_21:
  9381  08B3  28BC               	goto	i1l4917
  9382  08B4                     u428_20:
  9383                           	line	92
  9384                           	
  9385  08B4                     i1l8959:	
  9386                           ;lcd.c: 91: {
  9387                           ;lcd.c: 92: lcd_cmd(0x80 + column);
  9388  08B4  0873               	movf	(i1goto_XY@column),w
  9389  08B5  3E80               	addlw	080h
  9390  08B6  120A  158A  21D7   	fcall	i1_lcd_cmd
              120A  158A         
  9391                           	line	93
  9392                           ;lcd.c: 93: }
  9393  08BB  28C9               	goto	i1l4918
  9394                           	line	94
  9395                           	
  9396  08BC                     i1l4917:	
  9397                           	
  9398  08BC                     i1l8961:	
  9399                           ;lcd.c: 94: else if(row == 1)
  9400  08BC  0874               	movf	(i1goto_XY@row),w
  9401  08BD  3A01               	xorlw	01h
  9402  08BE  1D03               	skipz
  9403  08BF  28C1               	goto	u429_21
  9404  08C0  28C2               	goto	u429_20
  9405  08C1                     u429_21:
  9406  08C1  28C9               	goto	i1l4919
  9407  08C2                     u429_20:
  9408                           	line	96
  9409                           	
  9410  08C2                     i1l8963:	
  9411                           ;lcd.c: 95: {
  9412                           ;lcd.c: 96: lcd_cmd(0xC0 + column);
  9413  08C2  0873               	movf	(i1goto_XY@column),w
  9414  08C3  3EC0               	addlw	0C0h
  9415  08C4  120A  158A  21D7   	fcall	i1_lcd_cmd
              120A  158A         
  9416                           	line	97
  9417                           	
  9418  08C9                     i1l4919:	
  9419                           	line	98
  9420                           	
  9421  08C9                     i1l4918:	
  9422                           	
  9423  08C9                     i1l4920:	
  9424  08C9  0008               	return
  9425                           	opt stack 0
  9426                           GLOBAL	__end_ofi1_goto_XY
  9427  08CA                     	__end_ofi1_goto_XY:
  9428 ;; =============== function i1_goto_XY ends ============
  9429                           
  9430                           	signat	i1_goto_XY,88
  9431                           	global	i1_lcd_puts
  9432                           psect	text1498,local,class=CODE,delta=2
  9433                           global __ptext1498
  9434  090A                     __ptext1498:
  9435                           
  9436 ;; *************** function i1_lcd_puts *****************
  9437 ;; Defined at:
  9438 ;;		line 80 in file "lcd.c"
  9439 ;; Parameters:    Size  Location     Type
  9440 ;;  lcd_puts        2    3[COMMON] PTR unsigned char 
  9441 ;;		 -> i1lcd_writeThisDigit@string(4), STR_22(16), STR_21(14), STR_20(15), 
  9442 ;;		 -> STR_19(17), STR_18(3), STR_17(4), STR_16(13), 
  9443 ;;		 -> STR_15(3), STR_14(3), STR_13(16), STR_12(3), 
  9444 ;;		 -> STR_11(3), STR_10(13), STR_9(15), STR_8(17), 
  9445 ;;		 -> STR_7(15), STR_6(16), STR_5(13), STR_4(8), 
  9446 ;;		 -> STR_3(8), STR_2(15), STR_1(14), 
  9447 ;; Auto vars:     Size  Location     Type
  9448 ;;		None
  9449 ;; Return value:  Size  Location     Type
  9450 ;;		None               void
  9451 ;; Registers used:
  9452 ;;		wreg, fsr0l, fsr0h, status,2, status,0, btemp+0, btemp+1, pclath, cstack
  9453 ;; Tracked objects:
  9454 ;;		On entry : 0/0
  9455 ;;		On exit  : 0/0
  9456 ;;		Unchanged: 0/0
  9457 ;; Data sizes:     COMMON   BANK0   BANK1   BANK3   BANK2
  9458 ;;      Params:         2       0       0       0       0
  9459 ;;      Locals:         0       0       0       0       0
  9460 ;;      Temps:          0       0       0       0       0
  9461 ;;      Totals:         2       0       0       0       0
  9462 ;;Total ram usage:        2 bytes
  9463 ;; Hardware stack levels used:    1
  9464 ;; Hardware stack levels required when called:    1
  9465 ;; This function calls:
  9466 ;;		i1_lcd_write
  9467 ;; This function is called by:
  9468 ;;		i1_lcd_writeThisStringAt
  9469 ;;		i1_lcd_writeThisDigit
  9470 ;; This function uses a non-reentrant model
  9471 ;;
  9472                           psect	text1498
  9473                           	file	"lcd.c"
  9474                           	line	80
  9475                           	global	__size_ofi1_lcd_puts
  9476  0024                     	__size_ofi1_lcd_puts	equ	__end_ofi1_lcd_puts-i1_lcd_puts
  9477                           	
  9478  090A                     i1_lcd_puts:	
  9479 ;; hardware stack exceeded
  9480                           	opt	stack 0
  9481                           ; Regs used in i1_lcd_puts: [wreg-fsr0h+status,2-btemp+1+pclath+cstack]
  9482                           	line	81
  9483                           	
  9484  090A                     i1l8949:	
  9485                           ;lcd.c: 81: while(*ptr != '\0')
  9486  090A  291F               	goto	i1l4911
  9487                           	
  9488  090B                     i1l4912:	
  9489                           	line	83
  9490                           	
  9491  090B                     i1l8951:	
  9492                           ;lcd.c: 82: {
  9493                           ;lcd.c: 83: lcd_write(*ptr++);
  9494  090B  0874               	movf	(i1lcd_puts@ptr+1),w
  9495  090C  00FF               	movwf	btemp+1
  9496  090D  0873               	movf	(i1lcd_puts@ptr),w
  9497  090E  0084               	movwf	fsr0
  9498  090F  120A  118A  2015   	fcall	stringtab
              120A  158A         
  9499  0914  120A  158A  21A9   	fcall	i1_lcd_write
              120A  158A         
  9500                           	
  9501  0919                     i1l8953:	
  9502  0919  3001               	movlw	low(01h)
  9503  091A  07F3               	addwf	(i1lcd_puts@ptr),f
  9504  091B  1803               	skipnc
  9505  091C  0AF4               	incf	(i1lcd_puts@ptr+1),f
  9506  091D  3000               	movlw	high(01h)
  9507  091E  07F4               	addwf	(i1lcd_puts@ptr+1),f
  9508                           	line	84
  9509                           	
  9510  091F                     i1l4911:	
  9511                           	line	81
  9512                           	
  9513  091F                     i1l8955:	
  9514  091F  0874               	movf	(i1lcd_puts@ptr+1),w
  9515  0920  00FF               	movwf	btemp+1
  9516  0921  0873               	movf	(i1lcd_puts@ptr),w
  9517  0922  0084               	movwf	fsr0
  9518  0923  120A  118A  2015   	fcall	stringtab
              120A  158A         
  9519  0928  3800               	iorlw	0
  9520  0929  1D03               	skipz
  9521  092A  292C               	goto	u427_21
  9522  092B  292D               	goto	u427_20
  9523  092C                     u427_21:
  9524  092C  290B               	goto	i1l4912
  9525  092D                     u427_20:
  9526                           	
  9527  092D                     i1l4913:	
  9528                           	line	85
  9529                           	
  9530  092D                     i1l4914:	
  9531  092D  0008               	return
  9532                           	opt stack 0
  9533                           GLOBAL	__end_ofi1_lcd_puts
  9534  092E                     	__end_ofi1_lcd_puts:
  9535 ;; =============== function i1_lcd_puts ends ============
  9536                           
  9537                           	signat	i1_lcd_puts,88
  9538                           	global	i1_lcd_cmd
  9539                           psect	text1499,local,class=CODE,delta=2
  9540                           global __ptext1499
  9541  09D7                     __ptext1499:
  9542                           
  9543 ;; *************** function i1_lcd_cmd *****************
  9544 ;; Defined at:
  9545 ;;		line 50 in file "lcd.c"
  9546 ;; Parameters:    Size  Location     Type
  9547 ;;  lcd_cmd         1    wreg     unsigned char 
  9548 ;; Auto vars:     Size  Location     Type
  9549 ;;  lcd_cmd         1    2[COMMON] unsigned char 
  9550 ;; Return value:  Size  Location     Type
  9551 ;;		None               void
  9552 ;; Registers used:
  9553 ;;		wreg, status,2, status,0
  9554 ;; Tracked objects:
  9555 ;;		On entry : 0/0
  9556 ;;		On exit  : 0/0
  9557 ;;		Unchanged: 0/0
  9558 ;; Data sizes:     COMMON   BANK0   BANK1   BANK3   BANK2
  9559 ;;      Params:         0       0       0       0       0
  9560 ;;      Locals:         1       0       0       0       0
  9561 ;;      Temps:          2       0       0       0       0
  9562 ;;      Totals:         3       0       0       0       0
  9563 ;;Total ram usage:        3 bytes
  9564 ;; Hardware stack levels used:    1
  9565 ;; This function calls:
  9566 ;;		Nothing
  9567 ;; This function is called by:
  9568 ;;		i1_goto_XY
  9569 ;;		i1_lcd_clear
  9570 ;; This function uses a non-reentrant model
  9571 ;;
  9572                           psect	text1499
  9573                           	file	"lcd.c"
  9574                           	line	50
  9575                           	global	__size_ofi1_lcd_cmd
  9576  002E                     	__size_ofi1_lcd_cmd	equ	__end_ofi1_lcd_cmd-i1_lcd_cmd
  9577                           	
  9578  09D7                     i1_lcd_cmd:	
  9579 ;; hardware stack exceeded
  9580                           	opt	stack 0
  9581                           ; Regs used in i1_lcd_cmd: [wreg+status,2+status,0]
  9582                           ;i1lcd_cmd@cmnd stored from wreg
  9583                           	line	52
  9584  09D7  00F2               	movwf	(i1lcd_cmd@cmnd)
  9585                           	
  9586  09D8                     i1l8929:	
  9587                           ;lcd.c: 52: PORTD = ((cmnd >> 4)& 0x0F);
  9588  09D8  0872               	movf	(i1lcd_cmd@cmnd),w
  9589  09D9  00F0               	movwf	(??i1_lcd_cmd+0)+0
  9590  09DA  3004               	movlw	04h
  9591  09DB                     u426_25:
  9592  09DB  1003               	clrc
  9593  09DC  0CF0               	rrf	(??i1_lcd_cmd+0)+0,f
  9594  09DD  3EFF               	addlw	-1
  9595  09DE  1D03               	skipz
  9596  09DF  29DB               	goto	u426_25
  9597  09E0  0870               	movf	0+(??i1_lcd_cmd+0)+0,w
  9598  09E1  390F               	andlw	0Fh
  9599  09E2  1283               	bcf	status, 5	;RP0=0, select bank0
  9600  09E3  1303               	bcf	status, 6	;RP1=0, select bank0
  9601  09E4  0088               	movwf	(8)	;volatile
  9602                           	line	59
  9603                           	
  9604  09E5                     i1l8931:	
  9605                           ;lcd.c: 59: RE0=0;
  9606  09E5  1009               	bcf	(72/8),(72)&7
  9607                           	line	60
  9608                           	
  9609  09E6                     i1l8933:	
  9610                           ;lcd.c: 60: RE1=0;
  9611  09E6  1089               	bcf	(73/8),(73)&7
  9612                           	line	61
  9613                           	
  9614  09E7                     i1l8935:	
  9615                           ;lcd.c: 61: RE2=1;
  9616  09E7  1509               	bsf	(74/8),(74)&7
  9617                           	line	62
  9618                           	
  9619  09E8                     i1l8937:	
  9620                           ;lcd.c: 62: _delay((unsigned long)((5)*(20000000/4000.0)));
  9621                           	opt asmopt_off
  9622  09E8  3021               movlw	33
  9623  09E9  00F1               movwf	((??i1_lcd_cmd+0)+0+1),f
  9624  09EA  3076               	movlw	118
  9625  09EB  00F0               movwf	((??i1_lcd_cmd+0)+0),f
  9626  09EC                     u674_27:
  9627  09EC  0BF0               	decfsz	((??i1_lcd_cmd+0)+0),f
  9628  09ED  29EC               	goto	u674_27
  9629  09EE  0BF1               	decfsz	((??i1_lcd_cmd+0)+0+1),f
  9630  09EF  29EC               	goto	u674_27
  9631  09F0  0064               	clrwdt
  9632                           opt asmopt_on
  9633                           
  9634                           	line	63
  9635                           	
  9636  09F1                     i1l8939:	
  9637                           ;lcd.c: 63: RE2=0;
  9638  09F1  1283               	bcf	status, 5	;RP0=0, select bank0
  9639  09F2  1303               	bcf	status, 6	;RP1=0, select bank0
  9640  09F3  1109               	bcf	(74/8),(74)&7
  9641                           	line	67
  9642                           	
  9643  09F4                     i1l8941:	
  9644                           ;lcd.c: 67: PORTD=( cmnd & 0x0F );
  9645  09F4  0872               	movf	(i1lcd_cmd@cmnd),w
  9646  09F5  390F               	andlw	0Fh
  9647  09F6  0088               	movwf	(8)	;volatile
  9648                           	line	73
  9649                           	
  9650  09F7                     i1l8943:	
  9651                           ;lcd.c: 73: RE2=1;
  9652  09F7  1509               	bsf	(74/8),(74)&7
  9653                           	line	74
  9654                           	
  9655  09F8                     i1l8945:	
  9656                           ;lcd.c: 74: _delay((unsigned long)((5)*(20000000/4000.0)));
  9657                           	opt asmopt_off
  9658  09F8  3021               movlw	33
  9659  09F9  00F1               movwf	((??i1_lcd_cmd+0)+0+1),f
  9660  09FA  3076               	movlw	118
  9661  09FB  00F0               movwf	((??i1_lcd_cmd+0)+0),f
  9662  09FC                     u675_27:
  9663  09FC  0BF0               	decfsz	((??i1_lcd_cmd+0)+0),f
  9664  09FD  29FC               	goto	u675_27
  9665  09FE  0BF1               	decfsz	((??i1_lcd_cmd+0)+0+1),f
  9666  09FF  29FC               	goto	u675_27
  9667  0A00  0064               	clrwdt
  9668                           opt asmopt_on
  9669                           
  9670                           	line	75
  9671                           	
  9672  0A01                     i1l8947:	
  9673                           ;lcd.c: 75: RE2=0;
  9674  0A01  1283               	bcf	status, 5	;RP0=0, select bank0
  9675  0A02  1303               	bcf	status, 6	;RP1=0, select bank0
  9676  0A03  1109               	bcf	(74/8),(74)&7
  9677                           	line	77
  9678                           	
  9679  0A04                     i1l4908:	
  9680  0A04  0008               	return
  9681                           	opt stack 0
  9682                           GLOBAL	__end_ofi1_lcd_cmd
  9683  0A05                     	__end_ofi1_lcd_cmd:
  9684 ;; =============== function i1_lcd_cmd ends ============
  9685                           
  9686                           	signat	i1_lcd_cmd,88
  9687                           	global	i1_lcd_write
  9688                           psect	text1500,local,class=CODE,delta=2
  9689                           global __ptext1500
  9690  09A9                     __ptext1500:
  9691                           
  9692 ;; *************** function i1_lcd_write *****************
  9693 ;; Defined at:
  9694 ;;		line 19 in file "lcd.c"
  9695 ;; Parameters:    Size  Location     Type
  9696 ;;  lcd_write       1    wreg     unsigned char 
  9697 ;; Auto vars:     Size  Location     Type
  9698 ;;  lcd_write       1    2[COMMON] unsigned char 
  9699 ;; Return value:  Size  Location     Type
  9700 ;;		None               void
  9701 ;; Registers used:
  9702 ;;		wreg, status,2, status,0
  9703 ;; Tracked objects:
  9704 ;;		On entry : 0/0
  9705 ;;		On exit  : 0/0
  9706 ;;		Unchanged: 0/0
  9707 ;; Data sizes:     COMMON   BANK0   BANK1   BANK3   BANK2
  9708 ;;      Params:         0       0       0       0       0
  9709 ;;      Locals:         1       0       0       0       0
  9710 ;;      Temps:          2       0       0       0       0
  9711 ;;      Totals:         3       0       0       0       0
  9712 ;;Total ram usage:        3 bytes
  9713 ;; Hardware stack levels used:    1
  9714 ;; This function calls:
  9715 ;;		Nothing
  9716 ;; This function is called by:
  9717 ;;		i1_lcd_puts
  9718 ;; This function uses a non-reentrant model
  9719 ;;
  9720                           psect	text1500
  9721                           	file	"lcd.c"
  9722                           	line	19
  9723                           	global	__size_ofi1_lcd_write
  9724  002E                     	__size_ofi1_lcd_write	equ	__end_ofi1_lcd_write-i1_lcd_write
  9725                           	
  9726  09A9                     i1_lcd_write:	
  9727 ;; hardware stack exceeded
  9728                           	opt	stack 0
  9729                           ; Regs used in i1_lcd_write: [wreg+status,2+status,0]
  9730                           ;i1lcd_write@data stored from wreg
  9731                           	line	22
  9732  09A9  00F2               	movwf	(i1lcd_write@data)
  9733                           	
  9734  09AA                     i1l8909:	
  9735                           ;lcd.c: 22: PORTD = ((data >> 4)& 0x0F);
  9736  09AA  0872               	movf	(i1lcd_write@data),w
  9737  09AB  00F0               	movwf	(??i1_lcd_write+0)+0
  9738  09AC  3004               	movlw	04h
  9739  09AD                     u425_25:
  9740  09AD  1003               	clrc
  9741  09AE  0CF0               	rrf	(??i1_lcd_write+0)+0,f
  9742  09AF  3EFF               	addlw	-1
  9743  09B0  1D03               	skipz
  9744  09B1  29AD               	goto	u425_25
  9745  09B2  0870               	movf	0+(??i1_lcd_write+0)+0,w
  9746  09B3  390F               	andlw	0Fh
  9747  09B4  1283               	bcf	status, 5	;RP0=0, select bank0
  9748  09B5  1303               	bcf	status, 6	;RP1=0, select bank0
  9749  09B6  0088               	movwf	(8)	;volatile
  9750                           	line	29
  9751                           	
  9752  09B7                     i1l8911:	
  9753                           ;lcd.c: 29: RE0=1;
  9754  09B7  1409               	bsf	(72/8),(72)&7
  9755                           	line	30
  9756                           	
  9757  09B8                     i1l8913:	
  9758                           ;lcd.c: 30: RE1=0;
  9759  09B8  1089               	bcf	(73/8),(73)&7
  9760                           	line	31
  9761                           	
  9762  09B9                     i1l8915:	
  9763                           ;lcd.c: 31: RE2=1;
  9764  09B9  1509               	bsf	(74/8),(74)&7
  9765                           	line	32
  9766                           	
  9767  09BA                     i1l8917:	
  9768                           ;lcd.c: 32: _delay((unsigned long)((5)*(20000000/4000.0)));
  9769                           	opt asmopt_off
  9770  09BA  3021               movlw	33
  9771  09BB  00F1               movwf	((??i1_lcd_write+0)+0+1),f
  9772  09BC  3076               	movlw	118
  9773  09BD  00F0               movwf	((??i1_lcd_write+0)+0),f
  9774  09BE                     u676_27:
  9775  09BE  0BF0               	decfsz	((??i1_lcd_write+0)+0),f
  9776  09BF  29BE               	goto	u676_27
  9777  09C0  0BF1               	decfsz	((??i1_lcd_write+0)+0+1),f
  9778  09C1  29BE               	goto	u676_27
  9779  09C2  0064               	clrwdt
  9780                           opt asmopt_on
  9781                           
  9782                           	line	33
  9783                           	
  9784  09C3                     i1l8919:	
  9785                           ;lcd.c: 33: RE2=0;
  9786  09C3  1283               	bcf	status, 5	;RP0=0, select bank0
  9787  09C4  1303               	bcf	status, 6	;RP1=0, select bank0
  9788  09C5  1109               	bcf	(74/8),(74)&7
  9789                           	line	36
  9790                           	
  9791  09C6                     i1l8921:	
  9792                           ;lcd.c: 36: PORTD=( data & 0x0F );
  9793  09C6  0872               	movf	(i1lcd_write@data),w
  9794  09C7  390F               	andlw	0Fh
  9795  09C8  0088               	movwf	(8)	;volatile
  9796                           	line	41
  9797                           	
  9798  09C9                     i1l8923:	
  9799                           ;lcd.c: 41: RE2=1;
  9800  09C9  1509               	bsf	(74/8),(74)&7
  9801                           	line	42
  9802                           	
  9803  09CA                     i1l8925:	
  9804                           ;lcd.c: 42: _delay((unsigned long)((5)*(20000000/4000.0)));
  9805                           	opt asmopt_off
  9806  09CA  3021               movlw	33
  9807  09CB  00F1               movwf	((??i1_lcd_write+0)+0+1),f
  9808  09CC  3076               	movlw	118
  9809  09CD  00F0               movwf	((??i1_lcd_write+0)+0),f
  9810  09CE                     u677_27:
  9811  09CE  0BF0               	decfsz	((??i1_lcd_write+0)+0),f
  9812  09CF  29CE               	goto	u677_27
  9813  09D0  0BF1               	decfsz	((??i1_lcd_write+0)+0+1),f
  9814  09D1  29CE               	goto	u677_27
  9815  09D2  0064               	clrwdt
  9816                           opt asmopt_on
  9817                           
  9818                           	line	43
  9819                           	
  9820  09D3                     i1l8927:	
  9821                           ;lcd.c: 43: RE2=0;
  9822  09D3  1283               	bcf	status, 5	;RP0=0, select bank0
  9823  09D4  1303               	bcf	status, 6	;RP1=0, select bank0
  9824  09D5  1109               	bcf	(74/8),(74)&7
  9825                           	line	45
  9826                           	
  9827  09D6                     i1l4905:	
  9828  09D6  0008               	return
  9829                           	opt stack 0
  9830                           GLOBAL	__end_ofi1_lcd_write
  9831  09D7                     	__end_ofi1_lcd_write:
  9832 ;; =============== function i1_lcd_write ends ============
  9833                           
  9834                           	signat	i1_lcd_write,88
  9835                           	global	i1___awmod
  9836                           psect	text1501,local,class=CODE,delta=2
  9837                           global __ptext1501
  9838  0C47                     __ptext1501:
  9839                           
  9840 ;; *************** function i1___awmod *****************
  9841 ;; Defined at:
  9842 ;;		line 5 in file "C:\Program Files (x86)\HI-TECH Software\PICC\9.71a\sources\awmod.c"
  9843 ;; Parameters:    Size  Location     Type
  9844 ;;  __awmod         2    0[COMMON] int 
  9845 ;;  __awmod         2    2[COMMON] int 
  9846 ;; Auto vars:     Size  Location     Type
  9847 ;;  __awmod         1    6[COMMON] unsigned char 
  9848 ;;  __awmod         1    5[COMMON] unsigned char 
  9849 ;; Return value:  Size  Location     Type
  9850 ;;                  2    0[COMMON] int 
  9851 ;; Registers used:
  9852 ;;		wreg, status,2, status,0
  9853 ;; Tracked objects:
  9854 ;;		On entry : 0/0
  9855 ;;		On exit  : 0/0
  9856 ;;		Unchanged: 0/0
  9857 ;; Data sizes:     COMMON   BANK0   BANK1   BANK3   BANK2
  9858 ;;      Params:         4       0       0       0       0
  9859 ;;      Locals:         2       0       0       0       0
  9860 ;;      Temps:          1       0       0       0       0
  9861 ;;      Totals:         7       0       0       0       0
  9862 ;;Total ram usage:        7 bytes
  9863 ;; Hardware stack levels used:    1
  9864 ;; This function calls:
  9865 ;;		Nothing
  9866 ;; This function is called by:
  9867 ;;		i1_lcd_writeThisDigit
  9868 ;; This function uses a non-reentrant model
  9869 ;;
  9870                           psect	text1501
  9871                           	file	"C:\Program Files (x86)\HI-TECH Software\PICC\9.71a\sources\awmod.c"
  9872                           	line	5
  9873                           	global	__size_ofi1___awmod
  9874  0060                     	__size_ofi1___awmod	equ	__end_ofi1___awmod-i1___awmod
  9875                           	
  9876  0C47                     i1___awmod:	
  9877 ;; hardware stack exceeded
  9878                           	opt	stack 0
  9879                           ; Regs used in i1___awmod: [wreg+status,2+status,0]
  9880                           	line	8
  9881                           	
  9882  0C47                     i1l9023:	
  9883  0C47  1003               	clrc
  9884  0C48  3000               	movlw	0
  9885  0C49  1803               	btfsc	status,0
  9886  0C4A  3001               	movlw	1
  9887  0C4B  00F6               	movwf	(i1___awmod@sign)
  9888                           	line	9
  9889                           	
  9890  0C4C                     i1l9025:	
  9891  0C4C  1FF3               	btfss	(i1___awmod@dividend+1),7
  9892  0C4D  2C4F               	goto	u440_21
  9893  0C4E  2C50               	goto	u440_20
  9894  0C4F                     u440_21:
  9895  0C4F  2C58               	goto	i1l6339
  9896  0C50                     u440_20:
  9897                           	line	10
  9898                           	
  9899  0C50                     i1l9027:	
  9900  0C50  09F2               	comf	(i1___awmod@dividend),f
  9901  0C51  09F3               	comf	(i1___awmod@dividend+1),f
  9902  0C52  0AF2               	incf	(i1___awmod@dividend),f
  9903  0C53  1903               	skipnz
  9904  0C54  0AF3               	incf	(i1___awmod@dividend+1),f
  9905                           	line	11
  9906  0C55  01F6               	clrf	(i1___awmod@sign)
  9907  0C56  1403               	bsf	status,0
  9908  0C57  0DF6               	rlf	(i1___awmod@sign),f
  9909                           	line	12
  9910                           	
  9911  0C58                     i1l6339:	
  9912                           	line	13
  9913                           	
  9914  0C58                     i1l9029:	
  9915  0C58  1FF1               	btfss	(i1___awmod@divisor+1),7
  9916  0C59  2C5B               	goto	u441_21
  9917  0C5A  2C5C               	goto	u441_20
  9918  0C5B                     u441_21:
  9919  0C5B  2C61               	goto	i1l6340
  9920  0C5C                     u441_20:
  9921                           	line	14
  9922                           	
  9923  0C5C                     i1l9031:	
  9924  0C5C  09F0               	comf	(i1___awmod@divisor),f
  9925  0C5D  09F1               	comf	(i1___awmod@divisor+1),f
  9926  0C5E  0AF0               	incf	(i1___awmod@divisor),f
  9927  0C5F  1903               	skipnz
  9928  0C60  0AF1               	incf	(i1___awmod@divisor+1),f
  9929                           	
  9930  0C61                     i1l6340:	
  9931                           	line	15
  9932                           	
  9933  0C61                     i1l9033:	
  9934  0C61  0871               	movf	(i1___awmod@divisor+1),w
  9935  0C62  0470               	iorwf	(i1___awmod@divisor),w
  9936  0C63  1903               	skipnz
  9937  0C64  2C66               	goto	u442_21
  9938  0C65  2C67               	goto	u442_20
  9939  0C66                     u442_21:
  9940  0C66  2C97               	goto	i1l6341
  9941  0C67                     u442_20:
  9942                           	line	16
  9943                           	
  9944  0C67                     i1l9035:	
  9945  0C67  01F5               	clrf	(i1___awmod@counter)
  9946  0C68  1403               	bsf	status,0
  9947  0C69  0DF5               	rlf	(i1___awmod@counter),f
  9948                           	line	17
  9949  0C6A  2C76               	goto	i1l6342
  9950                           	
  9951  0C6B                     i1l6343:	
  9952                           	line	18
  9953                           	
  9954  0C6B                     i1l9037:	
  9955  0C6B  3001               	movlw	01h
  9956                           	
  9957  0C6C                     u443_25:
  9958  0C6C  1003               	clrc
  9959  0C6D  0DF0               	rlf	(i1___awmod@divisor),f
  9960  0C6E  0DF1               	rlf	(i1___awmod@divisor+1),f
  9961  0C6F  3EFF               	addlw	-1
  9962  0C70  1D03               	skipz
  9963  0C71  2C6C               	goto	u443_25
  9964                           	line	19
  9965                           	
  9966  0C72                     i1l9039:	
  9967  0C72  3001               	movlw	(01h)
  9968  0C73  00F4               	movwf	(??i1___awmod+0)+0
  9969  0C74  0874               	movf	(??i1___awmod+0)+0,w
  9970  0C75  07F5               	addwf	(i1___awmod@counter),f
  9971                           	line	20
  9972                           	
  9973  0C76                     i1l6342:	
  9974                           	line	17
  9975                           	
  9976  0C76                     i1l9041:	
  9977  0C76  1FF1               	btfss	(i1___awmod@divisor+1),(15)&7
  9978  0C77  2C79               	goto	u444_21
  9979  0C78  2C7A               	goto	u444_20
  9980  0C79                     u444_21:
  9981  0C79  2C6B               	goto	i1l6343
  9982  0C7A                     u444_20:
  9983                           	
  9984  0C7A                     i1l6344:	
  9985                           	line	21
  9986                           	
  9987  0C7A                     i1l6345:	
  9988                           	line	22
  9989                           	
  9990  0C7A                     i1l9043:	
  9991  0C7A  0871               	movf	(i1___awmod@divisor+1),w
  9992  0C7B  0273               	subwf	(i1___awmod@dividend+1),w
  9993  0C7C  1D03               	skipz
  9994  0C7D  2C80               	goto	u445_25
  9995  0C7E  0870               	movf	(i1___awmod@divisor),w
  9996  0C7F  0272               	subwf	(i1___awmod@dividend),w
  9997  0C80                     u445_25:
  9998  0C80  1C03               	skipc
  9999  0C81  2C83               	goto	u445_21
 10000  0C82  2C84               	goto	u445_20
 10001  0C83                     u445_21:
 10002  0C83  2C8A               	goto	i1l6346
 10003  0C84                     u445_20:
 10004                           	line	23
 10005                           	
 10006  0C84                     i1l9045:	
 10007  0C84  0870               	movf	(i1___awmod@divisor),w
 10008  0C85  02F2               	subwf	(i1___awmod@dividend),f
 10009  0C86  0871               	movf	(i1___awmod@divisor+1),w
 10010  0C87  1C03               	skipc
 10011  0C88  03F3               	decf	(i1___awmod@dividend+1),f
 10012  0C89  02F3               	subwf	(i1___awmod@dividend+1),f
 10013                           	
 10014  0C8A                     i1l6346:	
 10015                           	line	24
 10016                           	
 10017  0C8A                     i1l9047:	
 10018  0C8A  3001               	movlw	01h
 10019                           	
 10020  0C8B                     u446_25:
 10021  0C8B  1003               	clrc
 10022  0C8C  0CF1               	rrf	(i1___awmod@divisor+1),f
 10023  0C8D  0CF0               	rrf	(i1___awmod@divisor),f
 10024  0C8E  3EFF               	addlw	-1
 10025  0C8F  1D03               	skipz
 10026  0C90  2C8B               	goto	u446_25
 10027                           	line	25
 10028                           	
 10029  0C91                     i1l9049:	
 10030  0C91  3001               	movlw	low(01h)
 10031  0C92  02F5               	subwf	(i1___awmod@counter),f
 10032  0C93  1D03               	btfss	status,2
 10033  0C94  2C96               	goto	u447_21
 10034  0C95  2C97               	goto	u447_20
 10035  0C96                     u447_21:
 10036  0C96  2C7A               	goto	i1l6345
 10037  0C97                     u447_20:
 10038                           	
 10039  0C97                     i1l6347:	
 10040                           	line	26
 10041                           	
 10042  0C97                     i1l6341:	
 10043                           	line	27
 10044                           	
 10045  0C97                     i1l9051:	
 10046  0C97  0876               	movf	(i1___awmod@sign),w
 10047  0C98  1D03               	skipz
 10048  0C99  2C9B               	goto	u448_20
 10049  0C9A  2CA0               	goto	i1l6348
 10050  0C9B                     u448_20:
 10051                           	line	28
 10052                           	
 10053  0C9B                     i1l9053:	
 10054  0C9B  09F2               	comf	(i1___awmod@dividend),f
 10055  0C9C  09F3               	comf	(i1___awmod@dividend+1),f
 10056  0C9D  0AF2               	incf	(i1___awmod@dividend),f
 10057  0C9E  1903               	skipnz
 10058  0C9F  0AF3               	incf	(i1___awmod@dividend+1),f
 10059                           	
 10060  0CA0                     i1l6348:	
 10061                           	line	29
 10062                           	
 10063  0CA0                     i1l9055:	
 10064  0CA0  0873               	movf	(i1___awmod@dividend+1),w
 10065  0CA1  01F1               	clrf	(?i1___awmod+1)
 10066  0CA2  07F1               	addwf	(?i1___awmod+1)
 10067  0CA3  0872               	movf	(i1___awmod@dividend),w
 10068  0CA4  01F0               	clrf	(?i1___awmod)
 10069  0CA5  07F0               	addwf	(?i1___awmod)
 10070                           
 10071                           	
 10072  0CA6                     i1l9057:	
 10073                           	line	30
 10074                           	
 10075  0CA6                     i1l6349:	
 10076  0CA6  0008               	return
 10077                           	opt stack 0
 10078                           GLOBAL	__end_ofi1___awmod
 10079  0CA7                     	__end_ofi1___awmod:
 10080 ;; =============== function i1___awmod ends ============
 10081                           
 10082                           	signat	i1___awmod,90
 10083                           	global	i1___awdiv
 10084                           psect	text1502,local,class=CODE,delta=2
 10085                           global __ptext1502
 10086  0D70                     __ptext1502:
 10087                           
 10088 ;; *************** function i1___awdiv *****************
 10089 ;; Defined at:
 10090 ;;		line 5 in file "C:\Program Files (x86)\HI-TECH Software\PICC\9.71a\sources\awdiv.c"
 10091 ;; Parameters:    Size  Location     Type
 10092 ;;  __awdiv         2    0[COMMON] int 
 10093 ;;  __awdiv         2    2[COMMON] int 
 10094 ;; Auto vars:     Size  Location     Type
 10095 ;;  __awdiv         2    7[COMMON] int 
 10096 ;;  __awdiv         1    6[COMMON] unsigned char 
 10097 ;;  __awdiv         1    5[COMMON] unsigned char 
 10098 ;; Return value:  Size  Location     Type
 10099 ;;                  2    0[COMMON] int 
 10100 ;; Registers used:
 10101 ;;		wreg, status,2, status,0
 10102 ;; Tracked objects:
 10103 ;;		On entry : 0/0
 10104 ;;		On exit  : 0/0
 10105 ;;		Unchanged: 0/0
 10106 ;; Data sizes:     COMMON   BANK0   BANK1   BANK3   BANK2
 10107 ;;      Params:         4       0       0       0       0
 10108 ;;      Locals:         4       0       0       0       0
 10109 ;;      Temps:          1       0       0       0       0
 10110 ;;      Totals:         9       0       0       0       0
 10111 ;;Total ram usage:        9 bytes
 10112 ;; Hardware stack levels used:    1
 10113 ;; This function calls:
 10114 ;;		Nothing
 10115 ;; This function is called by:
 10116 ;;		i1_lcd_writeThisDigit
 10117 ;; This function uses a non-reentrant model
 10118 ;;
 10119                           psect	text1502
 10120                           	file	"C:\Program Files (x86)\HI-TECH Software\PICC\9.71a\sources\awdiv.c"
 10121                           	line	5
 10122                           	global	__size_ofi1___awdiv
 10123  0070                     	__size_ofi1___awdiv	equ	__end_ofi1___awdiv-i1___awdiv
 10124                           	
 10125  0D70                     i1___awdiv:	
 10126 ;; hardware stack exceeded
 10127                           	opt	stack 0
 10128                           ; Regs used in i1___awdiv: [wreg+status,2+status,0]
 10129                           	line	9
 10130                           	
 10131  0D70                     i1l8985:	
 10132  0D70  1003               	clrc
 10133  0D71  3000               	movlw	0
 10134  0D72  1803               	btfsc	status,0
 10135  0D73  3001               	movlw	1
 10136  0D74  00F6               	movwf	(i1___awdiv@sign)
 10137                           	line	10
 10138                           	
 10139  0D75                     i1l8987:	
 10140  0D75  1FF1               	btfss	(i1___awdiv@divisor+1),7
 10141  0D76  2D78               	goto	u430_21
 10142  0D77  2D79               	goto	u430_20
 10143  0D78                     u430_21:
 10144  0D78  2D81               	goto	i1l6271
 10145  0D79                     u430_20:
 10146                           	line	11
 10147                           	
 10148  0D79                     i1l8989:	
 10149  0D79  09F0               	comf	(i1___awdiv@divisor),f
 10150  0D7A  09F1               	comf	(i1___awdiv@divisor+1),f
 10151  0D7B  0AF0               	incf	(i1___awdiv@divisor),f
 10152  0D7C  1903               	skipnz
 10153  0D7D  0AF1               	incf	(i1___awdiv@divisor+1),f
 10154                           	line	12
 10155  0D7E  01F6               	clrf	(i1___awdiv@sign)
 10156  0D7F  1403               	bsf	status,0
 10157  0D80  0DF6               	rlf	(i1___awdiv@sign),f
 10158                           	line	13
 10159                           	
 10160  0D81                     i1l6271:	
 10161                           	line	14
 10162                           	
 10163  0D81                     i1l8991:	
 10164  0D81  1FF3               	btfss	(i1___awdiv@dividend+1),7
 10165  0D82  2D84               	goto	u431_21
 10166  0D83  2D85               	goto	u431_20
 10167  0D84                     u431_21:
 10168  0D84  2D8E               	goto	i1l6272
 10169  0D85                     u431_20:
 10170                           	line	15
 10171                           	
 10172  0D85                     i1l8993:	
 10173  0D85  09F2               	comf	(i1___awdiv@dividend),f
 10174  0D86  09F3               	comf	(i1___awdiv@dividend+1),f
 10175  0D87  0AF2               	incf	(i1___awdiv@dividend),f
 10176  0D88  1903               	skipnz
 10177  0D89  0AF3               	incf	(i1___awdiv@dividend+1),f
 10178                           	line	16
 10179                           	
 10180  0D8A                     i1l8995:	
 10181  0D8A  3001               	movlw	(01h)
 10182  0D8B  00F4               	movwf	(??i1___awdiv+0)+0
 10183  0D8C  0874               	movf	(??i1___awdiv+0)+0,w
 10184  0D8D  06F6               	xorwf	(i1___awdiv@sign),f
 10185                           	line	17
 10186                           	
 10187  0D8E                     i1l6272:	
 10188                           	line	18
 10189  0D8E  3000               	movlw	low(0)
 10190  0D8F  00F7               	movwf	(i1___awdiv@quotient)
 10191  0D90  3000               	movlw	high(0)
 10192  0D91  00F8               	movwf	((i1___awdiv@quotient))+1
 10193                           	line	19
 10194  0D92  0871               	movf	(i1___awdiv@divisor+1),w
 10195  0D93  0470               	iorwf	(i1___awdiv@divisor),w
 10196  0D94  1903               	skipnz
 10197  0D95  2D97               	goto	u432_21
 10198  0D96  2D98               	goto	u432_20
 10199  0D97                     u432_21:
 10200  0D97  2DD0               	goto	i1l6273
 10201  0D98                     u432_20:
 10202                           	line	20
 10203                           	
 10204  0D98                     i1l8997:	
 10205  0D98  01F5               	clrf	(i1___awdiv@counter)
 10206  0D99  1403               	bsf	status,0
 10207  0D9A  0DF5               	rlf	(i1___awdiv@counter),f
 10208                           	line	21
 10209  0D9B  2DA7               	goto	i1l6274
 10210                           	
 10211  0D9C                     i1l6275:	
 10212                           	line	22
 10213                           	
 10214  0D9C                     i1l8999:	
 10215  0D9C  3001               	movlw	01h
 10216                           	
 10217  0D9D                     u433_25:
 10218  0D9D  1003               	clrc
 10219  0D9E  0DF0               	rlf	(i1___awdiv@divisor),f
 10220  0D9F  0DF1               	rlf	(i1___awdiv@divisor+1),f
 10221  0DA0  3EFF               	addlw	-1
 10222  0DA1  1D03               	skipz
 10223  0DA2  2D9D               	goto	u433_25
 10224                           	line	23
 10225                           	
 10226  0DA3                     i1l9001:	
 10227  0DA3  3001               	movlw	(01h)
 10228  0DA4  00F4               	movwf	(??i1___awdiv+0)+0
 10229  0DA5  0874               	movf	(??i1___awdiv+0)+0,w
 10230  0DA6  07F5               	addwf	(i1___awdiv@counter),f
 10231                           	line	24
 10232                           	
 10233  0DA7                     i1l6274:	
 10234                           	line	21
 10235                           	
 10236  0DA7                     i1l9003:	
 10237  0DA7  1FF1               	btfss	(i1___awdiv@divisor+1),(15)&7
 10238  0DA8  2DAA               	goto	u434_21
 10239  0DA9  2DAB               	goto	u434_20
 10240  0DAA                     u434_21:
 10241  0DAA  2D9C               	goto	i1l6275
 10242  0DAB                     u434_20:
 10243                           	
 10244  0DAB                     i1l6276:	
 10245                           	line	25
 10246                           	
 10247  0DAB                     i1l6277:	
 10248                           	line	26
 10249                           	
 10250  0DAB                     i1l9005:	
 10251  0DAB  3001               	movlw	01h
 10252                           	
 10253  0DAC                     u435_25:
 10254  0DAC  1003               	clrc
 10255  0DAD  0DF7               	rlf	(i1___awdiv@quotient),f
 10256  0DAE  0DF8               	rlf	(i1___awdiv@quotient+1),f
 10257  0DAF  3EFF               	addlw	-1
 10258  0DB0  1D03               	skipz
 10259  0DB1  2DAC               	goto	u435_25
 10260                           	line	27
 10261  0DB2  0871               	movf	(i1___awdiv@divisor+1),w
 10262  0DB3  0273               	subwf	(i1___awdiv@dividend+1),w
 10263  0DB4  1D03               	skipz
 10264  0DB5  2DB8               	goto	u436_25
 10265  0DB6  0870               	movf	(i1___awdiv@divisor),w
 10266  0DB7  0272               	subwf	(i1___awdiv@dividend),w
 10267  0DB8                     u436_25:
 10268  0DB8  1C03               	skipc
 10269  0DB9  2DBB               	goto	u436_21
 10270  0DBA  2DBC               	goto	u436_20
 10271  0DBB                     u436_21:
 10272  0DBB  2DC3               	goto	i1l6278
 10273  0DBC                     u436_20:
 10274                           	line	28
 10275                           	
 10276  0DBC                     i1l9007:	
 10277  0DBC  0870               	movf	(i1___awdiv@divisor),w
 10278  0DBD  02F2               	subwf	(i1___awdiv@dividend),f
 10279  0DBE  0871               	movf	(i1___awdiv@divisor+1),w
 10280  0DBF  1C03               	skipc
 10281  0DC0  03F3               	decf	(i1___awdiv@dividend+1),f
 10282  0DC1  02F3               	subwf	(i1___awdiv@dividend+1),f
 10283                           	line	29
 10284                           	
 10285  0DC2                     i1l9009:	
 10286  0DC2  1477               	bsf	(i1___awdiv@quotient)+(0/8),(0)&7
 10287                           	line	30
 10288                           	
 10289  0DC3                     i1l6278:	
 10290                           	line	31
 10291                           	
 10292  0DC3                     i1l9011:	
 10293  0DC3  3001               	movlw	01h
 10294                           	
 10295  0DC4                     u437_25:
 10296  0DC4  1003               	clrc
 10297  0DC5  0CF1               	rrf	(i1___awdiv@divisor+1),f
 10298  0DC6  0CF0               	rrf	(i1___awdiv@divisor),f
 10299  0DC7  3EFF               	addlw	-1
 10300  0DC8  1D03               	skipz
 10301  0DC9  2DC4               	goto	u437_25
 10302                           	line	32
 10303                           	
 10304  0DCA                     i1l9013:	
 10305  0DCA  3001               	movlw	low(01h)
 10306  0DCB  02F5               	subwf	(i1___awdiv@counter),f
 10307  0DCC  1D03               	btfss	status,2
 10308  0DCD  2DCF               	goto	u438_21
 10309  0DCE  2DD0               	goto	u438_20
 10310  0DCF                     u438_21:
 10311  0DCF  2DAB               	goto	i1l6277
 10312  0DD0                     u438_20:
 10313                           	
 10314  0DD0                     i1l6279:	
 10315                           	line	33
 10316                           	
 10317  0DD0                     i1l6273:	
 10318                           	line	34
 10319                           	
 10320  0DD0                     i1l9015:	
 10321  0DD0  0876               	movf	(i1___awdiv@sign),w
 10322  0DD1  1D03               	skipz
 10323  0DD2  2DD4               	goto	u439_20
 10324  0DD3  2DD9               	goto	i1l6280
 10325  0DD4                     u439_20:
 10326                           	line	35
 10327                           	
 10328  0DD4                     i1l9017:	
 10329  0DD4  09F7               	comf	(i1___awdiv@quotient),f
 10330  0DD5  09F8               	comf	(i1___awdiv@quotient+1),f
 10331  0DD6  0AF7               	incf	(i1___awdiv@quotient),f
 10332  0DD7  1903               	skipnz
 10333  0DD8  0AF8               	incf	(i1___awdiv@quotient+1),f
 10334                           	
 10335  0DD9                     i1l6280:	
 10336                           	line	36
 10337                           	
 10338  0DD9                     i1l9019:	
 10339  0DD9  0878               	movf	(i1___awdiv@quotient+1),w
 10340  0DDA  01F1               	clrf	(?i1___awdiv+1)
 10341  0DDB  07F1               	addwf	(?i1___awdiv+1)
 10342  0DDC  0877               	movf	(i1___awdiv@quotient),w
 10343  0DDD  01F0               	clrf	(?i1___awdiv)
 10344  0DDE  07F0               	addwf	(?i1___awdiv)
 10345                           
 10346                           	
 10347  0DDF                     i1l9021:	
 10348                           	line	37
 10349                           	
 10350  0DDF                     i1l6281:	
 10351  0DDF  0008               	return
 10352                           	opt stack 0
 10353                           GLOBAL	__end_ofi1___awdiv
 10354  0DE0                     	__end_ofi1___awdiv:
 10355 ;; =============== function i1___awdiv ends ============
 10356                           
 10357                           	signat	i1___awdiv,90
 10358                           	global	i1_enableInterrupt_RB0
 10359                           psect	text1503,local,class=CODE,delta=2
 10360                           global __ptext1503
 10361  0809                     __ptext1503:
 10362                           
 10363 ;; *************** function i1_enableInterrupt_RB0 *****************
 10364 ;; Defined at:
 10365 ;;		line 11 in file "PORTB_Config.c"
 10366 ;; Parameters:    Size  Location     Type
 10367 ;;		None
 10368 ;; Auto vars:     Size  Location     Type
 10369 ;;		None
 10370 ;; Return value:  Size  Location     Type
 10371 ;;		None               void
 10372 ;; Registers used:
 10373 ;;		None
 10374 ;; Tracked objects:
 10375 ;;		On entry : 0/0
 10376 ;;		On exit  : 0/0
 10377 ;;		Unchanged: 0/0
 10378 ;; Data sizes:     COMMON   BANK0   BANK1   BANK3   BANK2
 10379 ;;      Params:         0       0       0       0       0
 10380 ;;      Locals:         0       0       0       0       0
 10381 ;;      Temps:          0       0       0       0       0
 10382 ;;      Totals:         0       0       0       0       0
 10383 ;;Total ram usage:        0 bytes
 10384 ;; Hardware stack levels used:    1
 10385 ;; This function calls:
 10386 ;;		Nothing
 10387 ;; This function is called by:
 10388 ;;		_ISR
 10389 ;; This function uses a non-reentrant model
 10390 ;;
 10391                           psect	text1503
 10392                           	file	"PORTB_Config.c"
 10393                           	line	11
 10394                           	global	__size_ofi1_enableInterrupt_RB0
 10395  0005                     	__size_ofi1_enableInterrupt_RB0	equ	__end_ofi1_enableInterrupt_RB0-i1_enableInterrupt_R
                                 B0
 10396                           	
 10397  0809                     i1_enableInterrupt_RB0:	
 10398 ;; hardware stack exceeded
 10399                           	opt	stack 0
 10400                           ; Regs used in i1_enableInterrupt_RB0: []
 10401                           	line	12
 10402                           	
 10403  0809                     i1l8875:	
 10404                           ;PORTB_Config.c: 12: INTEDG = 0;
 10405  0809  1683               	bsf	status, 5	;RP0=1, select bank1
 10406  080A  1303               	bcf	status, 6	;RP1=0, select bank1
 10407  080B  1301               	bcf	(1038/8)^080h,(1038)&7
 10408                           	line	13
 10409                           ;PORTB_Config.c: 13: INTE = 1;
 10410  080C  160B               	bsf	(92/8),(92)&7
 10411                           	line	14
 10412                           	
 10413  080D                     i1l3669:	
 10414  080D  0008               	return
 10415                           	opt stack 0
 10416                           GLOBAL	__end_ofi1_enableInterrupt_RB0
 10417  080E                     	__end_ofi1_enableInterrupt_RB0:
 10418 ;; =============== function i1_enableInterrupt_RB0 ends ============
 10419                           
 10420                           	signat	i1_enableInterrupt_RB0,88
 10421                           	global	_disableInterrupt_RB0
 10422                           psect	text1504,local,class=CODE,delta=2
 10423                           global __ptext1504
 10424  0803                     __ptext1504:
 10425                           
 10426 ;; *************** function _disableInterrupt_RB0 *****************
 10427 ;; Defined at:
 10428 ;;		line 17 in file "PORTB_Config.c"
 10429 ;; Parameters:    Size  Location     Type
 10430 ;;		None
 10431 ;; Auto vars:     Size  Location     Type
 10432 ;;		None
 10433 ;; Return value:  Size  Location     Type
 10434 ;;		None               void
 10435 ;; Registers used:
 10436 ;;		None
 10437 ;; Tracked objects:
 10438 ;;		On entry : 0/0
 10439 ;;		On exit  : 0/0
 10440 ;;		Unchanged: 0/0
 10441 ;; Data sizes:     COMMON   BANK0   BANK1   BANK3   BANK2
 10442 ;;      Params:         0       0       0       0       0
 10443 ;;      Locals:         0       0       0       0       0
 10444 ;;      Temps:          0       0       0       0       0
 10445 ;;      Totals:         0       0       0       0       0
 10446 ;;Total ram usage:        0 bytes
 10447 ;; Hardware stack levels used:    1
 10448 ;; This function calls:
 10449 ;;		Nothing
 10450 ;; This function is called by:
 10451 ;;		_ISR
 10452 ;; This function uses a non-reentrant model
 10453 ;;
 10454                           psect	text1504
 10455                           	file	"PORTB_Config.c"
 10456                           	line	17
 10457                           	global	__size_of_disableInterrupt_RB0
 10458  0002                     	__size_of_disableInterrupt_RB0	equ	__end_of_disableInterrupt_RB0-_disableInterrupt_RB0
 10459                           	
 10460  0803                     _disableInterrupt_RB0:	
 10461 ;; hardware stack exceeded
 10462                           	opt	stack 0
 10463                           ; Regs used in _disableInterrupt_RB0: []
 10464                           	line	18
 10465                           	
 10466  0803                     i1l8769:	
 10467                           ;PORTB_Config.c: 18: INTE = 0;
 10468  0803  120B               	bcf	(92/8),(92)&7
 10469                           	line	19
 10470                           	
 10471  0804                     i1l3672:	
 10472  0804  0008               	return
 10473                           	opt stack 0
 10474                           GLOBAL	__end_of_disableInterrupt_RB0
 10475  0805                     	__end_of_disableInterrupt_RB0:
 10476 ;; =============== function _disableInterrupt_RB0 ends ============
 10477                           
 10478                           	signat	_disableInterrupt_RB0,88
 10479                           psect	text1505,local,class=CODE,delta=2
 10480                           global __ptext1505
 10481  0000                     __ptext1505:
 10482                           	global	btemp
 10483  007E                     	btemp set 07Eh
 10484                           
 10485                           	DABS	1,126,2	;btemp
 10486                           	global	wtemp0
 10487  007E                     	wtemp0 set btemp


HI-TECH Software PICC Macro Assembler V9.71a build 6446 
Symbol Table                                                                                   Sun Apr 02 15:55:37 2017

                         lcd_cmd@cmnd 0031                                     pc 0002  
                                  _RD 0C60                                    _WR 0C61  
                        ___awdiv@sign 0035                                    fsr 0004  
             ?_GlobalInterrupt_ENABLE 0070                 ??_enableInterrupt_RB0 002F  
         lcd_writeThisStringAt@column 0034                                   _GIE 005F  
                                 _RB0 0030                                   _RB1 0031  
                                 _RB2 0032                                   _RB3 0033  
                                 _RB4 0034                                   _RB5 0035  
                                 _RE0 0048                                   _RB6 0036  
                                 _RE1 0049                                   _RB7 0037  
                                 _RE2 004A                     _DownButtonHandler 0F5E  
                                 _PS0 0408                                   _PS1 0409  
                                 _PS2 040A                                   _ISR 0330  
                                 _PSA 040B                                   fsr0 0004  
                                 indf 0000                          ___awmod@sign 0035  
                     ??_isItFirstTime 002F                    ?_DownButtonHandler 0070  
                          i1_lcd_puts 090A        __size_of_SettingModeOperations 002F  
       __end_of_SettingModeOperations 0ABF                 ?_default_bootSequence 0070  
                                ?_ISR 0070                                  l3100 02F5  
                                l3101 02F6                                  l3102 02F6  
                                l3030 0BA4                                  l3103 02FC  
                                l3031 0BA4                                  l1168 0806  
                                l3104 0312                                  l3040 0909  
                                l2400 097E                                  l1177 0808  
                                l3105 0323                                  l3106 0323  
                                l3050 0141                                  l3034 08AD  
                                l2410 0ABE                                  l3107 032F  
                                l3051 014D                                  l3043 032F  
                                l2403 0AAE                                  l3027 0B7E  
                                l3060 0188                                  l3052 014E  
                                l3044 0113                                  l2420 0A8F  
                                l2404 0A94                                  l3028 0B9E  
                                l3037 0854                                  l3061 018E  
                                l3053 014E                                  l3045 0114  
                                l2413 0A7F                                  l2405 0ABE  
                                l3029 0BA3                                  l3070 01EF  
                                l3062 01A4                                  l3054 0154  
                                l3046 0114                                  l2414 0A65  
                                l2406 0A9A                                  l3071 01EF  
                                l3063 01B5                                  l3055 016A  
                                l3047 011A                                  l2415 0A8F  
                                l2407 0AA0                                  l3080 0236  
                                l3072 01FB                                  l3064 01B5  
                                l3056 017B                                  l3048 0130  
                                l2416 0A6B                                  l2408 0AA6  
                                l3081 0236                                  l3073 01FC  
                                l3065 01C1                                  l3057 017B  
                                l3049 0141                                  l2417 0A71  
                                l2409 0AAC                                  l3090 028C  
                                l3082 023C                                  l3074 01FC  
                                l3066 01C2                                  l3058 0187  
                                l2418 0A77                                  l3091 029D  
                                l3083 0252                                  l3075 0202  
                                l3067 01C2                                  l3059 0188  
                                l2419 0A7D                                  l3092 029D  
                                l3084 0263                                  l3076 0218  
                                l3068 01C8                                  l4300 0743  
                                l2380 064E                                  l3093 02A9  
                                l3085 0263                                  l3077 0229  
                                l3069 01DE                                  l4301 0742  
                                l2381 0676                                  l3094 02AA  
                                l3086 026F                                  l3078 0229  
                                l4302 07AD                                  l4310 0F70  
                                l2390 06EF                                  l2382 0676  
                                l3095 02AA                                  l3087 0270  
                                l3079 0235                                  l4303 075B  
                                l4311 0F6F                                  l2391 06E1  
                                l2383 069E                                  l3096 02B0  
                                l3088 0270                                  l4304 075A  
                                l4320 0FB6                                  l4312 0FF9  
                                l2392 06EF                                  l2384 069E  
                                l3097 02C6                                  l3089 0276  
                                l4305 07AD                                  l4321 0FF9  
                                l4313 0F87                                  l2393 06EF  
                                l2385 06C6                                  l2377 06C6  
                                l3098 02D7                                  l4330 04E7  
                                l4306 07AD                                  l4322 0FF9  
                                l4314 0F86                                  l2394 06FB  
                                l2386 06C6                                  l2378 062B  
                                l3099 02D7                                  l4331 04C9  
                                l4307 07B3                                  l4323 0FFF  
                                l4315 0FF9                                  l2379 064E  
                                l4332 04E7                                  l4316 0F9F  
                                l2388 06CF                                  l4333 04E7  
                                l4317 0F9E                                  l2397 096E  
                                l2389 06CF        __size_ofi1_enableInterrupt_RB0 0005  
                                l4334 051D                                  l4326 0492  
                                l4270 07F6                                  l4318 0FF9  
                                l2398 097E                                  l4335 052C  
                                l4327 0474                                  l4271 07ED  
                                l4319 0FB7                                  l2399 097E  
                                l4328 0492                                  l4272 07DE  
                                l4280 0BC5                                  l4329 0492  
                                l4273 07EC                                  l4281 0BB7  
                                l4274 07EC                                  l4266 07CD  
                                l4290 0BE7                                  l4282 0BC4  
                                l4275 07F6                                  l4267 07C1  
                                l4291 0BED                                  l4283 0BC4  
                                l4276 07F6                                  l4268 07CC  
                                l4284 0BE7                                  l4277 07FC  
                                l4269 07CC                                  l4285 0BE1  
                                l4294 0714                                  l4286 0BD6  
                                l4295 0713                                  l4287 0BE0  
                                l4296 07AD                                  l4288 0BE0  
                                l4297 072B                                  l4289 0BE7  
                                l3666 0818                                  l5530 0D6F  
                                l4298 072A                                  l4299 07AD  
                                l6340 0CC3                                  l4900 0B4F  
                                l5524 0C46                                  l3669 0812  
                                l6341 0CF9                                  l4901 0B64  
                                l5533 0B2C                                  l6342 0CD8  
                                l4902 0B64                                  l6271 0DF3  
                                l6343 0CCD                                  l4911 0947  
                                l5527 0AF5                                  l6280 0E4B  
                                l6272 0E00                                  l6344 0CDC  
                                l4912 092F                                  l4920 08E9  
                                l6281 0E51                                  l6273 0E42  
                                l6345 0CDC                                  l4905 0A60  
                                l4913 0955                                  l6274 0E19  
                                l6346 0CEC                                  l4914 0955  
                                l6275 0E0E                                  l6347 0CF9  
                                l6339 0CBA                                  l4923 0826  
                                l6276 0E1D                                  l6348 0D02  
                                l4908 0A32                                  l6277 0E1D  
                                l6349 0D08                                  l9101 0173  
                                l4917 08DA                                  l6278 0E35  
                                l4918 08E9                                  l6279 0E42  
                                l9111 0194                                  l9103 0174  
                                l4919 08E9                                  l9201 0284  
                                l9121 01AC                                  l9113 019C  
                                l9105 017A                                  l4929 0893  
                                l4937 0F5D                                  l9211 0295  
                                l9203 0287                                  l9131 01C8  
                                l9123 01AD                                  l9115 019F  
                                l9107 017B                                  l9221 02B6  
                                l9213 0296                                  l9205 028B  
                                l9141 01E2                                  l9133 01CE  
                                l9125 01AE                                  l9117 01A3  
                                l9109 018E                                  l9061 0103  
                                _ADGO 00FA                                  l9231 02CE  
                                l9223 02BE                                  l9215 029C  
                                l9207 0290                                  l9151 01EF  
                                l9143 01E6                                  l9135 01D6  
                                l9127 01B4                                  l9119 01A8  
                                l9071 012B                                  l9063 010B  
                                l9241 02FC                                  l9233 02CF  
                                l9225 02C1                                  l9217 029D  
                                l9209 0294                                  l9161 0217  
                                l9153 0202                                  l9145 01E7  
                                l9137 01D9                                  l9129 01B5  
                                l9081 013A                                  l9073 012F  
                                l9065 011A                                  l9251 0316  
                                l9243 0302                                  l9235 02D0  
                                l9227 02C5                                  l9219 02B0  
                                l9171 0228                                  l9163 021C  
                                l9155 0208                                  l9147 01E8  
                                l9139 01DD                                  l9091 0162  
                                l9083 0140                                  l9075 0134  
                                l9067 0120                                  l9059 00FF  
                                l9261 0323                                  l9253 031A  
                                l9245 030A                                  l9237 02D6  
                                l9229 02CA                                  l9181 024D  
                                l9173 0229                                  l9165 0220  
                                l9157 0210                                  l9149 01EE  
                                l9093 0165                                  l9085 0141  
                                l9077 0138                                  l9069 0128  
                                l9255 031B                                  l9247 030D  
                                l9239 02D7                                  l9191 025C  
                                l9183 0251                                  l9175 023C  
                                l9167 0221                                  l9159 0213  
                                l9095 0169                                  l9087 0154  
                                l9079 0139                                  l9257 031C  
                                l9249 0311                                  l9193 0262  
                                l9185 0256                                  l9177 0242  
                                l9169 0222                                  l9097 016E  
                                l9089 015A                                  l9259 0322  
                                l9195 0263                                  l9187 025A  
                                l9179 024A                                  l9099 0172  
                                _ADON 00F8                                  l9197 0276  
                                l9189 025B                                  l9199 027C  
                                l9801 0CE6                                  l8691 0805  
                                l9811 0D02                                  l9803 0CEC  
                                l8693 0807                                  l8781 0849  
                                l9741 0DE0                                  l9813 0D08  
                                l9805 0CF3                                  l9821 0A15  
                                l9901 0EDB                                  l8775 080E  
                                l8783 084C                                  l8791 0817  
                                l9751 0DFC                                  l9743 0DE7  
                                l9807 0CF9                                  l9831 0A26  
                                l9823 0A16                                  l9815 0A08  
                                l9911 0F3D                                  l9903 0EE3  
                                l8785 084D                                  l8777 0844  
                                l9761 0E1D                                  l9753 0E0A  
                                l9745 0DEB                                  l9809 0CFD  
                                l9833 0A2F                                  l9825 0A1F  
                                l9817 0A13                                  l9841 0A43  
                                l9913 0F54                                  l9905 0EFA  
                                l9921 0C0E                                  l8787 0851  
                                l8779 0848                                  l9771 0E42  
                                l9763 0E2E                                  l9755 0E0E  
                                l9747 0DF3                                  l9827 0A22  
                                l9819 0A14                                  l9851 0A54  
                                l9843 0A44                                  l9835 0A36  
                                l9907 0F10                                  l9931 0C22  
                                l9923 0C11                                  l9915 0BEE  
                                l8789 0813                                  l9773 0E46  
                                l9765 0E34                                  l9757 0E15  
                                l9749 0DF7                                  l9781 0CAE  
                                l9829 0A25                                  l9853 0A5D  
                                l9845 0A4D                                  l9837 0A41  
                                l9861 0B48                                  l9909 0F27  
                                l9941 0C41                                  l9933 0C2E  
                                l9925 0C12                                  l9917 0BFF  
                                l9775 0E4B                                  l9767 0E35  
                                l9759 0E19                                  l9791 0CC9  
                                l9783 0CB2                                  l9847 0A50  
                                l9839 0A42                                  l9855 0820  
                                l9863 0B4E                                  l9871 092E  
                                l9935 0C31                                  l9927 0C1E  
                                l9919 0C02                                  l9951 0AED  
                                l9943 0ABF                                  STR_1 00B2  
                                STR_2 0095                                  l9777 0E51  
                                l9769 0E3C                                  l9793 0CCD  
                                l9785 0CBA                                  l9849 0A53  
                                l9865 0B4F                                  l9857 0B2D  
                                l9873 092F                                  l9881 08D2  
                                l9937 0C32                                  l9929 0C21  
                                l9953 0AF0                                  l9945 0AD0  
                                l9961 0B18                                  STR_3 00E7  
                                STR_4 00E7                                  l9795 0CD4  
                                l9787 0CBE                                  l9779 0CA7  
                                l9867 0B58                                  l9859 0B43  
                                l9875 093F                                  l9883 08DA  
                                l9891 0894                                  l9939 0C3E  
                                l9947 0ADE                                  l9963 0B24  
                                l9955 0AF6                                  l9971 0D28  
                                STR_5 00DA                                  STR_6 0057  
                                l9797 0CD8                                  l9789 0CC3  
                                l9869 0B5E                                  l9877 0947  
                                l9885 08E2                                  l9893 0899  
                                l9949 0AE1                                  l9965 0B27  
                                l9957 0B07                                  l9981 0D47  
                                l9973 0D2B                                  STR_7 0086  
                                STR_8 0036                                  l9799 0CDC  
                                l9879 08CD                                  l9887 087E  
                                l9895 089E                                  l9959 0B15  
                                l9991 0D5B                                  l9983 0D4A  
                                l9975 0D37                                  l9967 0D09  
                                STR_9 0086                                  l9889 0888  
                                l9897 08A3                                  l9993 0D67  
                                l9985 0D4B                                  l9977 0D3A  
                                l9969 0D1A                                  l9899 08A8  
                                l9995 0D6A                                  l9987 0D57  
                                l9979 0D3B                                  l9989 0D5A  
                                l9997 08EA                                  l9999 08FB  
       __end_ofi1_enableInterrupt_RB0 080E                                  _T0CS 040D  
                        lcd_init@F632 0046                                  _T0SE 040C  
                                u6000 0F6A                                  u6001 0F69  
                                u6010 0F76                                  u6011 0F75  
                                u4500 011A                                  u6100 0FBD  
                                u6020 0F7B                                  u4501 0119  
                                u6101 0FBC                                  u6021 0F7A  
                                u4510 012F                                  u6030 0F81  
                                u6110 0BAE                                  u4511 012E  
                                u6031 0F80                                  u6111 0BAD  
                                u4600 01DD                                  u4520 0140  
                                u6040 0F8D                                  u6120 0BB3  
                                u6200 0631                                  u4601 01DC  
                                u4521 013F                                  u6041 0F8C  
                                u6121 0BB2                                  u6201 0630  
                                u4610 01EE                                  u4530 0154  
                                u6050 0F93                                  u6130 0BBD  
                                u6210 0648                                  u4611 01ED  
                                u4531 0153                                  u6051 0F92  
                                u6131 0BBC                                  u6211 0647  
                                _PEIE 005E                                  u5500 0E1D  
                                u4700 029C                                  u4620 0202  
                                u4540 0169                                  u6060 0F99  
                                u6140 0BCB                                  u6300 06D5  
                                u6220 0654                                  u5501 0E1C  
                                u4701 029B                                  u4621 0201  
                                u4541 0168                                  u6061 0F98  
                                u6141 0BCA                                  u6301 06D4  
                                u6221 0653                                  _INTE 005C  
                                u4710 02B0                                  u4630 0217  
                                u4550 017A                                  u6070 0FA5  
                                u6150 0BD1                                  u6310 06DA  
                                u6230 066B                                  _INTF 0059  
                                u4711 02AF                                  u4631 0216  
                                u4551 0179                                  u6071 0FA4  
                                u6151 0BD0                                  u6311 06D9  
                                u6231 066A                                  u5520 0E2E  
                                u5600 0CDC                                  u4720 02C5  
                                u4640 0228                                  u4560 018E  
                                u6080 0FAB                                  u6160 0BDC  
                                u6320 06E9                                  u6240 067C  
                                u5521 0E2D                                  u5601 0CDB  
                                u4721 02C4                                  u4641 0227  
                                u4561 018D                                  u6081 0FAA  
                                u6161 0BDB                                  u6321 06E8  
                                u6241 067B                                  u5610 0CE6  
                                u4730 02D6                                  u4650 023C  
                                u4570 01A3                                  u4490 0113  
                                u6090 0FB1                                  u6170 0BE7  
                                u6250 0693                                  u6330 0B88  
                                u5515 0E1E                                  u5611 0CE5  
                                u4731 02D5                                  u4651 023B  
                                u4571 01A2                                  u4491 0112  
                                u6091 0FB0                                  u6171 0BE6  
                                u6251 0692                                  u6331 0B87  
                                u5540 0E42                                  u5460 0DEB  
                                u4740 02FC                                  u4660 0251  
                                u4580 01B4                                  u5700 08D2  
                                u6180 0965                                  u6260 06A4  
                                u5541 0E41                                  u5525 0E2A  
                                u5461 0DEA                                  u4741 02FB  
                                u4661 0250                                  u4581 01B3  
                                u5701 08D1                                  u6181 0964  
                                u6261 06A3                                  u5550 0E46  
                                u5470 0DF7                                  u5630 0CF9  
                                u4750 0311                                  u4670 0262  
                                u4590 01C8                                  u5710 08E2  
                                u6190 0976                                  u6270 06BB  
                                u5535 0E36                                  u5471 0DF6  
                                u5631 0CF8                                  u5615 0CE2  
                                u4751 0310                                  u4671 0261  
                                u4591 01C7                                  u5711 08E1  
                                u6407 0788                                  u6191 0975  
                                u6271 06BA                                  u5480 0E0A  
                                u5640 0CFD                                  u5560 0CB2  
                                u4760 0322                                  u4680 0276  
                                u5720 0449                                  u5800 07C0  
                                u6280 06CB                                  u5481 0E09  
                                u5625 0CED                                  u5561 0CB1  
                                u4761 0321                                  u4681 0275  
                                u5721 0448                                  u5801 07BF  
                                u6417 07A7                                  u6281 06CA  
                                u5570 0CBE                                  u4690 028B  
                                u5730 045E                                  u5810 07C7  
                                u6290 06CF                                  u5571 0CBD  
                                u4691 028A                                  u6507 0B1E  
                                u6427 0525                                  u5731 045D  
                                u5811 07C6                                  u6347 0639  
                                u5580 0CC9                                  u5740 047C  
                                u5820 07D3                                  u5900 071F  
                                u5581 0CC8                                  u6517 0AD8  
                                u6437 0903                                  u5741 047B  
                                u5821 07D2                                  u5901 071E  
                                u6357 065C                                  u5670 0B4E  
                                u5750 049A                                  u5830 07D9  
                                u5910 0725                                  u5495 0E0F  
                                u6607 0A2A                                  u5655 0A0B  
                                u5671 0B4D                                  u6527 0AE7  
                                u6447 0D22                                  u5751 0499  
                                u5831 07D8                                  u5911 0724  
                                u6367 0684                                  u5680 0B64  
                                u5760 04B1                                  u5840 07E4  
                                u5920 0731                                  u6617 0147  
                                u5665 0A39                                  u5681 0B63  
                                u6537 0C08                                  u6457 0D31  
                                u5761 04B0                                  u5841 07E3  
                                u5921 0730                                  u6377 06AC  
                                u5690 0955                                  u5770 04D1  
                                u5850 07F3                                  u5930 0737  
                                u5595 0CCE                                  u6627 0181  
                                u5691 0954                                  u6547 0C18  
                                u6467 0D41                                  u5771 04D0  
                                u5851 07F2                                  u5931 0736  
                                u6387 0FD4                                  u5780 04EF  
                                u5940 073D                                  u5860 0703  
                                u6637 01BB                                  u6557 0C28  
                                u6477 0D51                                  u5781 04EE  
                                u5941 073C                                  u5861 0702  
                                u6397 0FF3                                  u5790 07BB  
                                u5950 0749                                  u5870 0708  
                                u6647 01F5                                  u6567 0C38  
                                u6487 0D61                                  u5791 07BA  
                                u5951 0748                                  u5871 0707  
                                u5960 074F                                  u5880 070E  
                                u6657 022F                                  u6577 0A48  
                                u6497 0B0F                                  u5961 074E  
                                u5881 070D                                  u5970 0755  
                                u5890 071A                                  u6667 0269  
                                u6587 0A58                                  u5971 0754  
                                u5891 0719                                  u5980 0761  
                                u6677 02A3                                  u6597 0A1A  
                                u5981 0760                                  _RBPU 040F  
                                u5990 0F65                                  u6687 02DD  
                                u5991 0F64                                  u6697 0329  
              __end_ofi1_UpdateScreen 061D                                  _TMR0 0001  
                 ??_DownButtonHandler 0043                                  _WREN 0C62  
         _CurrentWaterQuantity_forTea 0053                ?_PreviousButtonHandler 0070  
                                _main 0B65                                  btemp 007E  
              lcd_writeThisDigit@F653 004C                           lcd_puts@ptr 0032  
   __size_of_peripheral_initialsation 001A                                  start 0012  
           ?_peripheral_initialsation 0070              lcd_writeThisStringAt@ptr 0035  
            lcd_writeThisStringAt@row 0037                           i1_lcd_clear 0819  
              lcd_writeThisDigit@data 003F                           i1_lcd_write 09A9  
                               ??_ISR 0028        __end_of_GlobalInterrupt_ENABLE 0807  
                     _UpbuttonHandler 06FC             __end_of_DownButtonHandler 1000  
                               l10001 043D                                 l10011 0474  
                               l10003 0442                                 l10021 04B1  
                               l10013 047C                                 l10005 0449  
                               l10101 0749                                 l10031 051D  
                               l10023 04C9                                 l10015 0492  
                               l10007 0457                                 l10111 0771  
                               l10103 074F                                 l10025 04D1  
                               l10017 049A                                 l10009 045E  
                               l10041 0A77                                 l10033 0A64  
                               l10113 0780                                 l10105 0755  
                               l10121 0F65                                 l10201 095E  
                               l10027 04E7                                 l10019 04A9  
                               l10043 0A7E                                 l10035 0A65  
                               l10051 07C0                                 l10115 079F  
                               l10107 075B                                 l10131 0F81  
                               l10123 0F6A                                 l10203 0965  
                               l10211 0624                                 l10029 04EF  
                               l10045 0A7F                                 l10037 0A6B  
                               l10061 07D9                                 l10053 07C1  
                               l10117 07AD                                 l10109 0761  
                               l10141 0F9F                                 l10133 0F87  
                               l10125 0F70                                 l10205 096E  
                               l10221 064E                                 l10213 0625  
                               l10039 0A71                                 l10071 07F3  
                               l10063 07DE                                 l10055 07C7  
                               l10047 07B4                                 l10151 0FBD  
                               l10143 0FA5                                 l10135 0F8D  
                               l10127 0F76                                 l10119 0F5E  
                               l10207 0976                                 l10231 067C  
                               l10223 0654                                 l10215 062B  
                               l10073 07F6                                 l10065 07E4  
                               l10057 07CD                                 l10049 07BB  
                               l10081 070E                                 l10153 0FCC  
                               l10145 0FAB                                 l10137 0F93  
                               l10129 0F7B                                 l10161 0BAE  
                               l10241 06BB                                 l10233 0693  
                               l10225 066B                                 l10217 0631  
                               l10209 061D                                 l10067 07E9  
                               l10059 07D3                                 l10091 072B  
                               l10083 0714                                 l10075 06FC  
                               l10155 0FDA                                 l10147 0FB1  
                               l10139 0F99                                 l10171 0BC5  
                               l10163 0BB3                                 l10251 06D5  
                               l10243 06BE                                 l10235 0696  
                               l10227 066E                                 l10219 0648  
                               l10069 07ED                                 l10093 0731  
                               l10085 071A                                 l10077 0703  
                               l10157 0FF9                                 l10149 0FB7  
                               l10181 0BE1                                 l10173 0BCB  
                               l10165 0BB7                                 l10261 06F6  
                               l10253 06DA                                 l10245 06C6  
                               l10237 069E                                 l10229 0676  
                               l10095 0737                                 l10087 071F  
                               l10079 0708                                 l10183 0BE7  
                               l10175 0BD1                                 l10167 0BBD  
                               l10159 0BA7                                 l10191 0AA0  
                               l10255 06E1                                 l10247 06CB  
                               l10239 06A4                                 l10271 0B79  
                               l10263 0B65                                 l10097 073D  
                               l10089 0725                                 l10177 0BD6  
                               l10169 0BC1                                 l10193 0AA6  
                               l10185 0A93                                 l10257 06E9  
                               l10249 06CF                                 l10273 0B7E  
                               l10265 0B6A                                 l10099 0743  
                               l10179 0BDC                                 l10195 0AAD  
                               l10187 0A94                                 l10259 06EF  
                               l10275 0B82                                 l10267 0B6F  
                               l10197 0AAE                                 l10189 0A9A  
                               l10277 0B88                                 l10269 0B74  
                               l10199 0959                                 ?_main 0070  
                      i1___awdiv@sign 0076                       __end_of___awdiv 0E52  
                               _EEADR 010D                                 STR_10 00C0  
                               STR_11 00F6                                 STR_12 00F9  
                               STR_20 0077                                 STR_21 00A4  
                               STR_13 0067                                 STR_14 00F3  
                               STR_22 0047                                 STR_15 00F9  
                               STR_16 00CD                                 STR_17 00EF  
                               STR_18 00FC                                 STR_19 0025  
                     __end_of___awmod 0D09                                 _CARRY 0018  
             ??_InitialiseSettingMode 007C                                 _EEPGD 0C67  
                     ___awdiv@divisor 002F                     ??_initialisePortB 002F  
                     ___awdiv@counter 0034          __end_of_NormalModeOperations 0A90  
                               _PORTA 0005                                 _PORTB 0006  
                               _PORTD 0008                                 _TRISA 0085  
                               _TRISB 0086                                 _TRISD 0088  
                               _TRISE 0089                       __end_of_lcd_cmd 0A33  
                      i1___awmod@sign 0076         __size_ofi1_lcd_writeThisDigit 0086  
                     __end_of_goto_XY 08EA            i1lcd_writeThisStringAt@ptr 0076  
          i1lcd_writeThisStringAt@row 0078                         lcd_init@index 0039  
                               pclath 000A                       ?i1_UpdateScreen 0070  
            ?i1_lcd_writeThisStringAt 0075                                 status 0003  
                               wtemp0 007E                    __size_ofi1___awdiv 0070  
                  __size_ofi1___awmod 0060               ??_lcd_writeThisStringAt 0036  
                __end_of_IsKeyPressed 06FC                    __size_ofi1_lcd_cmd 002E  
                        __end_of_main 0BA7                  _disableInterrupt_RB0 0803  
                  __size_ofi1_goto_XY 001C                                ??_main 00A5  
                __size_of_handleEvent 0029                ??_default_bootSequence 0038  
                         ?i1_lcd_puts 0073                                _ADCON0 001F  
                              _ADCON1 009F                                _ADRESH 001E  
                              _ADRESL 009E                                _EEDATA 010C  
                              _EECON1 018C                                _EECON2 018D  
                    ___awdiv@dividend 0031                                i1l1180 0369  
                              i1l1181 034F                                i1l1190 03A3  
                              i1l1182 0354                                i1l1191 042B  
                              i1l1183 0363                                i1l1192 03E9  
                              i1l1184 0368                                i1l1193 042B  
                              i1l1185 0430                                i1l1194 042B  
                              i1l1186 0390                                i1l1195 0430  
                              i1l1187 037E                                i1l1189 03A3  
                              i1l4330 05D7                                i1l4331 05B9  
                              i1l4332 05D7                                i1l4333 05D7  
                              i1l4334 060D                                i1l4326 0582  
                              i1l4335 061C                                i1l4327 0564  
                              i1l4263 0834                                i1l4328 0582  
                              i1l4329 0582                                i1l3672 0804  
                              i1l6340 0C61                                i1l3669 080D  
                              i1l6341 0C97                                i1l6342 0C76  
                              i1l6271 0D81                                i1l6343 0C6B  
                              i1l4911 091F                                i1l6280 0DD9  
                              i1l6272 0D8E                                i1l6344 0C7A  
                              i1l4912 090B                                i1l4920 08C9  
                              i1l6281 0DDF                                i1l9001 0DA3  
                              i1l6273 0DD0                                i1l6345 0C7A  
                              i1l4905 09D6                                i1l4913 092D  
                              i1l6274 0DA7                                i1l6346 0C8A  
                              i1l4914 092D                                i1l9011 0DC3  
                              i1l9003 0DA7                                i1l6275 0D9C  
                              i1l6347 0C97                                i1l6339 0C58  
                              i1l4923 081F                                i1l6276 0DAB  
                              i1l6348 0CA0                                i1l4908 0A04  
                              i1l9021 0DDF                                i1l9013 0DCA  
                              i1l9005 0DAB                                i1l6277 0DAB  
                              i1l6349 0CA6                                i1l4917 08BC  
                              i1l6278 0DC3                                i1l4918 08C9  
                              i1l9015 0DD0                                i1l6279 0DD0  
                              i1l9007 0DBC                                i1l9031 0C5C  
                              i1l9023 0C47                                i1l4919 08C9  
                              i1l9017 0DD4                                i1l9009 0DC2  
                              i1l9041 0C76                                i1l9033 0C61  
                              i1l9025 0C4C                                i1l4929 087A  
                              i1l4937 0ED7                                i1l9019 0DD9  
                              i1l9051 0C97                                i1l9043 0C7A  
                              i1l9035 0C67                                i1l9027 0C50  
                              _INTEDG 040E                                i1l9053 0C9B  
                              i1l9045 0C84                                i1l9037 0C6B  
                              i1l9029 0C58                                i1l9055 0CA0  
                              i1l9047 0C8A                                i1l9039 0C72  
                              i1l9057 0CA6                                i1l9049 0C91  
                              i1l8701 033C                                i1l8711 0354  
                              i1l8703 0342                                i1l8721 0369  
                              i1l8713 035A                                i1l8705 0345  
                              i1l8731 037E                                i1l8723 036D  
                              i1l8715 035D                                i1l8707 034A  
                              i1l8901 05C1                                i1l8741 03B7  
                              i1l8733 0390                                i1l8725 0371  
                              i1l8717 0363                                i1l8709 034F  
                              i1l8911 09B7                                i1l8903 05D7  
                              i1l8751 03E3                                i1l8743 03BE  
                              i1l8735 0396                                i1l8727 0376  
                              i1l8719 0368                                i1l8921 09C6  
                              i1l8913 09B8                                i1l8905 05DF  
                              i1l8761 0408                                i1l8753 03E9  
                              i1l8745 03C1                                i1l8737 03A3  
                              i1l8729 0377                                i1l8923 09C9  
                              i1l8915 09B9                                i1l8931 09E5  
                              i1l8907 060D                                i1l8771 0827  
                              i1l8763 0416                                i1l8755 03F1  
                              i1l8747 03C6                                i1l8739 03B2  
                              i1l8925 09CA                                i1l8917 09BA  
                              i1l8909 09AA                                i1l8941 09F4  
                              i1l8933 09E6                                i1l8773 082E  
                              i1l8765 041B                                i1l8757 03F6  
                              i1l8749 03D5                                i1l8927 09D3  
                              i1l8919 09C3                                i1l8943 09F7  
                              i1l8935 09E7                                i1l8951 090B  
                              i1l8767 042B                                i1l8759 03F9  
                              i1l8695 0330                                i1l8769 0803  
                              i1l8945 09F8                                i1l8937 09E8  
                              i1l8929 09D8                                i1l8953 0919  
                              i1l8961 08BC                                i1l8881 0539  
                              i1l8697 0334                                i1l8875 0809  
                              i1l8947 0A01                                i1l8939 09F1  
                              i1l8955 091F                                i1l8963 08C2  
                              i1l8971 0E55                                i1l8891 0582  
                              i1l8883 0547                                i1l8699 0338  
                              i1l8949 090A                                i1l8957 08AF  
                              i1l8965 0819                                i1l8981 0EB7  
                              i1l8973 0E5D                                i1l8893 058A  
                              i1l8885 054E                                i1l8877 052D  
                              i1l8991 0D81                                i1l8959 08B4  
                              i1l8967 0867                                i1l8983 0ECE  
                              i1l8975 0E74                                i1l8895 0599  
                              i1l8887 0564                                i1l8879 0532  
                              i1l8993 0D85                                i1l8985 0D70  
                              i1l8969 0871                                i1l8977 0E8A  
                              i1l8897 05A1                                i1l8889 056C  
                              i1l8995 0D8A                                i1l8987 0D75  
                              i1l8979 0EA1                                i1l8899 05B9  
                              i1l8997 0D98                                i1l8989 0D79  
                              i1l8999 0D9C                                u420_20 056C  
                              u420_21 056B                                u421_20 058A  
                              u421_21 0589                                u430_20 0D79  
                              u422_20 05A1                                u430_21 0D78  
                              u422_21 05A0                                u431_20 0D85  
                              u423_20 05C1                                u431_21 0D84  
                              u423_21 05C0                                u432_20 0D98  
                              u440_20 0C50                                u424_20 05DF  
                              u432_21 0D97                                u440_21 0C4F  
                              u424_21 05DE                                u441_20 0C5C  
                              u441_21 0C5B                                u433_25 0D9D  
                              u425_25 09AD                                u434_20 0DAB  
                              u442_20 0C67                                u418_20 0539  
                              u434_21 0DAA                                u442_21 0C66  
                              u418_21 0538                                u426_25 09DB  
                              u427_20 092D                                u419_20 054E  
                              u427_21 092C                                u419_21 054D  
                              u435_25 0DAC                                u443_25 0C6C  
                              u436_20 0DBC                                u444_20 0C7A  
                              u428_20 08B4                                u436_21 0DBB  
                              u444_21 0C79                                u428_21 08B3  
                              u436_25 0DB8                                u445_20 0C84  
                              u429_20 08C2                                u445_21 0C83  
                              u429_21 08C1                                u437_25 0DC4  
                              u445_25 0C80                                u438_20 0DD0  
                              u390_20 0342                                u438_21 0DCF  
                              u390_21 0341                                u446_25 0C8B  
                              u439_20 0DD4                                u447_20 0C97  
                              u391_20 035A                                u447_21 0C96  
                              u391_21 0359                                u448_20 0C9B  
                              u392_20 036D                                u392_21 036C  
                              u393_20 0371                                u393_21 0370  
                              u394_20 0396                                u394_21 0395  
                              u395_20 03A3                                u395_21 03A2  
                              u395_25 039F                                u396_20 03B2  
                              u388_20 0334                                u396_21 03B1  
                              u388_21 0333                                u396_25 03AE  
                              u397_20 03BE                                u389_20 0338  
                              u397_21 03BD                                u389_21 0337  
                              u398_20 03F1                                u398_21 03F0  
                              u670_27 038A                                u671_27 03DD  
                              u672_27 0410                                u673_27 0615  
                              u674_27 09EC                                u675_27 09FC  
                              u676_27 09BE                                _TMR0IE 005D  
                              _TMR0IF 005A                                u677_27 09CE  
             __end_of_UpbuttonHandler 07B4                      __end_of_lcd_init 0B65  
               ?_disableInterrupt_RB0 0070                      __end_of_lcd_puts 0956  
                           ??___awdiv 0033                             ??___awmod 0033  
                        ?_serveCoffee 0070            __size_of_DownButtonHandler 00A2  
                    ___awdiv@quotient 0036                       ___awmod@divisor 002F  
               handleEvent@keyPressed 00A1                       ___awmod@counter 0034  
                           ??_lcd_cmd 002F           __size_of_lcd_writeThisDigit 0086  
                   __end_ofi1___awdiv 0DE0                     __end_ofi1___awmod 0CA7  
                           ??_goto_XY 0033                          __pdataCOMMON 007C  
                    __end_of_serveTea 0D70                                saved_w 007E  
     __end_ofi1_lcd_writeThisStringAt 087B                     __end_ofi1_lcd_cmd 0A05  
                   __end_ofi1_goto_XY 08CA   __end_of_PeripheralInterrupt_DISABLE 0809  
         _PeripheralInterrupt_DISABLE 0807                 lcd_init@command_array 0033  
                       lcd_write@data 0031                  _NormalModeOperations 0A61  
                      __pcstackCOMMON 0070      __size_of_default_initialisations 0011  
                        __pidataBANK0 0835                   __size_ofi1_lcd_puts 0024  
            lcd_writeThisDigit@string 003B        NormalModeOperations@keyPressed 003B  
     SettingModeOperations@keyPressed 00A0                    __size_of_lcd_clear 0007  
                  __size_of_lcd_write 002E               ??_PreviousButtonHandler 0043  
                       _modeOfWorking 0054                            __pbssBANK0 0055  
               __size_of_IsKeyPressed 00DF            i1lcd_writeThisDigit@string 0020  
               ?_NormalModeOperations 0070                      ?_UpbuttonHandler 0070  
                        ?i1_lcd_clear 0070                ??_disableInterrupt_RB0 0070  
                          __pmaintext 0B65                       _initialisePortB 0813  
         __end_of_enableInterrupt_RB0 0813                          ?i1_lcd_write 0070  
               __end_of_serveHotWater 0B2D                            __pintentry 0004  
                          __ptext1500 09A9                            __ptext1501 0C47  
                          __ptext1502 0D70                            __ptext1503 0809  
                          __ptext1504 0803                            __ptext1505 0000  
                          __ptext1460 061D                            __ptext1461 0956  
                          __ptext1470 0D09                            __ptext1462 0A90  
                          __ptext1471 0AF6                            __ptext1463 0BA7  
                          __ptext1480 0820                            __ptext1472 0ABF  
                          __ptext1464 0F5E                            __ptext1481 0A33  
                          __ptext1473 0BEE                            __ptext1465 06FC  
                          __ptext1490 0805                            __ptext1482 0A05  
                          __ptext1474 0ED8                            __ptext1466 07B4  
                          __ptext1491 0330                            __ptext1483 00FF  
                          __ptext1475 0894                            __ptext1467 0A61  
                          __ptext1492 0827                            __ptext1484 0CA7  
                          __ptext1476 087B                            __ptext1468 043D  
                          __ptext1493 052D                            __ptext1485 0DE0  
                          __ptext1477 08CA                            __ptext1469 08EA  
                          __ptext1494 0E52                            __ptext1486 0813  
                          __ptext1478 092E                            __ptext1495 0866  
                          __ptext1487 0844                            __ptext1479 0B2D  
                          __ptext1496 0819                            __ptext1488 080E  
                          __ptext1497 08AE                            __ptext1489 0807  
                          __ptext1498 090A                            __ptext1499 09D7  
                  i1___awdiv@dividend 0072        __size_of_InitialiseSettingMode 000E  
       __end_of_InitialiseSettingMode 0835                      ??i1_UpdateScreen 0025  
                         _ScreenIndex 0058                          _IsKeyPressed 061D  
               __end_of_isItFirstTime 0330                          i1goto_XY@row 0074  
                           ?_lcd_init 0070                    _CurrentTeaQuantity 0051  
                           ?_lcd_puts 0032                          _IsNewMachine 007C  
               _SettingModeOperations 0A90                 i1_enableInterrupt_RB0 0809  
                    UpdateScreen@Mode 0070                            _keyPressed 005E  
                  i1___awdiv@quotient 0077          __end_ofi1_lcd_writeThisDigit 0ED8  
                   __end_of_lcd_clear 0827                       i1lcd_write@data 0072  
      __size_of_lcd_writeThisStringAt 0019                             ?_serveTea 0070  
       __end_of_lcd_writeThisStringAt 0894                               ___awdiv 0DE0  
                             ___awmod 0CA7         i1lcd_writeThisStringAt@column 0075  
                   __end_of_lcd_write 0A61      __size_ofi1_lcd_writeThisStringAt 0015  
                             _lcd_cmd 0A05                          __size_of_ISR 010D  
                __size_of_serveCoffee 0059                               _goto_XY 08CA  
                    ___awmod@dividend 0031                          ??i1_lcd_puts 0075  
                          ??_lcd_init 0032                            ??_lcd_puts 0034  
                      _ParameterIndex 0057                  end_of_initialization 09A5  
                       ?_UpdateScreen 0070              _peripheral_initialsation 0894  
             __end_of_initialisePortB 0819                               init_ram 0859  
                        _isKeyPressed 005D                ??_NormalModeOperations 003B  
             _default_initialisations 0844                            ??_serveTea 0038  
                  __end_ofi1_lcd_puts 092E                         ??_handleEvent 0046  
                           i1___awdiv 0D70                             i1___awmod 0C47  
              ?_SettingModeOperations 0070                        ??_UpdateScreen 0040  
       __size_of_default_bootSequence 0020                ?i1_enableInterrupt_RB0 0070  
                           i1_lcd_cmd 09D7                             i1_goto_XY 08AE  
                   _NextButtonHandler 0BA7              ??_GlobalInterrupt_ENABLE 002F  
                  ?_NextButtonHandler 0070                        _timer0_count10 0060  
                       i1lcd_cmd@cmnd 0072                  __size_ofi1_lcd_clear 0007  
__size_of_PeripheralInterrupt_DISABLE 0002            __end_of_lcd_writeThisDigit 0F5E  
                __size_ofi1_lcd_write 002E                   ??_NextButtonHandler 0043  
                       __pidataCOMMON 07FD                   start_initialization 097F  
                         __end_of_ISR 043D                            ?i1___awdiv 0070  
                i1_lcd_writeThisDigit 0E52                            ?i1___awmod 0070  
                 __end_of_handleEvent 097F        __size_of_PreviousButtonHandler 0049  
       __end_of_PreviousButtonHandler 07FD             __end_of_NextButtonHandler 0BEE  
                          ?i1_lcd_cmd 0070                      ?_initialisePortB 0070  
                          ?i1_goto_XY 0073             ??_default_initialisations 002F  
                       i1lcd_puts@ptr 0073                            goto_XY@row 0033  
             i1_lcd_writeThisStringAt 0866                           __pdataBANK0 0046  
                  i1___awmod@dividend 0072                         __pcstackBANK0 0020  
                       __pcstackBANK1 00A0                 ?i1_lcd_writeThisDigit 0070  
                   __size_of_lcd_init 0038                     __size_of_lcd_puts 0028  
                      _button_pressed 0059                     _serveHalfQuantity 0ABF  
     __size_of_GlobalInterrupt_ENABLE 0002                    ?_serveHalfQuantity 0070  
       __size_of_disableInterrupt_RB0 0002                              ?___awdiv 002F  
                            ?___awmod 002F                  __end_of_UpdateScreen 052D  
                   __size_of_serveTea 0067                     i1___awdiv@divisor 0070  
                           _lcd_clear 0820              __size_of_UpbuttonHandler 00B8  
                   i1___awdiv@counter 0075                             __pstrings 0015  
                 ??_serveHalfQuantity 0038                              ?_lcd_cmd 0070  
                           _lcd_write 0A33       __end_of_default_initialisations 0855  
        __size_of_enableInterrupt_RB0 0005                           _handleEvent 0956  
                            ?_goto_XY 0032            ??_peripheral_initialsation 003A  
                         ??i1___awdiv 0074                           ??i1___awmod 0074  
               _InitialiseSettingMode 0827                __size_of_serveHotWater 0037  
          __size_of_NextButtonHandler 0047                           ??i1_lcd_cmd 0070  
                   interrupt_function 0004             __end_of_serveHalfQuantity 0AF6  
                         ??i1_goto_XY 0074                 _CurrentCoffeeQuantity 0050  
           ??i1_lcd_writeThisStringAt 0077                     _flag_T0_OneSecond 005A  
                   _flag_T0_TenSecond 005B                __size_of_isItFirstTime 0231  
                       ??_serveCoffee 0038                 _lcd_writeThisStringAt 087B  
                          ?_lcd_clear 0070                           __stringbase 0024  
                          ?_lcd_write 0070                _GlobalInterrupt_ENABLE 0805  
              ??i1_lcd_writeThisDigit 0079               ??_SettingModeOperations 0046  
             ??i1_enableInterrupt_RB0 0070              i1lcd_writeThisDigit@data 0024  
        ?_PeripheralInterrupt_DISABLE 0070               __size_ofi1_UpdateScreen 00F0  
       __size_of_NormalModeOperations 002F                             init_fetch 0855  
        __end_of_default_bootSequence 090A                  _isFirstTimeInSetting 007D  
                   i1___awmod@divisor 0070                         _serveHotWater 0AF6  
                   i1___awmod@counter 0075                      __size_of___awdiv 0072  
                    __size_of___awmod 0062                         goto_XY@column 0032  
                    __size_of_lcd_cmd 002E                   __end_of_serveCoffee 0C47  
                    __size_of_goto_XY 0020                ?_InitialiseSettingMode 0070  
                   ??_UpbuttonHandler 0043                    _lcd_writeThisDigit 0ED8  
                       _isItFirstTime 00FF                              _lcd_init 0B2D  
                            _lcd_puts 092E            __size_of_serveHalfQuantity 0037  
                 ?_lcd_writeThisDigit 0070                         __size_of_main 0042  
       ??_PeripheralInterrupt_DISABLE 002F                         ??i1_lcd_clear 0073  
               __size_of_UpdateScreen 00F0                  _isFirstTime_Settings 005C  
                       ??i1_lcd_write 0070                              _serveTea 0D09  
                      ?_serveHotWater 0070                ?_lcd_writeThisStringAt 0034  
                         ??_lcd_clear 0032                          _timer0_count 005F  
                ??_lcd_writeThisDigit 0038                           ??_lcd_write 002F  
    __end_of_peripheral_initialsation 08AE                         ?_IsKeyPressed 0070  
                      ?_isItFirstTime 0070                              intlevel1 0000  
                        _UpdateScreen 043D        _CurrentWaterQuantity_forCoffee 0052  
                 _enableInterrupt_RB0 080E                 _PreviousButtonHandler 07B4  
                           stringcode 001F                    _buttonPressedCount 0055  
            __size_of_initialisePortB 0006                   __end_ofi1_lcd_clear 0820  
                         _serveCoffee 0BEE                   __end_ofi1_lcd_write 09D7  
                ?_enableInterrupt_RB0 0070                          ?_handleEvent 0070  
                     i1goto_XY@column 0073                        ??_IsKeyPressed 00A2  
                            stringdir 001F                              stringtab 0015  
        __end_of_disableInterrupt_RB0 0805                  _default_bootSequence 08EA  
            ?_default_initialisations 0070                        i1_UpdateScreen 052D  
                     ??_serveHotWater 0038  
